
Moon Force.elf:     file format elf32-avr

Sections:
Idx Name          Size      VMA       LMA       File off  Algn
  0 .data         0000001e  00803800  00003aa8  00003b5c  2**0
                  CONTENTS, ALLOC, LOAD, DATA
  1 .text         00003872  00000000  00000000  000000b4  2**1
                  CONTENTS, ALLOC, LOAD, READONLY, CODE
  2 .rodata       00000236  0000b872  00003872  00003926  2**0
                  CONTENTS, ALLOC, LOAD, READONLY, DATA
  3 .bss          00000642  0080381e  0080381e  00003b7a  2**0
                  ALLOC
  4 .comment      00000030  00000000  00000000  00003b7a  2**0
                  CONTENTS, READONLY
  5 .note.gnu.avr.deviceinfo 00000040  00000000  00000000  00003bac  2**2
                  CONTENTS, READONLY
  6 .debug_info   000019ed  00000000  00000000  00003bec  2**0
                  CONTENTS, READONLY, DEBUGGING
  7 .debug_abbrev 00001888  00000000  00000000  000055d9  2**0
                  CONTENTS, READONLY, DEBUGGING
  8 .debug_line   00000151  00000000  00000000  00006e61  2**0
                  CONTENTS, READONLY, DEBUGGING
  9 .debug_str    00000acf  00000000  00000000  00006fb2  2**0
                  CONTENTS, READONLY, DEBUGGING

Disassembly of section .text:

00000000 <__vectors>:
       0:	0c 94 46 05 	jmp	0xa8c	; 0xa8c <__ctors_end>
       4:	0c 94 63 05 	jmp	0xac6	; 0xac6 <__bad_interrupt>
       8:	0c 94 63 05 	jmp	0xac6	; 0xac6 <__bad_interrupt>
       c:	0c 94 1c 1b 	jmp	0x3638	; 0x3638 <__vector_3>
      10:	0c 94 63 05 	jmp	0xac6	; 0xac6 <__bad_interrupt>
      14:	0c 94 63 05 	jmp	0xac6	; 0xac6 <__bad_interrupt>
      18:	0c 94 63 05 	jmp	0xac6	; 0xac6 <__bad_interrupt>
      1c:	0c 94 51 1b 	jmp	0x36a2	; 0x36a2 <__vector_7>
      20:	0c 94 63 05 	jmp	0xac6	; 0xac6 <__bad_interrupt>
      24:	0c 94 63 05 	jmp	0xac6	; 0xac6 <__bad_interrupt>
      28:	0c 94 63 05 	jmp	0xac6	; 0xac6 <__bad_interrupt>
      2c:	0c 94 63 05 	jmp	0xac6	; 0xac6 <__bad_interrupt>
      30:	0c 94 63 05 	jmp	0xac6	; 0xac6 <__bad_interrupt>
      34:	0c 94 f0 1a 	jmp	0x35e0	; 0x35e0 <__vector_13>
      38:	0c 94 63 05 	jmp	0xac6	; 0xac6 <__bad_interrupt>
      3c:	0c 94 63 05 	jmp	0xac6	; 0xac6 <__bad_interrupt>
      40:	0c 94 63 05 	jmp	0xac6	; 0xac6 <__bad_interrupt>
      44:	0c 94 63 05 	jmp	0xac6	; 0xac6 <__bad_interrupt>
      48:	0c 94 63 05 	jmp	0xac6	; 0xac6 <__bad_interrupt>
      4c:	0c 94 63 05 	jmp	0xac6	; 0xac6 <__bad_interrupt>
      50:	0c 94 63 05 	jmp	0xac6	; 0xac6 <__bad_interrupt>
      54:	0c 94 63 05 	jmp	0xac6	; 0xac6 <__bad_interrupt>
      58:	0c 94 63 05 	jmp	0xac6	; 0xac6 <__bad_interrupt>
      5c:	0c 94 63 05 	jmp	0xac6	; 0xac6 <__bad_interrupt>
      60:	0c 94 63 05 	jmp	0xac6	; 0xac6 <__bad_interrupt>
      64:	0c 94 63 05 	jmp	0xac6	; 0xac6 <__bad_interrupt>
      68:	0c 94 63 05 	jmp	0xac6	; 0xac6 <__bad_interrupt>
      6c:	0c 94 63 05 	jmp	0xac6	; 0xac6 <__bad_interrupt>
      70:	0c 94 63 05 	jmp	0xac6	; 0xac6 <__bad_interrupt>
      74:	0c 94 63 05 	jmp	0xac6	; 0xac6 <__bad_interrupt>
      78:	0c 94 63 05 	jmp	0xac6	; 0xac6 <__bad_interrupt>
      7c:	df 12       	cpse	r13, r31
      7e:	fc 12       	cpse	r15, r28
      80:	27 13       	cpse	r18, r23
      82:	65 13       	cpse	r22, r21
      84:	7a 13       	cpse	r23, r26
      86:	87 13       	cpse	r24, r23
      88:	9b 13       	cpse	r25, r27
      8a:	c2 13       	cpse	r28, r18

0000008c <__trampolines_end>:
      8c:	20 10       	cpse	r2, r0
      8e:	c0 e0       	ldi	r28, 0x00	; 0
      90:	f0 f0       	brcs	.+60     	; 0xce <__trampolines_end+0x42>
      92:	f8 f8       	.word	0xf8f8	; ????
      94:	fc fc       	.word	0xfcfc	; ????
      96:	fe fe       	.word	0xfefe	; ????
      98:	ff ff       	.word	0xffff	; ????
      9a:	ff ff       	.word	0xffff	; ????
      9c:	ff ff       	.word	0xffff	; ????
      9e:	ff ff       	.word	0xffff	; ????
      a0:	ff ff       	.word	0xffff	; ????
      a2:	ff ff       	.word	0xffff	; ????
      a4:	fe fe       	.word	0xfefe	; ????
      a6:	fc fc       	.word	0xfcfc	; ????
      a8:	f8 f8       	.word	0xf8f8	; ????
      aa:	f0 f0       	brcs	.+60     	; 0xe8 <__trampolines_end+0x5c>
      ac:	e0 c0       	rjmp	.+448    	; 0x26e <vertExplode+0x9e>
      ae:	07 0f       	add	r16, r23
      b0:	1f 1f       	adc	r17, r31
      b2:	1f 1f       	adc	r17, r31
      b4:	1f 1f       	adc	r17, r31
      b6:	1f 1f       	adc	r17, r31
      b8:	1f 3f       	cpi	r17, 0xFF	; 255
      ba:	3f 7f       	andi	r19, 0xFF	; 255
      bc:	ff ff       	.word	0xffff	; ????
      be:	ff ff       	.word	0xffff	; ????
      c0:	7f 3f       	cpi	r23, 0xFF	; 255
      c2:	3f 1f       	adc	r19, r31
      c4:	1f 1f       	adc	r17, r31
      c6:	1f 1f       	adc	r17, r31
      c8:	1f 1f       	adc	r17, r31
      ca:	1f 1f       	adc	r17, r31
      cc:	0f 07       	cpc	r16, r31
      ce:	00 40       	sbci	r16, 0x00	; 0
      d0:	60 60       	ori	r22, 0x00	; 0
      d2:	70 50       	subi	r23, 0x00	; 0
      d4:	48 48       	sbci	r20, 0x88	; 136
      d6:	64 64       	ori	r22, 0x44	; 68
      d8:	72 72       	andi	r23, 0x22	; 34
      da:	7a 7a       	andi	r23, 0xAA	; 170
      dc:	7a 7a       	andi	r23, 0xAA	; 170
      de:	7a 7a       	andi	r23, 0xAA	; 170
      e0:	7a 7e       	andi	r23, 0xEA	; 234
      e2:	7e 7e       	andi	r23, 0xEE	; 238
      e4:	7c 7c       	andi	r23, 0xCC	; 204
      e6:	78 78       	andi	r23, 0x88	; 136
      e8:	70 70       	andi	r23, 0x00	; 0
      ea:	60 60       	ori	r22, 0x00	; 0
      ec:	40 00       	.word	0x0040	; ????
      ee:	00 03       	mulsu	r16, r16
      f0:	0b 0b       	sbc	r16, r27
      f2:	0b 0b       	sbc	r16, r27
      f4:	0b 08       	sbc	r0, r11
      f6:	08 08       	sbc	r0, r8
      f8:	08 1b       	sub	r16, r24
      fa:	1b 3b       	cpi	r17, 0xBB	; 187
      fc:	7b 7b       	andi	r23, 0xBB	; 187
      fe:	7b 6b       	ori	r23, 0xBB	; 187
     100:	2b 1b       	sub	r18, r27
     102:	1b 08       	sbc	r1, r11
     104:	08 08       	sbc	r0, r8
     106:	08 0b       	sbc	r16, r24
     108:	0b 0b       	sbc	r16, r27
     10a:	0b 0b       	sbc	r16, r27
     10c:	03 00       	.word	0x0003	; ????

0000010e <mediumExplode>:
     10e:	10 10 00 c6 df fe fc f8 f0 f0 fe f0 e0 f0 78 4c     ..............xL
     11e:	46 00 01 03 47 ff 7f 3f 1f 1f 3f 7f 3f 1f 0f 1e     F...G..?..?.?...
     12e:	1c 20 00 00 46 1c b8 b0 c0 c0 f4 c0 60 b0 08 44     . ..F.......`..D
     13e:	00 00 00 01 01 45 31 1f 0f 05 1f 3f 03 16 06 0c     .....E1....?....
     14e:	10 00 0f df e3 2b 12 38 9c 1c 3b c0 c4 96 27 73     .....+.8..;...'s
     15e:	3f 1e 70 79 fb fa 64 41 0c 30 72 e3 fb 71 58 99     ?.py..dA.0r..qX.
     16e:	3f 1e 06 0b c1 2a 00 18 0c 0c 01 00 c0 92 03 21     ?....*.........!
     17e:	31 1e 60 70 d9 ca 40 01 08 20 60 c2 f3 61 18 90     1.`p..@.. `..a..
     18e:	31 1e 46 47 01 02 24 40 00 0c 00 00 12 32 a8 89     1.FG..$@.....2..
     19e:	23 26 70 f2 c2 94 b4 40 10 08 00 60 31 02 98 80     #&p....@...`1...
     1ae:	f0 78 46 01 00 02 20 00 00 04 00 00 00 12 20 88     .xF... ....... .
     1be:	01 22 70 c2 80 14 a0 00 10 00 00 40 20 02 10 80     ."p........@ ...
     1ce:	80 70                                               .p

000001d0 <vertExplode>:
     1d0:	10 18 00 00 00 00 00 00 e0 f8 e0 00 00 00 00 00     ................
     1e0:	00 00 00 00 c0 0c fc f0 ff ff ff e0 e0 e8 18 00     ................
     1f0:	00 80 70 70 f1 ff ff ff ff ff 7f ff ff 7f fe ef     ..pp............
     200:	e3 40 00 00 00 00 00 00 00 d0 00 00 00 00 00 00     .@..............
     210:	00 00 00 00 80 04 30 e0 80 ff e0 80 c0 60 08 00     ......0......`..
     220:	00 80 20 20 a0 52 74 7d ff 37 3f 7d bf 3e 6c 42     ..  .Rt}.7?}.>lB
     230:	40 00 00 40 c0 84 7c f8 c0 fe fe f0 7e 8e f8 fe     @..@..|.....~...
     240:	06 00 00 10 71 ff 9e ff ff ff ff fc fc cf f7 3c     ....q..........<
     250:	0e 02 00 0c 38 71 7f 7f ff 03 07 03 ff ff 13 08     ....8q..........
     260:	04 04 00 40 80 04 78 c0 00 7e 80 00 70 0e 80 f8     ...@..x..~..p...
     270:	06 00 00 10 61 9e 00 93 e0 7c ef fc c0 08 c7 30     ....a....|.....0
     280:	0c 02 00 08 30 01 06 77 00 00 03 00 01 fe 03 08     ....0..w........
     290:	00 04 06 0f 23 33 ff ee 06 67 83 fb e2 6e e7 c3     ....#3...g...n..
     2a0:	1f 3e 00 02 33 1b 73 c6 1c 7c 00 ff ff 00 78 0c     .>..3.s..|....x.
     2b0:	86 80 00 04 0c 00 00 01 06 00 00 18 01 00 00 00     ................
     2c0:	01 01 06 01 21 13 36 e0 02 27 03 7b 22 20 26 c3     ....!.6..'.{" &.
     2d0:	07 1e 00 02 11 09 32 c4 18 00 00 00 7f 00 38 04     ......2.......8.
     2e0:	02 80 00 04 00 00 00 00 02 00 00 08 00 00 00 00     ................
     2f0:	00 00 3c 7f 67 e3 c0 00 04 08 20 10 41 e1 e7 ff     ..<.g..... .A...
     300:	fe 7c 00 07 0f 0c 08 40 82 04 00 00 40 20 09 0f     .|.....@....@ ..
     310:	0e 00 18 18 00 00 00 00 00 00 00 00 30 30 00 00     ............00..
     320:	06 06 3c 66 43 c1 80 00 04 00 00 10 00 41 c1 e6     ..<fC........A..
     330:	7c 18 00 07 0c 08 00 40 02 00 00 00 00 20 00 08     |......@..... ..
     340:	06 00 10 00 00 00 00 00 00 00 00 00 00 20 00 00     ............. ..
     350:	00 04                                               ..

00000352 <bulletMan>:
     352:	10 08 18 3c 7e 7f ff ff ff ff ff ff ff ff ff a5     ...<~...........
     362:	81 81 00 18 34 3c 7e 7e 7e 7e 7e 24 24 00 24 00     ....4<~~~~~$$.$.
	...

00000374 <evilBomb>:
     374:	08 08 30 78 fe ff ff ff 7b 31 00 30 68 f6 fd 79     ..0x....{1.0h..y
     384:	31 00                                               1.

00000386 <evilWave>:
     386:	08 08 0f 7f fc ff ff fc 7f 0f 07 0c 70 c6 c6 70     ............p..p
     396:	0c 07                                               ..

00000398 <balls>:
     398:	10 10 00 1c 3e 7f 7f 7f fe fc c0 e0 f0 f0 f0 e0     ....>...........
     3a8:	c0 00 00 00 38 7c fe fe ff 7f 3f 03 07 07 07 03     ....8|....?.....
     3b8:	01 00 00 00 1c 3a 3e 3e 5c 80 00 c0 e0 a0 e0 c0     .....:>>\.......
     3c8:	00 00 00 00 00 38 7c 7c 5c 3a 00 01 03 03 03 01     .....8||\:......
	...

000003da <ufo>:
     3da:	10 08 38 7c 7c 7c 7e 7e ff ff ff ff 7e 7e 7c 7c     ..8|||~~....~~||
     3ea:	7c 38 00 28 28 28 24 20 68 6c 6e 4e 2c 2c 28 28     |8.((($ hlnN,,((
     3fa:	28 00                                               (.

000003fc <largePit>:
     3fc:	18 08 01 03 03 07 07 0f 0f 0f 1f 3f 7f ff ff ff     ...........?....
     40c:	ff ff ff 3f 1f 0f 07 03 01 01 fe fc fc f8 f8 f0     ...?............
     41c:	f0 f0 e0 c0 80 00 00 00 00 00 00 c0 e0 f0 f8 fc     ................
     42c:	fe fe                                               ..

0000042e <smallPit>:
     42e:	10 08 01 03 03 07 07 0f 1f 7f ff ff 3f 1f 0f 03     ............?...
     43e:	01 01 fe fc fc f8 f8 f0 e0 80 00 00 c0 e0 f0 fc     ................
     44e:	fe fe                                               ..

00000450 <largeRock>:
     450:	10 10 c0 e0 f8 fc fe fe fe fe fe fe fc f8 f0 e0     ................
     460:	c0 80 ff ff ff ff ff ff ff ff ff ff ff ff ff ff     ................
     470:	ff ff c0 e0 b8 d4 fa fe fe fe be fa fc d8 b0 e0     ................
     480:	c0 80 f7 fe ff ff ff ff ff ff ff ff ff ff ff ff     ................
     490:	fe f7                                               ..

00000492 <smallRock>:
     492:	08 10 80 e0 fc fe fe fc f8 80 ff ff ff ff ff ff     ................
     4a2:	ff ff 80 e0 bc ea fe fc f8 80 fb fe ff ff ff ff     ................
     4b2:	f7 ff                                               ..

000004b4 <dualShot>:
     4b4:	08 08 06 7f ff 7f 7f ff 7f 06 00 06 af 00 00 af     ................
     4c4:	06 00                                               ..

000004c6 <blaster>:
     4c6:	10 08 18 00 42 5a 18 5a 5a 5a ff ff ff ff ff 7e     ....BZ.ZZZ.....~
     4d6:	3c 18 18 00 42 18 00 18 42 18 5a 7e 76 7e 7a 34     <...B...B.Z~v~z4
     4e6:	18 00 42 42 18 5a 5a 5a 18 7e ff ff ff ff ff 7e     ..BB.ZZZ.~.....~
     4f6:	3c 18 42 00 00 18 42 18 00 24 7e 6e 7e 7e 5e 2c     <.B...B..$~n~~^,
     506:	18 00                                               ..

00000508 <buggie>:
     508:	18 08 78 f8 f8 f8 ff ff fe fc f8 f8 f8 fe ff ff     ..x.............
     518:	ff ff ff ff ff fe fc fc f8 70 00 70 70 70 70 7e     .........p.pppp~
     528:	74 78 70 70 70 70 7e 7e 72 72 72 72 72 74 78 78     txpppp~~rrrrrtxx
     538:	70 00                                               p.

0000053a <wheel>:
     53a:	08 08 00 18 3c 7e 7e 3c 18 00 00 00 18 2c 34 18     ....<~~<.....,4.
	...

0000054c <tileData>:
     54c:	fe fe fe fe fe fe fe fe fc fc fc fc fc fc fc fc     ................
     55c:	f8 f8 f8 f8 f8 f8 f8 f8 13 0b 05 02 00 00 01 03     ................
     56c:	01 00 04 00 01 01 01 12 02 02 04 04 04 48 08 08     .............H..
     57c:	88 90 90 b0 b0 98 98 98 58 4c 2c 26 16 13 03 07     ........XL,&....
     58c:	07 03 06 0a 02 02 14 04 44 4c 4c 2c 26 16 13 0b     ........DLL,&...
     59c:	09 05 04 04 02 00 00 00 00 00 00 00 02 00 00 00     ................
     5ac:	09 01 02 06 16 12 12 12 13 13 13 13 13 0b 09 09     ................
     5bc:	09 09 05 04 04 04 04 02 02 02 02 01 01 01 01 00     ................
     5cc:	00 00 02 00 00 00 04 00 00 00 80 c0 e0 c0 80 80     ................
     5dc:	c0 80 80 80 00 00 00 00 80 80 c0 c0 60 30 70 78     ............`0px
     5ec:	30 30 a0 20 40 40 80 80 80 80 80 c0 c0 c0 c0 c0     00. @@..........
     5fc:	60 60 60 60 30 30 30 b0 98 58 4c 4c 0c 0e 0e 0c     ````000..XLL....
     60c:	08 28 08 08 08 50 10 10 20 20 40 40 40 40 80 80     .(...P..  @@@@..
     61c:	00 00 40 50 b8 2c 7c fe fe f7 7f ff ff ff ff ff     ..@P.,|.........
     62c:	fe fe fc fc f8 f0 c0 00 00 01 00 15 02 49 12 0a     .............I..
     63c:	0a 24 15 15 09 0a 23 0b 8b 0b 23 0a 23 0b 23 0b     .$....#...#.#.#.
	...
     654:	00 00 00 de de de 00 00 00 1e 1e 00 00 1e 1e 00     ................
     664:	00 6c fe fe 6c fe fe 6c 00 48 5c 54 fe 54 74 24     .l..l..l.H\T.Tt$
     674:	30 72 bc b0 fc 30 fc 32 00 60 f4 9e ba 6e e4 a0     0r...0.2.`...n..
     684:	30 70 bc b2 f8 32 fc 30 00 00 00 7c fe c6 82 00     0p...2.0...|....
     694:	00 00 82 c6 fe 7c 00 00 10 54 7c 38 38 7c 54 10     .....|...T|88|T.
     6a4:	00 18 18 7e 7e 18 18 00 00 00 80 e0 e0 60 00 00     ...~~........`..
     6b4:	00 18 18 18 18 18 18 00 00 00 00 e0 e0 e0 00 00     ................
     6c4:	00 c0 60 30 18 0c 04 00 00 7c fe fe fe 82 fe 7c     ..`0.....|.....|
     6d4:	00 00 0c fc fe fe fe 00 00 c4 e6 f2 de de de cc     ................
     6e4:	00 44 d6 92 fe fe fe 7c 00 3e 3e 30 3e fe fe 30     .D.....|.>>0>..0
     6f4:	00 5e de da da da fa 72 00 7c fe 8a fa fa fa 72     .^.....r.|.....r
     704:	00 02 02 f2 fa fe 0e 06 00 6c fe 92 fe fe fe 6c     .........l.....l
     714:	00 1c be a2 fe fe fe 7c 00 00 00 6c 6c 6c 00 00     .......|...lll..
     724:	00 00 80 ec ec 6c 00 00 00 00 10 38 7c fe 00 00     .....l.....8|...
     734:	00 6c 6c 6c 6c 6c 6c 00 00 00 fe 7c 38 10 00 00     .llllll....|8...
     744:	00 0c 06 d2 da de 0e 04 00 7c fe c6 ba aa b6 bc     .........|......
     754:	00 fc fe 12 fe fe fe fc 00 fe fe fe fe 92 fe 6c     ...............l
     764:	00 7c fe fe fe 82 c6 44 00 fe fe fe fe 82 fe 7c     .|.....D.......|
     774:	00 fe fe fe fe 92 92 82 00 fe fe fe fe 12 12 02     ................
     784:	00 7c fe fe fe 82 a6 e4 00 fe fe 10 fe fe fe fe     .|..............
     794:	00 82 fe fe fe fe 82 00 00 40 c2 82 fe fe 7e 02     .........@....~.
     7a4:	00 fe fe fe fe 38 ee c6 00 fe fe fe fe 80 80 80     .....8..........
     7b4:	00 fe fe 1e fc 1e fe fe 00 fe fe fe 1c 38 fe fe     .............8..
     7c4:	00 7c fe 82 fe fe fe 7c 00 fe fe fe fe 22 3e 1c     .|.....|.....">.
     7d4:	00 7c fe a2 fe fe fe 7c 00 fe fe fe fe 22 fe dc     .|.....|....."..
     7e4:	00 4c de 9e fe f2 f6 64 00 02 02 fe fe fe 02 02     .L.....d........
     7f4:	00 7e fe 80 fe fe fe 7e 00 3e 7e e0 fe fe 7e 3e     .~.....~.>~...~>
     804:	00 7e fe e0 7c e0 fe 7e 00 c6 ee 7c 38 7c ee c6     .~..|..~...|8|..
     814:	00 0e 1e fe f8 fe 1e 0e 00 e2 f2 fa fe be 9e 8e     ................
	...
     834:	00 20 30 38 3c 38 30 20 00 10 30 70 f0 70 30 10     . 08<80 ..0p.p0.
     844:	00 30 78 fc fc 78 30 00 00 00 00 fc 00 c0 e0 a0     .0x..x0.........
     854:	fc b8 b8 ff b0 a0 f4 ba a1 a1 a1 a5 ae b4 e0 c0     ................
     864:	18 14 34 ff 1e d6 16 1e 1f 17 17 1e 1e fe ff 3c     ..4............<
     874:	00 80 e0 d0 d8 fc de d0 f0 e0 80 e0 c0 ff c0 80     ................
     884:	00 00 fc 00 00 00 38 74 56 de 76 d6 5c 7c 38 00     ......8tV.v.\|8.
     894:	00 90 f0 90 00 00 00 00 c0 00 00 fe 58 58 5f 7a     ............XX_z
     8a4:	5e 5a 5e 7e 7f 7f e0 c0 00 00 06 0f 0f 06 00 00     ^Z^~............
     8b4:	00 00 00 7f 7f 40 40 40 40 40 40 7f 7f 40 40 40     .....@@@@@@..@@@
     8c4:	40 40 40 7f 7f 00 00 00 80 c0 20 9f 50 51 52 52     @@@....... .PQRR
     8d4:	0e 00 00 00 00 00 00 00 00 00 08 1c 14 16 23 c1     ..............#.
     8e4:	80 80 fe 01 fc 03 00 00 00 00 00 00 00 03 ff fc     ................
     8f4:	c1 22 17 8a 43 22 13 02 83 42 23 33 3a 3f 77 e3     ."..C"...B#3:?w.
     904:	c0 20 1f 90 48 28 28 08 0c 07 04 07 0c 08 08 08     . ..H((.........
     914:	18 10 3f e0 c0 80 80 80 ff f0 10 09 c5 23 10 08     ..?..........#..
     924:	00 00 00 00 0c 1e f3 e1 80 80 80 80 80 80 80 80     ................
     934:	18 7e 18 1e da 1a 7c 18 40 40 40 60 60 40 40 40     .~....|.@@@``@@@
     944:	0c cf 0c 0f 3d 0d ce 0c 00 00 00 00 00 00 00 80     ....=...........
     954:	40 80 00 00 00 00 00 00 00 00 00 00 00 80 e0 50     @..............P
     964:	a0 c0 80 00 80 00 00 00 00 00 00 e0 38 16 68 28     ............8.h(
     974:	50 60 80 00 00 00 00 00 00 00 02 00 00 00 00 00     P`..............
     984:	00 00 00 00 00 00 80 70 28 d0 e0 c0 80 00 00 00     .......p(.......
     994:	00 00 00 08 00 00 00 00 00 00 02 00 20 00 00 00     ............ ...
     9a4:	00 00 00 00 00 00 80 40 a0 30 38 16 41 22 04 08     .......@.08.A"..
     9b4:	70 80 00 80 80 40 a0 40 80 40 b0 08 28 17 4a 3c     p....@.@.@..(.J<
     9c4:	9a 34 38 60 c0 00 80 40 01 05 0a 1c 9a 22 11 00     .48`...@....."..
     9d4:	00 05 0a 0f 14 08 10 50 28 94 0a 25 01 0d 02 08     .......P(..%....
     9e4:	05 01 03 27 06 0d 0e 08 1e 45 1a 0d 10 0a 00 00     ...'.....E......
     9f4:	00 01 12 07 85 0a 04 08 10 50 28 94 0a 25 11 1e     .........P(..%..
     a04:	28 70 50 d0 2c 82 43 01 04 02 40 01 0b 16 3c 70     (pP.,.C...@...<p
     a14:	50 d0 28 94 44 22 01 02 0a 14 38 70 50 88 04 08     P.(.D"....8pP...
     a24:	28 14 44 34 0a 25 02 09 84 00 01 00 00 08 00 00     (.D4.%..........
     a34:	00 00 01 00 02 01 84 03 23 03 04 02 01 00 00 00     ........#.......
     a44:	00 00 00 01 82 07 06 09 7f 49 36 00 3e 41 3e 00     .........I6.>A>.
     a54:	46 49 31 00 46 49 31 00 08 08 08 49 2a 1c 08 00     FI1.FI1....I*...
	...
     a70:	00 00 7f 00 00 00 00 00 7f 00 7f 00 00 00 7f 00     ................
     a80:	7f 00 7f 00 7f 00 7f 00 7f 00 7f 00                 ............

00000a8c <__ctors_end>:
     a8c:	11 24       	eor	r1, r1
     a8e:	1f be       	out	0x3f, r1	; 63
     a90:	cf ef       	ldi	r28, 0xFF	; 255
     a92:	cd bf       	out	0x3d, r28	; 61
     a94:	df e3       	ldi	r29, 0x3F	; 63
     a96:	de bf       	out	0x3e, r29	; 62

00000a98 <__do_copy_data>:
     a98:	18 e3       	ldi	r17, 0x38	; 56
     a9a:	a0 e0       	ldi	r26, 0x00	; 0
     a9c:	b8 e3       	ldi	r27, 0x38	; 56
     a9e:	e8 ea       	ldi	r30, 0xA8	; 168
     aa0:	fa e3       	ldi	r31, 0x3A	; 58
     aa2:	02 c0       	rjmp	.+4      	; 0xaa8 <__do_copy_data+0x10>
     aa4:	05 90       	lpm	r0, Z+
     aa6:	0d 92       	st	X+, r0
     aa8:	ae 31       	cpi	r26, 0x1E	; 30
     aaa:	b1 07       	cpc	r27, r17
     aac:	d9 f7       	brne	.-10     	; 0xaa4 <__do_copy_data+0xc>

00000aae <__do_clear_bss>:
     aae:	2e e3       	ldi	r18, 0x3E	; 62
     ab0:	ae e1       	ldi	r26, 0x1E	; 30
     ab2:	b8 e3       	ldi	r27, 0x38	; 56
     ab4:	01 c0       	rjmp	.+2      	; 0xab8 <.do_clear_bss_start>

00000ab6 <.do_clear_bss_loop>:
     ab6:	1d 92       	st	X+, r1

00000ab8 <.do_clear_bss_start>:
     ab8:	a0 36       	cpi	r26, 0x60	; 96
     aba:	b2 07       	cpc	r27, r18
     abc:	e1 f7       	brne	.-8      	; 0xab6 <.do_clear_bss_loop>
     abe:	0e 94 85 1b 	call	0x370a	; 0x370a <main>
     ac2:	0c 94 37 1c 	jmp	0x386e	; 0x386e <_exit>

00000ac6 <__bad_interrupt>:
     ac6:	0c 94 00 00 	jmp	0	; 0x0 <__vectors>

00000aca <screenLoad>:
     aca:	10 92 50 04 	sts	0x0450, r1	; 0x800450 <jumpVelocity+0x7f49c8>
     ace:	81 e0       	ldi	r24, 0x01	; 1
     ad0:	80 93 48 06 	sts	0x0648, r24	; 0x800648 <jumpVelocity+0x7f4bc0>
     ad4:	90 91 1f 38 	lds	r25, 0x381F	; 0x80381f <displaySleep>
     ad8:	91 11       	cpse	r25, r1
     ada:	1a c0       	rjmp	.+52     	; 0xb10 <screenLoad+0x46>
     adc:	80 93 26 04 	sts	0x0426, r24	; 0x800426 <jumpVelocity+0x7f499e>
     ae0:	ef e5       	ldi	r30, 0x5F	; 95
     ae2:	f8 e3       	ldi	r31, 0x38	; 56
     ae4:	80 81       	ld	r24, Z
     ae6:	80 93 24 08 	sts	0x0824, r24	; 0x800824 <jumpVelocity+0x7f4d9c>
     aea:	80 91 23 08 	lds	r24, 0x0823	; 0x800823 <jumpVelocity+0x7f4d9b>
     aee:	85 ff       	sbrs	r24, 5
     af0:	fc cf       	rjmp	.-8      	; 0xaea <screenLoad+0x20>
     af2:	81 81       	ldd	r24, Z+1	; 0x01
     af4:	80 93 24 08 	sts	0x0824, r24	; 0x800824 <jumpVelocity+0x7f4d9c>
     af8:	80 91 23 08 	lds	r24, 0x0823	; 0x800823 <jumpVelocity+0x7f4d9b>
     afc:	85 ff       	sbrs	r24, 5
     afe:	fc cf       	rjmp	.-8      	; 0xaf8 <screenLoad+0x2e>
     b00:	32 96       	adiw	r30, 0x02	; 2
     b02:	8c e3       	ldi	r24, 0x3C	; 60
     b04:	ef 35       	cpi	r30, 0x5F	; 95
     b06:	f8 07       	cpc	r31, r24
     b08:	69 f7       	brne	.-38     	; 0xae4 <screenLoad+0x1a>
     b0a:	81 e0       	ldi	r24, 0x01	; 1
     b0c:	80 93 25 04 	sts	0x0425, r24	; 0x800425 <jumpVelocity+0x7f499d>
     b10:	80 91 50 06 	lds	r24, 0x0650	; 0x800650 <jumpVelocity+0x7f4bc8>
     b14:	90 91 51 06 	lds	r25, 0x0651	; 0x800651 <jumpVelocity+0x7f4bc9>
     b18:	80 93 5f 3c 	sts	0x3C5F, r24	; 0x803c5f <seed>
     b1c:	90 93 60 3c 	sts	0x3C60, r25	; 0x803c60 <seed+0x1>
     b20:	88 e8       	ldi	r24, 0x88	; 136
     b22:	80 93 50 04 	sts	0x0450, r24	; 0x800450 <jumpVelocity+0x7f49c8>
     b26:	08 95       	ret

00000b28 <rowLoad>:
     b28:	cf 93       	push	r28
     b2a:	df 93       	push	r29
     b2c:	db 01       	movw	r26, r22
     b2e:	eb 01       	movw	r28, r22
     b30:	60 96       	adiw	r28, 0x10	; 16
     b32:	6d 91       	ld	r22, X+
     b34:	28 e0       	ldi	r18, 0x08	; 8
     b36:	62 9f       	mul	r22, r18
     b38:	b0 01       	movw	r22, r0
     b3a:	11 24       	eor	r1, r1
     b3c:	20 e0       	ldi	r18, 0x00	; 0
     b3e:	30 e0       	ldi	r19, 0x00	; 0
     b40:	fb 01       	movw	r30, r22
     b42:	e2 0f       	add	r30, r18
     b44:	f3 1f       	adc	r31, r19
     b46:	e8 0f       	add	r30, r24
     b48:	f9 1f       	adc	r31, r25
     b4a:	e4 91       	lpm	r30, Z
     b4c:	e4 23       	and	r30, r20
     b4e:	e0 93 24 08 	sts	0x0824, r30	; 0x800824 <jumpVelocity+0x7f4d9c>
     b52:	50 91 23 08 	lds	r21, 0x0823	; 0x800823 <jumpVelocity+0x7f4d9b>
     b56:	55 ff       	sbrs	r21, 5
     b58:	fc cf       	rjmp	.-8      	; 0xb52 <rowLoad+0x2a>
     b5a:	2f 5f       	subi	r18, 0xFF	; 255
     b5c:	3f 4f       	sbci	r19, 0xFF	; 255
     b5e:	28 30       	cpi	r18, 0x08	; 8
     b60:	31 05       	cpc	r19, r1
     b62:	71 f7       	brne	.-36     	; 0xb40 <rowLoad+0x18>
     b64:	ca 17       	cp	r28, r26
     b66:	db 07       	cpc	r29, r27
     b68:	21 f7       	brne	.-56     	; 0xb32 <rowLoad+0xa>
     b6a:	df 91       	pop	r29
     b6c:	cf 91       	pop	r28
     b6e:	08 95       	ret

00000b70 <getButtons>:
     b70:	90 91 48 04 	lds	r25, 0x0448	; 0x800448 <jumpVelocity+0x7f49c0>
     b74:	20 91 08 04 	lds	r18, 0x0408	; 0x800408 <jumpVelocity+0x7f4980>
     b78:	20 7e       	andi	r18, 0xE0	; 224
     b7a:	89 2f       	mov	r24, r25
     b7c:	8f 70       	andi	r24, 0x0F	; 15
     b7e:	82 2b       	or	r24, r18
     b80:	08 95       	ret

00000b82 <toneLogic>:
     b82:	20 91 20 38 	lds	r18, 0x3820	; 0x803820 <toneDir>
     b86:	30 91 21 38 	lds	r19, 0x3821	; 0x803821 <toneDir+0x1>
     b8a:	21 15       	cp	r18, r1
     b8c:	31 05       	cpc	r19, r1
     b8e:	51 f0       	breq	.+20     	; 0xba4 <toneLogic+0x22>
     b90:	80 91 28 0a 	lds	r24, 0x0A28	; 0x800a28 <jumpVelocity+0x7f4fa0>
     b94:	90 91 29 0a 	lds	r25, 0x0A29	; 0x800a29 <jumpVelocity+0x7f4fa1>
     b98:	82 0f       	add	r24, r18
     b9a:	93 1f       	adc	r25, r19
     b9c:	80 93 28 0a 	sts	0x0A28, r24	; 0x800a28 <jumpVelocity+0x7f4fa0>
     ba0:	90 93 29 0a 	sts	0x0A29, r25	; 0x800a29 <jumpVelocity+0x7f4fa1>
     ba4:	80 91 23 38 	lds	r24, 0x3823	; 0x803823 <toneTimer>
     ba8:	90 91 24 38 	lds	r25, 0x3824	; 0x803824 <toneTimer+0x1>
     bac:	00 97       	sbiw	r24, 0x00	; 0
     bae:	71 f0       	breq	.+28     	; 0xbcc <toneLogic+0x4a>
     bb0:	01 97       	sbiw	r24, 0x01	; 1
     bb2:	80 93 23 38 	sts	0x3823, r24	; 0x803823 <toneTimer>
     bb6:	90 93 24 38 	sts	0x3824, r25	; 0x803824 <toneTimer+0x1>
     bba:	89 2b       	or	r24, r25
     bbc:	39 f4       	brne	.+14     	; 0xbcc <toneLogic+0x4a>
     bbe:	80 91 00 0a 	lds	r24, 0x0A00	; 0x800a00 <jumpVelocity+0x7f4f78>
     bc2:	8e 7f       	andi	r24, 0xFE	; 254
     bc4:	80 93 00 0a 	sts	0x0A00, r24	; 0x800a00 <jumpVelocity+0x7f4f78>
     bc8:	10 92 22 38 	sts	0x3822, r1	; 0x803822 <tonePriority>
     bcc:	08 95       	ret

00000bce <tone>:
     bce:	50 91 22 38 	lds	r21, 0x3822	; 0x803822 <tonePriority>
     bd2:	45 17       	cp	r20, r21
     bd4:	98 f0       	brcs	.+38     	; 0xbfc <tone+0x2e>
     bd6:	20 93 20 38 	sts	0x3820, r18	; 0x803820 <toneDir>
     bda:	30 93 21 38 	sts	0x3821, r19	; 0x803821 <toneDir+0x1>
     bde:	40 93 22 38 	sts	0x3822, r20	; 0x803822 <tonePriority>
     be2:	80 93 28 0a 	sts	0x0A28, r24	; 0x800a28 <jumpVelocity+0x7f4fa0>
     be6:	90 93 29 0a 	sts	0x0A29, r25	; 0x800a29 <jumpVelocity+0x7f4fa1>
     bea:	80 91 00 0a 	lds	r24, 0x0A00	; 0x800a00 <jumpVelocity+0x7f4f78>
     bee:	81 60       	ori	r24, 0x01	; 1
     bf0:	80 93 00 0a 	sts	0x0A00, r24	; 0x800a00 <jumpVelocity+0x7f4f78>
     bf4:	60 93 23 38 	sts	0x3823, r22	; 0x803823 <toneTimer>
     bf8:	70 93 24 38 	sts	0x3824, r23	; 0x803824 <toneTimer+0x1>
     bfc:	08 95       	ret

00000bfe <ledState>:
     bfe:	88 23       	and	r24, r24
     c00:	21 f0       	breq	.+8      	; 0xc0a <ledState+0xc>
     c02:	80 e1       	ldi	r24, 0x10	; 16
     c04:	80 93 25 04 	sts	0x0425, r24	; 0x800425 <jumpVelocity+0x7f499d>
     c08:	08 95       	ret
     c0a:	80 e1       	ldi	r24, 0x10	; 16
     c0c:	80 93 26 04 	sts	0x0426, r24	; 0x800426 <jumpVelocity+0x7f499e>
     c10:	08 95       	ret

00000c12 <getRandom>:
     c12:	91 e0       	ldi	r25, 0x01	; 1
     c14:	90 93 08 06 	sts	0x0608, r25	; 0x800608 <jumpVelocity+0x7f4b80>
     c18:	90 91 0b 06 	lds	r25, 0x060B	; 0x80060b <jumpVelocity+0x7f4b83>
     c1c:	99 23       	and	r25, r25
     c1e:	e1 f3       	breq	.-8      	; 0xc18 <getRandom+0x6>
     c20:	20 91 10 06 	lds	r18, 0x0610	; 0x800610 <jumpVelocity+0x7f4b88>
     c24:	30 91 11 06 	lds	r19, 0x0611	; 0x800611 <jumpVelocity+0x7f4b89>
     c28:	90 91 5f 3c 	lds	r25, 0x3C5F	; 0x803c5f <seed>
     c2c:	29 0f       	add	r18, r25
     c2e:	82 23       	and	r24, r18
     c30:	08 95       	ret

00000c32 <drawTiles>:
     c32:	7f 92       	push	r7
     c34:	8f 92       	push	r8
     c36:	9f 92       	push	r9
     c38:	af 92       	push	r10
     c3a:	bf 92       	push	r11
     c3c:	cf 92       	push	r12
     c3e:	df 92       	push	r13
     c40:	ef 92       	push	r14
     c42:	ff 92       	push	r15
     c44:	0f 93       	push	r16
     c46:	1f 93       	push	r17
     c48:	cf 93       	push	r28
     c4a:	df 93       	push	r29
     c4c:	ec 01       	movw	r28, r24
     c4e:	81 e0       	ldi	r24, 0x01	; 1
     c50:	80 93 26 04 	sts	0x0426, r24	; 0x800426 <jumpVelocity+0x7f499e>
     c54:	80 91 27 38 	lds	r24, 0x3827	; 0x803827 <scrollDirection>
     c58:	88 23       	and	r24, r24
     c5a:	09 f4       	brne	.+2      	; 0xc5e <drawTiles+0x2c>
     c5c:	85 c0       	rjmp	.+266    	; 0xd68 <drawTiles+0x136>
     c5e:	80 90 25 38 	lds	r8, 0x3825	; 0x803825 <winYfine>
     c62:	58 e0       	ldi	r21, 0x08	; 8
     c64:	58 19       	sub	r21, r8
     c66:	90 91 26 38 	lds	r25, 0x3826	; 0x803826 <winY>
     c6a:	92 95       	swap	r25
     c6c:	90 7f       	andi	r25, 0xF0	; 240
     c6e:	2f e4       	ldi	r18, 0x4F	; 79
     c70:	e2 2e       	mov	r14, r18
     c72:	28 e3       	ldi	r18, 0x38	; 56
     c74:	f2 2e       	mov	r15, r18
     c76:	30 e8       	ldi	r19, 0x80	; 128
     c78:	73 2e       	mov	r7, r19
     c7a:	79 0e       	add	r7, r25
     c7c:	a1 2c       	mov	r10, r1
     c7e:	b1 2c       	mov	r11, r1
     c80:	d7 01       	movw	r26, r14
     c82:	4d 91       	ld	r20, X+
     c84:	7d 01       	movw	r14, r26
     c86:	db 01       	movw	r26, r22
     c88:	a9 0f       	add	r26, r25
     c8a:	b1 1d       	adc	r27, r1
     c8c:	8c 91       	ld	r24, X
     c8e:	f4 2f       	mov	r31, r20
     c90:	e8 e0       	ldi	r30, 0x08	; 8
     c92:	8e 9f       	mul	r24, r30
     c94:	f0 0d       	add	r31, r0
     c96:	11 24       	eor	r1, r1
     c98:	8f 2f       	mov	r24, r31
     c9a:	24 2f       	mov	r18, r20
     c9c:	30 e0       	ldi	r19, 0x00	; 0
     c9e:	90 3f       	cpi	r25, 0xF0	; 240
     ca0:	41 f4       	brne	.+16     	; 0xcb2 <drawTiles+0x80>
     ca2:	fb 01       	movw	r30, r22
     ca4:	10 81       	ld	r17, Z
     ca6:	f8 e0       	ldi	r31, 0x08	; 8
     ca8:	1f 9f       	mul	r17, r31
     caa:	20 0d       	add	r18, r0
     cac:	31 1d       	adc	r19, r1
     cae:	11 24       	eor	r1, r1
     cb0:	08 c0       	rjmp	.+16     	; 0xcc2 <drawTiles+0x90>
     cb2:	50 96       	adiw	r26, 0x10	; 16
     cb4:	1c 91       	ld	r17, X
     cb6:	50 97       	sbiw	r26, 0x10	; 16
     cb8:	e8 e0       	ldi	r30, 0x08	; 8
     cba:	1e 9f       	mul	r17, r30
     cbc:	20 0d       	add	r18, r0
     cbe:	31 1d       	adc	r19, r1
     cc0:	11 24       	eor	r1, r1
     cc2:	85 01       	movw	r16, r10
     cc4:	01 5a       	subi	r16, 0xA1	; 161
     cc6:	17 4c       	sbci	r17, 0xC7	; 199
     cc8:	91 2c       	mov	r9, r1
     cca:	6d 01       	movw	r12, r26
     ccc:	f0 e1       	ldi	r31, 0x10	; 16
     cce:	cf 0e       	add	r12, r31
     cd0:	d1 1c       	adc	r13, r1
     cd2:	f8 01       	movw	r30, r16
     cd4:	ef 55       	subi	r30, 0x5F	; 95
     cd6:	f8 43       	sbci	r31, 0x38	; 56
     cd8:	5f 01       	movw	r10, r30
     cda:	f0 e8       	ldi	r31, 0x80	; 128
     cdc:	9f 16       	cp	r9, r31
     cde:	81 f1       	breq	.+96     	; 0xd40 <drawTiles+0x10e>
     ce0:	fe 01       	movw	r30, r28
     ce2:	e8 0f       	add	r30, r24
     ce4:	f1 1d       	adc	r31, r1
     ce6:	a4 90       	lpm	r10, Z
     ce8:	fe 01       	movw	r30, r28
     cea:	e2 0f       	add	r30, r18
     cec:	f3 1f       	adc	r31, r19
     cee:	e4 91       	lpm	r30, Z
     cf0:	b1 2c       	mov	r11, r1
     cf2:	08 2c       	mov	r0, r8
     cf4:	02 c0       	rjmp	.+4      	; 0xcfa <drawTiles+0xc8>
     cf6:	b5 94       	asr	r11
     cf8:	a7 94       	ror	r10
     cfa:	0a 94       	dec	r0
     cfc:	e2 f7       	brpl	.-8      	; 0xcf6 <drawTiles+0xc4>
     cfe:	05 2e       	mov	r0, r21
     d00:	01 c0       	rjmp	.+2      	; 0xd04 <drawTiles+0xd2>
     d02:	ee 0f       	add	r30, r30
     d04:	0a 94       	dec	r0
     d06:	ea f7       	brpl	.-6      	; 0xd02 <drawTiles+0xd0>
     d08:	ae 2a       	or	r10, r30
     d0a:	f8 01       	movw	r30, r16
     d0c:	a1 92       	st	Z+, r10
     d0e:	8f 01       	movw	r16, r30
     d10:	4f 5f       	subi	r20, 0xFF	; 255
     d12:	48 30       	cpi	r20, 0x08	; 8
     d14:	21 f0       	breq	.+8      	; 0xd1e <drawTiles+0xec>
     d16:	8f 5f       	subi	r24, 0xFF	; 255
     d18:	2f 5f       	subi	r18, 0xFF	; 255
     d1a:	3f 4f       	sbci	r19, 0xFF	; 255
     d1c:	0f c0       	rjmp	.+30     	; 0xd3c <drawTiles+0x10a>
     d1e:	8c 91       	ld	r24, X
     d20:	88 0f       	add	r24, r24
     d22:	88 0f       	add	r24, r24
     d24:	88 0f       	add	r24, r24
     d26:	90 3f       	cpi	r25, 0xF0	; 240
     d28:	11 f4       	brne	.+4      	; 0xd2e <drawTiles+0xfc>
     d2a:	fb 01       	movw	r30, r22
     d2c:	01 c0       	rjmp	.+2      	; 0xd30 <drawTiles+0xfe>
     d2e:	f6 01       	movw	r30, r12
     d30:	20 81       	ld	r18, Z
     d32:	f8 e0       	ldi	r31, 0x08	; 8
     d34:	2f 9f       	mul	r18, r31
     d36:	90 01       	movw	r18, r0
     d38:	11 24       	eor	r1, r1
     d3a:	40 e0       	ldi	r20, 0x00	; 0
     d3c:	93 94       	inc	r9
     d3e:	c9 cf       	rjmp	.-110    	; 0xcd2 <drawTiles+0xa0>
     d40:	90 5f       	subi	r25, 0xF0	; 240
     d42:	97 11       	cpse	r25, r7
     d44:	9d cf       	rjmp	.-198    	; 0xc80 <drawTiles+0x4e>
     d46:	81 e0       	ldi	r24, 0x01	; 1
     d48:	80 93 25 04 	sts	0x0425, r24	; 0x800425 <jumpVelocity+0x7f499d>
     d4c:	df 91       	pop	r29
     d4e:	cf 91       	pop	r28
     d50:	1f 91       	pop	r17
     d52:	0f 91       	pop	r16
     d54:	ff 90       	pop	r15
     d56:	ef 90       	pop	r14
     d58:	df 90       	pop	r13
     d5a:	cf 90       	pop	r12
     d5c:	bf 90       	pop	r11
     d5e:	af 90       	pop	r10
     d60:	9f 90       	pop	r9
     d62:	8f 90       	pop	r8
     d64:	7f 90       	pop	r7
     d66:	08 95       	ret
     d68:	af e4       	ldi	r26, 0x4F	; 79
     d6a:	b8 e3       	ldi	r27, 0x38	; 56
     d6c:	07 e5       	ldi	r16, 0x57	; 87
     d6e:	18 e3       	ldi	r17, 0x38	; 56
     d70:	87 e5       	ldi	r24, 0x57	; 87
     d72:	c8 2e       	mov	r12, r24
     d74:	88 e3       	ldi	r24, 0x38	; 56
     d76:	d8 2e       	mov	r13, r24
     d78:	b1 2c       	mov	r11, r1
     d7a:	81 2c       	mov	r8, r1
     d7c:	91 2c       	mov	r9, r1
     d7e:	8d 91       	ld	r24, X+
     d80:	f8 01       	movw	r30, r16
     d82:	91 91       	ld	r25, Z+
     d84:	8f 01       	movw	r16, r30
     d86:	7b 01       	movw	r14, r22
     d88:	eb 0c       	add	r14, r11
     d8a:	f1 1c       	adc	r15, r1
     d8c:	97 01       	movw	r18, r14
     d8e:	29 0f       	add	r18, r25
     d90:	31 1d       	adc	r19, r1
     d92:	f9 01       	movw	r30, r18
     d94:	40 81       	ld	r20, Z
     d96:	28 2f       	mov	r18, r24
     d98:	30 e0       	ldi	r19, 0x00	; 0
     d9a:	f8 e0       	ldi	r31, 0x08	; 8
     d9c:	4f 9f       	mul	r20, r31
     d9e:	20 0d       	add	r18, r0
     da0:	31 1d       	adc	r19, r1
     da2:	11 24       	eor	r1, r1
     da4:	a4 01       	movw	r20, r8
     da6:	41 5a       	subi	r20, 0xA1	; 161
     da8:	57 4c       	sbci	r21, 0xC7	; 199
     daa:	a1 2c       	mov	r10, r1
     dac:	fa 01       	movw	r30, r20
     dae:	ef 55       	subi	r30, 0x5F	; 95
     db0:	f8 43       	sbci	r31, 0x38	; 56
     db2:	4f 01       	movw	r8, r30
     db4:	f0 e8       	ldi	r31, 0x80	; 128
     db6:	af 16       	cp	r10, r31
     db8:	e1 f0       	breq	.+56     	; 0xdf2 <drawTiles+0x1c0>
     dba:	fe 01       	movw	r30, r28
     dbc:	e2 0f       	add	r30, r18
     dbe:	f3 1f       	adc	r31, r19
     dc0:	94 90       	lpm	r9, Z
     dc2:	fa 01       	movw	r30, r20
     dc4:	91 92       	st	Z+, r9
     dc6:	af 01       	movw	r20, r30
     dc8:	8f 5f       	subi	r24, 0xFF	; 255
     dca:	88 30       	cpi	r24, 0x08	; 8
     dcc:	19 f0       	breq	.+6      	; 0xdd4 <drawTiles+0x1a2>
     dce:	2f 5f       	subi	r18, 0xFF	; 255
     dd0:	3f 4f       	sbci	r19, 0xFF	; 255
     dd2:	0d c0       	rjmp	.+26     	; 0xdee <drawTiles+0x1bc>
     dd4:	9f 5f       	subi	r25, 0xFF	; 255
     dd6:	90 32       	cpi	r25, 0x20	; 32
     dd8:	08 f0       	brcs	.+2      	; 0xddc <drawTiles+0x1aa>
     dda:	90 e0       	ldi	r25, 0x00	; 0
     ddc:	f7 01       	movw	r30, r14
     dde:	e9 0f       	add	r30, r25
     de0:	f1 1d       	adc	r31, r1
     de2:	20 81       	ld	r18, Z
     de4:	f8 e0       	ldi	r31, 0x08	; 8
     de6:	2f 9f       	mul	r18, r31
     de8:	90 01       	movw	r18, r0
     dea:	11 24       	eor	r1, r1
     dec:	80 e0       	ldi	r24, 0x00	; 0
     dee:	a3 94       	inc	r10
     df0:	dd cf       	rjmp	.-70     	; 0xdac <drawTiles+0x17a>
     df2:	20 e2       	ldi	r18, 0x20	; 32
     df4:	b2 0e       	add	r11, r18
     df6:	ca 16       	cp	r12, r26
     df8:	db 06       	cpc	r13, r27
     dfa:	09 f0       	breq	.+2      	; 0xdfe <drawTiles+0x1cc>
     dfc:	c0 cf       	rjmp	.-128    	; 0xd7e <drawTiles+0x14c>
     dfe:	a3 cf       	rjmp	.-186    	; 0xd46 <drawTiles+0x114>

00000e00 <setWindow>:
     e00:	28 2f       	mov	r18, r24
     e02:	26 95       	lsr	r18
     e04:	26 95       	lsr	r18
     e06:	26 95       	lsr	r18
     e08:	96 2f       	mov	r25, r22
     e0a:	96 95       	lsr	r25
     e0c:	96 95       	lsr	r25
     e0e:	96 95       	lsr	r25
     e10:	e7 e5       	ldi	r30, 0x57	; 87
     e12:	f8 e3       	ldi	r31, 0x38	; 56
     e14:	af e4       	ldi	r26, 0x4F	; 79
     e16:	b8 e3       	ldi	r27, 0x38	; 56
     e18:	87 70       	andi	r24, 0x07	; 7
     e1a:	67 70       	andi	r22, 0x07	; 7
     e1c:	21 93       	st	Z+, r18
     e1e:	8d 93       	st	X+, r24
     e20:	38 e3       	ldi	r19, 0x38	; 56
     e22:	ef 35       	cpi	r30, 0x5F	; 95
     e24:	f3 07       	cpc	r31, r19
     e26:	d1 f7       	brne	.-12     	; 0xe1c <setWindow+0x1c>
     e28:	90 93 26 38 	sts	0x3826, r25	; 0x803826 <winY>
     e2c:	60 93 25 38 	sts	0x3825, r22	; 0x803825 <winYfine>
     e30:	08 95       	ret

00000e32 <setRowScroll>:
     e32:	70 e0       	ldi	r23, 0x00	; 0
     e34:	fb 01       	movw	r30, r22
     e36:	e9 5a       	subi	r30, 0xA9	; 169
     e38:	f7 4c       	sbci	r31, 0xC7	; 199
     e3a:	98 2f       	mov	r25, r24
     e3c:	96 95       	lsr	r25
     e3e:	96 95       	lsr	r25
     e40:	96 95       	lsr	r25
     e42:	90 83       	st	Z, r25
     e44:	fb 01       	movw	r30, r22
     e46:	e1 5b       	subi	r30, 0xB1	; 177
     e48:	f7 4c       	sbci	r31, 0xC7	; 199
     e4a:	87 70       	andi	r24, 0x07	; 7
     e4c:	80 83       	st	Z, r24
     e4e:	08 95       	ret

00000e50 <drawSprite>:
     e50:	2f 92       	push	r2
     e52:	3f 92       	push	r3
     e54:	4f 92       	push	r4
     e56:	5f 92       	push	r5
     e58:	6f 92       	push	r6
     e5a:	7f 92       	push	r7
     e5c:	8f 92       	push	r8
     e5e:	9f 92       	push	r9
     e60:	af 92       	push	r10
     e62:	bf 92       	push	r11
     e64:	cf 92       	push	r12
     e66:	df 92       	push	r13
     e68:	ef 92       	push	r14
     e6a:	ff 92       	push	r15
     e6c:	0f 93       	push	r16
     e6e:	1f 93       	push	r17
     e70:	cf 93       	push	r28
     e72:	df 93       	push	r29
     e74:	cd b7       	in	r28, 0x3d	; 61
     e76:	de b7       	in	r29, 0x3e	; 62
     e78:	28 97       	sbiw	r28, 0x08	; 8
     e7a:	cd bf       	out	0x3d, r28	; 61
     e7c:	de bf       	out	0x3e, r29	; 62
     e7e:	fc 01       	movw	r30, r24
     e80:	54 91       	lpm	r21, Z
     e82:	32 96       	adiw	r30, 0x02	; 2
     e84:	e9 83       	std	Y+1, r30	; 0x01
     e86:	fa 83       	std	Y+2, r31	; 0x02
     e88:	31 97       	sbiw	r30, 0x01	; 1
     e8a:	84 91       	lpm	r24, Z
     e8c:	86 95       	lsr	r24
     e8e:	86 95       	lsr	r24
     e90:	86 95       	lsr	r24
     e92:	a8 2e       	mov	r10, r24
     e94:	b1 2c       	mov	r11, r1
     e96:	58 9f       	mul	r21, r24
     e98:	c0 01       	movw	r24, r0
     e9a:	11 24       	eor	r1, r1
     e9c:	f4 2f       	mov	r31, r20
     e9e:	f7 70       	andi	r31, 0x07	; 7
     ea0:	5f 2e       	mov	r5, r31
     ea2:	38 e0       	ldi	r19, 0x08	; 8
     ea4:	43 2e       	mov	r4, r19
     ea6:	4f 1a       	sub	r4, r31
     ea8:	45 95       	asr	r20
     eaa:	45 95       	asr	r20
     eac:	45 95       	asr	r20
     eae:	a6 2f       	mov	r26, r22
     eb0:	06 2e       	mov	r0, r22
     eb2:	00 0c       	add	r0, r0
     eb4:	bb 0b       	sbc	r27, r27
     eb6:	30 e8       	ldi	r19, 0x80	; 128
     eb8:	43 03       	mulsu	r20, r19
     eba:	a0 0d       	add	r26, r0
     ebc:	b1 1d       	adc	r27, r1
     ebe:	11 24       	eor	r1, r1
     ec0:	e2 2f       	mov	r30, r18
     ec2:	f0 e0       	ldi	r31, 0x00	; 0
     ec4:	ee 0f       	add	r30, r30
     ec6:	ff 1f       	adc	r31, r31
     ec8:	e8 9f       	mul	r30, r24
     eca:	90 01       	movw	r18, r0
     ecc:	e9 9f       	mul	r30, r25
     ece:	30 0d       	add	r19, r0
     ed0:	f8 9f       	mul	r31, r24
     ed2:	30 0d       	add	r19, r0
     ed4:	11 24       	eor	r1, r1
     ed6:	e9 80       	ldd	r14, Y+1	; 0x01
     ed8:	fa 80       	ldd	r15, Y+2	; 0x02
     eda:	2e 0d       	add	r18, r14
     edc:	3f 1d       	adc	r19, r15
     ede:	45 2f       	mov	r20, r21
     ee0:	50 e0       	ldi	r21, 0x00	; 0
     ee2:	0f 3f       	cpi	r16, 0xFF	; 255
     ee4:	21 f4       	brne	.+8      	; 0xeee <drawSprite+0x9e>
     ee6:	fa 01       	movw	r30, r20
     ee8:	31 97       	sbiw	r30, 0x01	; 1
     eea:	2e 0f       	add	r18, r30
     eec:	3f 1f       	adc	r19, r31
     eee:	71 e0       	ldi	r23, 0x01	; 1
     ef0:	51 10       	cpse	r5, r1
     ef2:	01 c0       	rjmp	.+2      	; 0xef6 <drawSprite+0xa6>
     ef4:	70 e0       	ldi	r23, 0x00	; 0
     ef6:	7a 01       	movw	r14, r20
     ef8:	ee 0c       	add	r14, r14
     efa:	ff 1c       	adc	r15, r15
     efc:	e9 82       	std	Y+1, r14	; 0x01
     efe:	fa 82       	std	Y+2, r15	; 0x02
     f00:	1f 82       	std	Y+7, r1	; 0x07
     f02:	18 86       	std	Y+8, r1	; 0x08
     f04:	75 01       	movw	r14, r10
     f06:	e7 0e       	add	r14, r23
     f08:	f1 1c       	adc	r15, r1
     f0a:	ed 82       	std	Y+5, r14	; 0x05
     f0c:	fe 82       	std	Y+6, r15	; 0x06
     f0e:	3c 01       	movw	r6, r24
     f10:	64 1a       	sub	r6, r20
     f12:	75 0a       	sbc	r7, r21
     f14:	80 2e       	mov	r8, r16
     f16:	00 2e       	mov	r0, r16
     f18:	00 0c       	add	r0, r0
     f1a:	99 08       	sbc	r9, r9
     f1c:	ef 80       	ldd	r14, Y+7	; 0x07
     f1e:	f8 84       	ldd	r15, Y+8	; 0x08
     f20:	ed 81       	ldd	r30, Y+5	; 0x05
     f22:	fe 81       	ldd	r31, Y+6	; 0x06
     f24:	ee 16       	cp	r14, r30
     f26:	ff 06       	cpc	r15, r31
     f28:	0c f0       	brlt	.+2      	; 0xf2c <drawSprite+0xdc>
     f2a:	77 c0       	rjmp	.+238    	; 0x101a <drawSprite+0x1ca>
     f2c:	fd 01       	movw	r30, r26
     f2e:	e1 5a       	subi	r30, 0xA1	; 161
     f30:	f7 4c       	sbci	r31, 0xC7	; 199
     f32:	6f 01       	movw	r12, r30
     f34:	7d 01       	movw	r14, r26
     f36:	36 2e       	mov	r3, r22
     f38:	fa 01       	movw	r30, r20
     f3a:	ea 0f       	add	r30, r26
     f3c:	fb 1f       	adc	r31, r27
     f3e:	eb 83       	std	Y+3, r30	; 0x03
     f40:	fc 83       	std	Y+4, r31	; 0x04
     f42:	eb 81       	ldd	r30, Y+3	; 0x03
     f44:	fc 81       	ldd	r31, Y+4	; 0x04
     f46:	ee 16       	cp	r14, r30
     f48:	ff 06       	cpc	r15, r31
     f4a:	0c f0       	brlt	.+2      	; 0xf4e <drawSprite+0xfe>
     f4c:	58 c0       	rjmp	.+176    	; 0xffe <drawSprite+0x1ae>
     f4e:	f7 01       	movw	r30, r14
     f50:	ee 27       	eor	r30, r30
     f52:	fc 7f       	andi	r31, 0xFC	; 252
     f54:	ef 2b       	or	r30, r31
     f56:	09 f0       	breq	.+2      	; 0xf5a <drawSprite+0x10a>
     f58:	48 c0       	rjmp	.+144    	; 0xfea <drawSprite+0x19a>
     f5a:	37 fc       	sbrc	r3, 7
     f5c:	46 c0       	rjmp	.+140    	; 0xfea <drawSprite+0x19a>
     f5e:	55 20       	and	r5, r5
     f60:	09 f4       	brne	.+2      	; 0xf64 <drawSprite+0x114>
     f62:	38 c0       	rjmp	.+112    	; 0xfd4 <drawSprite+0x184>
     f64:	ef 81       	ldd	r30, Y+7	; 0x07
     f66:	f8 85       	ldd	r31, Y+8	; 0x08
     f68:	ef 2b       	or	r30, r31
     f6a:	c9 f0       	breq	.+50     	; 0xf9e <drawSprite+0x14e>
     f6c:	f9 01       	movw	r30, r18
     f6e:	e4 1b       	sub	r30, r20
     f70:	f5 0b       	sbc	r31, r21
     f72:	e4 91       	lpm	r30, Z
     f74:	f0 e0       	ldi	r31, 0x00	; 0
     f76:	04 2c       	mov	r0, r4
     f78:	02 c0       	rjmp	.+4      	; 0xf7e <drawSprite+0x12e>
     f7a:	f5 95       	asr	r31
     f7c:	e7 95       	ror	r30
     f7e:	0a 94       	dec	r0
     f80:	e2 f7       	brpl	.-8      	; 0xf7a <drawSprite+0x12a>
     f82:	1e 2f       	mov	r17, r30
     f84:	f9 01       	movw	r30, r18
     f86:	e6 0d       	add	r30, r6
     f88:	f7 1d       	adc	r31, r7
     f8a:	e4 91       	lpm	r30, Z
     f8c:	f0 e0       	ldi	r31, 0x00	; 0
     f8e:	04 2c       	mov	r0, r4
     f90:	02 c0       	rjmp	.+4      	; 0xf96 <drawSprite+0x146>
     f92:	f5 95       	asr	r31
     f94:	e7 95       	ror	r30
     f96:	0a 94       	dec	r0
     f98:	e2 f7       	brpl	.-8      	; 0xf92 <drawSprite+0x142>
     f9a:	7e 2f       	mov	r23, r30
     f9c:	02 c0       	rjmp	.+4      	; 0xfa2 <drawSprite+0x152>
     f9e:	70 e0       	ldi	r23, 0x00	; 0
     fa0:	10 e0       	ldi	r17, 0x00	; 0
     fa2:	ef 81       	ldd	r30, Y+7	; 0x07
     fa4:	f8 85       	ldd	r31, Y+8	; 0x08
     fa6:	ea 15       	cp	r30, r10
     fa8:	fb 05       	cpc	r31, r11
     faa:	cc f4       	brge	.+50     	; 0xfde <drawSprite+0x18e>
     fac:	f9 01       	movw	r30, r18
     fae:	24 90       	lpm	r2, Z
     fb0:	e2 2d       	mov	r30, r2
     fb2:	05 2c       	mov	r0, r5
     fb4:	01 c0       	rjmp	.+2      	; 0xfb8 <drawSprite+0x168>
     fb6:	ee 0f       	add	r30, r30
     fb8:	0a 94       	dec	r0
     fba:	ea f7       	brpl	.-6      	; 0xfb6 <drawSprite+0x166>
     fbc:	1e 2b       	or	r17, r30
     fbe:	f9 01       	movw	r30, r18
     fc0:	e8 0f       	add	r30, r24
     fc2:	f9 1f       	adc	r31, r25
     fc4:	e4 91       	lpm	r30, Z
     fc6:	05 2c       	mov	r0, r5
     fc8:	01 c0       	rjmp	.+2      	; 0xfcc <drawSprite+0x17c>
     fca:	ee 0f       	add	r30, r30
     fcc:	0a 94       	dec	r0
     fce:	ea f7       	brpl	.-6      	; 0xfca <drawSprite+0x17a>
     fd0:	7e 2b       	or	r23, r30
     fd2:	05 c0       	rjmp	.+10     	; 0xfde <drawSprite+0x18e>
     fd4:	f9 01       	movw	r30, r18
     fd6:	14 91       	lpm	r17, Z
     fd8:	e8 0f       	add	r30, r24
     fda:	f9 1f       	adc	r31, r25
     fdc:	74 91       	lpm	r23, Z
     fde:	10 95       	com	r17
     fe0:	f6 01       	movw	r30, r12
     fe2:	20 80       	ld	r2, Z
     fe4:	12 21       	and	r17, r2
     fe6:	71 2b       	or	r23, r17
     fe8:	70 83       	st	Z, r23
     fea:	28 0d       	add	r18, r8
     fec:	39 1d       	adc	r19, r9
     fee:	33 94       	inc	r3
     ff0:	ff ef       	ldi	r31, 0xFF	; 255
     ff2:	ef 1a       	sub	r14, r31
     ff4:	ff 0a       	sbc	r15, r31
     ff6:	7f ef       	ldi	r23, 0xFF	; 255
     ff8:	c7 1a       	sub	r12, r23
     ffa:	d7 0a       	sbc	r13, r23
     ffc:	a2 cf       	rjmp	.-188    	; 0xf42 <drawSprite+0xf2>
     ffe:	a0 58       	subi	r26, 0x80	; 128
    1000:	bf 4f       	sbci	r27, 0xFF	; 255
    1002:	0f 3f       	cpi	r16, 0xFF	; 255
    1004:	21 f4       	brne	.+8      	; 0x100e <drawSprite+0x1be>
    1006:	e9 80       	ldd	r14, Y+1	; 0x01
    1008:	fa 80       	ldd	r15, Y+2	; 0x02
    100a:	2e 0d       	add	r18, r14
    100c:	3f 1d       	adc	r19, r15
    100e:	ef 81       	ldd	r30, Y+7	; 0x07
    1010:	f8 85       	ldd	r31, Y+8	; 0x08
    1012:	31 96       	adiw	r30, 0x01	; 1
    1014:	ef 83       	std	Y+7, r30	; 0x07
    1016:	f8 87       	std	Y+8, r31	; 0x08
    1018:	81 cf       	rjmp	.-254    	; 0xf1c <drawSprite+0xcc>
    101a:	28 96       	adiw	r28, 0x08	; 8
    101c:	cd bf       	out	0x3d, r28	; 61
    101e:	de bf       	out	0x3e, r29	; 62
    1020:	df 91       	pop	r29
    1022:	cf 91       	pop	r28
    1024:	1f 91       	pop	r17
    1026:	0f 91       	pop	r16
    1028:	ff 90       	pop	r15
    102a:	ef 90       	pop	r14
    102c:	df 90       	pop	r13
    102e:	cf 90       	pop	r12
    1030:	bf 90       	pop	r11
    1032:	af 90       	pop	r10
    1034:	9f 90       	pop	r9
    1036:	8f 90       	pop	r8
    1038:	7f 90       	pop	r7
    103a:	6f 90       	pop	r6
    103c:	5f 90       	pop	r5
    103e:	4f 90       	pop	r4
    1040:	3f 90       	pop	r3
    1042:	2f 90       	pop	r2
    1044:	08 95       	ret

00001046 <setScrollDirection>:
    1046:	80 93 27 38 	sts	0x3827, r24	; 0x803827 <scrollDirection>
    104a:	08 95       	ret

0000104c <sendSPI>:
    104c:	80 93 24 08 	sts	0x0824, r24	; 0x800824 <jumpVelocity+0x7f4d9c>
    1050:	80 91 23 08 	lds	r24, 0x0823	; 0x800823 <jumpVelocity+0x7f4d9b>
    1054:	87 ff       	sbrs	r24, 7
    1056:	fc cf       	rjmp	.-8      	; 0x1050 <sendSPI+0x4>
    1058:	08 95       	ret

0000105a <writecommand>:
    105a:	cf 93       	push	r28
    105c:	df 93       	push	r29
    105e:	e6 e2       	ldi	r30, 0x26	; 38
    1060:	f4 e0       	ldi	r31, 0x04	; 4
    1062:	c2 e0       	ldi	r28, 0x02	; 2
    1064:	c0 83       	st	Z, r28
    1066:	d1 e0       	ldi	r29, 0x01	; 1
    1068:	d0 83       	st	Z, r29
    106a:	0e 94 26 08 	call	0x104c	; 0x104c <sendSPI>
    106e:	e5 e2       	ldi	r30, 0x25	; 37
    1070:	f4 e0       	ldi	r31, 0x04	; 4
    1072:	d0 83       	st	Z, r29
    1074:	c0 83       	st	Z, r28
    1076:	df 91       	pop	r29
    1078:	cf 91       	pop	r28
    107a:	08 95       	ret

0000107c <setRotate>:
    107c:	8f 3f       	cpi	r24, 0xFF	; 255
    107e:	29 f4       	brne	.+10     	; 0x108a <setRotate+0xe>
    1080:	81 e0       	ldi	r24, 0x01	; 1
    1082:	90 91 1e 38 	lds	r25, 0x381E	; 0x80381e <__data_end>
    1086:	91 11       	cpse	r25, r1
    1088:	80 e0       	ldi	r24, 0x00	; 0
    108a:	80 93 1e 38 	sts	0x381E, r24	; 0x80381e <__data_end>
    108e:	80 91 1e 38 	lds	r24, 0x381E	; 0x80381e <__data_end>
    1092:	88 23       	and	r24, r24
    1094:	29 f0       	breq	.+10     	; 0x10a0 <setRotate+0x24>
    1096:	80 ea       	ldi	r24, 0xA0	; 160
    1098:	0e 94 2d 08 	call	0x105a	; 0x105a <writecommand>
    109c:	80 ec       	ldi	r24, 0xC0	; 192
    109e:	04 c0       	rjmp	.+8      	; 0x10a8 <setRotate+0x2c>
    10a0:	81 ea       	ldi	r24, 0xA1	; 161
    10a2:	0e 94 2d 08 	call	0x105a	; 0x105a <writecommand>
    10a6:	88 ec       	ldi	r24, 0xC8	; 200
    10a8:	0e 94 2d 08 	call	0x105a	; 0x105a <writecommand>
    10ac:	80 91 1e 38 	lds	r24, 0x381E	; 0x80381e <__data_end>
    10b0:	90 e0       	ldi	r25, 0x00	; 0
    10b2:	08 95       	ret

000010b4 <displayInit>:
    10b4:	81 e0       	ldi	r24, 0x01	; 1
    10b6:	80 93 26 04 	sts	0x0426, r24	; 0x800426 <jumpVelocity+0x7f499e>
    10ba:	90 e1       	ldi	r25, 0x10	; 16
    10bc:	90 93 06 04 	sts	0x0406, r25	; 0x800406 <jumpVelocity+0x7f497e>
    10c0:	90 93 05 04 	sts	0x0405, r25	; 0x800405 <jumpVelocity+0x7f497d>
    10c4:	80 93 25 04 	sts	0x0425, r24	; 0x800425 <jumpVelocity+0x7f499d>
    10c8:	8e ea       	ldi	r24, 0xAE	; 174
    10ca:	0e 94 2d 08 	call	0x105a	; 0x105a <writecommand>
    10ce:	85 ed       	ldi	r24, 0xD5	; 213
    10d0:	0e 94 2d 08 	call	0x105a	; 0x105a <writecommand>
    10d4:	80 e8       	ldi	r24, 0x80	; 128
    10d6:	0e 94 2d 08 	call	0x105a	; 0x105a <writecommand>
    10da:	88 ea       	ldi	r24, 0xA8	; 168
    10dc:	0e 94 2d 08 	call	0x105a	; 0x105a <writecommand>
    10e0:	8f e3       	ldi	r24, 0x3F	; 63
    10e2:	0e 94 2d 08 	call	0x105a	; 0x105a <writecommand>
    10e6:	83 ed       	ldi	r24, 0xD3	; 211
    10e8:	0e 94 2d 08 	call	0x105a	; 0x105a <writecommand>
    10ec:	80 e0       	ldi	r24, 0x00	; 0
    10ee:	0e 94 2d 08 	call	0x105a	; 0x105a <writecommand>
    10f2:	80 e4       	ldi	r24, 0x40	; 64
    10f4:	0e 94 2d 08 	call	0x105a	; 0x105a <writecommand>
    10f8:	8d e8       	ldi	r24, 0x8D	; 141
    10fa:	0e 94 2d 08 	call	0x105a	; 0x105a <writecommand>
    10fe:	84 e1       	ldi	r24, 0x14	; 20
    1100:	0e 94 2d 08 	call	0x105a	; 0x105a <writecommand>
    1104:	80 e2       	ldi	r24, 0x20	; 32
    1106:	0e 94 2d 08 	call	0x105a	; 0x105a <writecommand>
    110a:	80 e0       	ldi	r24, 0x00	; 0
    110c:	0e 94 2d 08 	call	0x105a	; 0x105a <writecommand>
    1110:	80 91 1e 38 	lds	r24, 0x381E	; 0x80381e <__data_end>
    1114:	0e 94 3e 08 	call	0x107c	; 0x107c <setRotate>
    1118:	8a ed       	ldi	r24, 0xDA	; 218
    111a:	0e 94 2d 08 	call	0x105a	; 0x105a <writecommand>
    111e:	82 e1       	ldi	r24, 0x12	; 18
    1120:	0e 94 2d 08 	call	0x105a	; 0x105a <writecommand>
    1124:	81 e8       	ldi	r24, 0x81	; 129
    1126:	0e 94 2d 08 	call	0x105a	; 0x105a <writecommand>
    112a:	8f e8       	ldi	r24, 0x8F	; 143
    112c:	0e 94 2d 08 	call	0x105a	; 0x105a <writecommand>
    1130:	89 ed       	ldi	r24, 0xD9	; 217
    1132:	0e 94 2d 08 	call	0x105a	; 0x105a <writecommand>
    1136:	81 ef       	ldi	r24, 0xF1	; 241
    1138:	0e 94 2d 08 	call	0x105a	; 0x105a <writecommand>
    113c:	8b ed       	ldi	r24, 0xDB	; 219
    113e:	0e 94 2d 08 	call	0x105a	; 0x105a <writecommand>
    1142:	80 e4       	ldi	r24, 0x40	; 64
    1144:	0e 94 2d 08 	call	0x105a	; 0x105a <writecommand>
    1148:	84 ea       	ldi	r24, 0xA4	; 164
    114a:	0e 94 2d 08 	call	0x105a	; 0x105a <writecommand>
    114e:	86 ea       	ldi	r24, 0xA6	; 166
    1150:	0e 94 2d 08 	call	0x105a	; 0x105a <writecommand>
    1154:	8f ea       	ldi	r24, 0xAF	; 175
    1156:	0c 94 2d 08 	jmp	0x105a	; 0x105a <writecommand>

0000115a <displayOnOff>:
    115a:	10 92 21 08 	sts	0x0821, r1	; 0x800821 <jumpVelocity+0x7f4d99>
    115e:	88 23       	and	r24, r24
    1160:	29 f0       	breq	.+10     	; 0x116c <displayOnOff+0x12>
    1162:	0e 94 5a 08 	call	0x10b4	; 0x10b4 <displayInit>
    1166:	10 92 1f 38 	sts	0x381F, r1	; 0x80381f <displaySleep>
    116a:	06 c0       	rjmp	.+12     	; 0x1178 <displayOnOff+0x1e>
    116c:	8e ea       	ldi	r24, 0xAE	; 174
    116e:	0e 94 2d 08 	call	0x105a	; 0x105a <writecommand>
    1172:	81 e0       	ldi	r24, 0x01	; 1
    1174:	80 93 1f 38 	sts	0x381F, r24	; 0x80381f <displaySleep>
    1178:	80 e8       	ldi	r24, 0x80	; 128
    117a:	80 93 21 08 	sts	0x0821, r24	; 0x800821 <jumpVelocity+0x7f4d99>
    117e:	08 95       	ret

00001180 <csHigh>:
    1180:	81 e0       	ldi	r24, 0x01	; 1
    1182:	80 93 25 04 	sts	0x0425, r24	; 0x800425 <jumpVelocity+0x7f499d>
    1186:	08 95       	ret

00001188 <csLow>:
    1188:	81 e0       	ldi	r24, 0x01	; 1
    118a:	80 93 26 04 	sts	0x0426, r24	; 0x800426 <jumpVelocity+0x7f499e>
    118e:	08 95       	ret

00001190 <sendTiles>:
    1190:	0e 94 65 05 	call	0xaca	; 0xaca <screenLoad>
    1194:	6b e6       	ldi	r22, 0x6B	; 107
    1196:	7c e3       	ldi	r23, 0x3C	; 60
    1198:	8c e4       	ldi	r24, 0x4C	; 76
    119a:	95 e0       	ldi	r25, 0x05	; 5
    119c:	0c 94 19 06 	jmp	0xc32	; 0xc32 <drawTiles>

000011a0 <nextRow>:
    11a0:	4f ef       	ldi	r20, 0xFF	; 255
    11a2:	6b e7       	ldi	r22, 0x7B	; 123
    11a4:	7c e3       	ldi	r23, 0x3C	; 60
    11a6:	8c e4       	ldi	r24, 0x4C	; 76
    11a8:	95 e0       	ldi	r25, 0x05	; 5
    11aa:	0e 94 94 05 	call	0xb28	; 0xb28 <rowLoad>
    11ae:	40 e1       	ldi	r20, 0x10	; 16
    11b0:	50 e0       	ldi	r21, 0x00	; 0
    11b2:	60 e2       	ldi	r22, 0x20	; 32
    11b4:	70 e0       	ldi	r23, 0x00	; 0
    11b6:	8b e7       	ldi	r24, 0x7B	; 123
    11b8:	9c e3       	ldi	r25, 0x3C	; 60
    11ba:	0c 94 30 1c 	jmp	0x3860	; 0x3860 <memset>

000011be <setGoal>:
    11be:	10 92 71 3d 	sts	0x3D71, r1	; 0x803d71 <distance>
    11c2:	80 93 5d 3e 	sts	0x3E5D, r24	; 0x803e5d <distanceGoal>
    11c6:	81 e0       	ldi	r24, 0x01	; 1
    11c8:	80 93 59 3e 	sts	0x3E59, r24	; 0x803e59 <byDistance>
    11cc:	08 95       	ret

000011ce <spawnBoss>:
    11ce:	80 91 2c 38 	lds	r24, 0x382C	; 0x80382c <enemyPointer>
    11d2:	9e e0       	ldi	r25, 0x0E	; 14
    11d4:	89 9f       	mul	r24, r25
    11d6:	f0 01       	movw	r30, r0
    11d8:	11 24       	eor	r1, r1
    11da:	e8 58       	subi	r30, 0x88	; 136
    11dc:	f2 4c       	sbci	r31, 0xC2	; 194
    11de:	2c e8       	ldi	r18, 0x8C	; 140
    11e0:	30 e0       	ldi	r19, 0x00	; 0
    11e2:	20 83       	st	Z, r18
    11e4:	31 83       	std	Z+1, r19	; 0x01
    11e6:	20 91 14 38 	lds	r18, 0x3814	; 0x803814 <attackSpeed>
    11ea:	30 e0       	ldi	r19, 0x00	; 0
    11ec:	24 87       	std	Z+12, r18	; 0x0c
    11ee:	35 87       	std	Z+13, r19	; 0x0d
    11f0:	2f e5       	ldi	r18, 0x5F	; 95
    11f2:	30 e0       	ldi	r19, 0x00	; 0
    11f4:	22 83       	std	Z+2, r18	; 0x02
    11f6:	33 83       	std	Z+3, r19	; 0x03
    11f8:	98 ef       	ldi	r25, 0xF8	; 248
    11fa:	94 83       	std	Z+4, r25	; 0x04
    11fc:	91 e0       	ldi	r25, 0x01	; 1
    11fe:	90 87       	std	Z+8, r25	; 0x08
    1200:	17 82       	std	Z+7, r1	; 0x07
    1202:	11 86       	std	Z+9, r1	; 0x09
    1204:	90 ea       	ldi	r25, 0xA0	; 160
    1206:	95 83       	std	Z+5, r25	; 0x05
    1208:	13 86       	std	Z+11, r1	; 0x0b
    120a:	8f 5f       	subi	r24, 0xFF	; 255
    120c:	80 31       	cpi	r24, 0x10	; 16
    120e:	19 f0       	breq	.+6      	; 0x1216 <spawnBoss+0x48>
    1210:	80 93 2c 38 	sts	0x382C, r24	; 0x80382c <enemyPointer>
    1214:	08 95       	ret
    1216:	10 92 2c 38 	sts	0x382C, r1	; 0x80382c <enemyPointer>
    121a:	08 95       	ret

0000121c <findNextSlot>:
    121c:	90 91 2c 38 	lds	r25, 0x382C	; 0x80382c <enemyPointer>
    1220:	80 e1       	ldi	r24, 0x10	; 16
    1222:	3e e0       	ldi	r19, 0x0E	; 14
    1224:	39 9f       	mul	r19, r25
    1226:	f0 01       	movw	r30, r0
    1228:	11 24       	eor	r1, r1
    122a:	e8 58       	subi	r30, 0x88	; 136
    122c:	f2 4c       	sbci	r31, 0xC2	; 194
    122e:	24 81       	ldd	r18, Z+4	; 0x04
    1230:	20 38       	cpi	r18, 0x80	; 128
    1232:	49 f0       	breq	.+18     	; 0x1246 <findNextSlot+0x2a>
    1234:	9f 5f       	subi	r25, 0xFF	; 255
    1236:	90 31       	cpi	r25, 0x10	; 16
    1238:	09 f4       	brne	.+2      	; 0x123c <findNextSlot+0x20>
    123a:	90 e0       	ldi	r25, 0x00	; 0
    123c:	81 50       	subi	r24, 0x01	; 1
    123e:	91 f7       	brne	.-28     	; 0x1224 <findNextSlot+0x8>
    1240:	90 93 2c 38 	sts	0x382C, r25	; 0x80382c <enemyPointer>
    1244:	08 95       	ret
    1246:	90 93 2c 38 	sts	0x382C, r25	; 0x80382c <enemyPointer>
    124a:	11 86       	std	Z+9, r1	; 0x09
    124c:	81 e0       	ldi	r24, 0x01	; 1
    124e:	08 95       	ret

00001250 <spawnObstacle>:
    1250:	0f 93       	push	r16
    1252:	1f 93       	push	r17
    1254:	cf 93       	push	r28
    1256:	8c 01       	movw	r16, r24
    1258:	c6 2f       	mov	r28, r22
    125a:	0e 94 0e 09 	call	0x121c	; 0x121c <findNextSlot>
    125e:	80 91 2c 38 	lds	r24, 0x382C	; 0x80382c <enemyPointer>
    1262:	c2 30       	cpi	r28, 0x02	; 2
    1264:	c9 f0       	breq	.+50     	; 0x1298 <spawnObstacle+0x48>
    1266:	58 f4       	brcc	.+22     	; 0x127e <spawnObstacle+0x2e>
    1268:	c1 30       	cpi	r28, 0x01	; 1
    126a:	69 f5       	brne	.+90     	; 0x12c6 <spawnObstacle+0x76>
    126c:	2e e0       	ldi	r18, 0x0E	; 14
    126e:	82 9f       	mul	r24, r18
    1270:	f0 01       	movw	r30, r0
    1272:	11 24       	eor	r1, r1
    1274:	e8 58       	subi	r30, 0x88	; 136
    1276:	f2 4c       	sbci	r31, 0xC2	; 194
    1278:	22 e9       	ldi	r18, 0x92	; 146
    127a:	34 e0       	ldi	r19, 0x04	; 4
    127c:	15 c0       	rjmp	.+42     	; 0x12a8 <spawnObstacle+0x58>
    127e:	c4 30       	cpi	r28, 0x04	; 4
    1280:	b1 f0       	breq	.+44     	; 0x12ae <spawnObstacle+0x5e>
    1282:	c8 30       	cpi	r28, 0x08	; 8
    1284:	01 f5       	brne	.+64     	; 0x12c6 <spawnObstacle+0x76>
    1286:	9e e0       	ldi	r25, 0x0E	; 14
    1288:	89 9f       	mul	r24, r25
    128a:	f0 01       	movw	r30, r0
    128c:	11 24       	eor	r1, r1
    128e:	e8 58       	subi	r30, 0x88	; 136
    1290:	f2 4c       	sbci	r31, 0xC2	; 194
    1292:	2c ef       	ldi	r18, 0xFC	; 252
    1294:	33 e0       	ldi	r19, 0x03	; 3
    1296:	13 c0       	rjmp	.+38     	; 0x12be <spawnObstacle+0x6e>
    1298:	9e e0       	ldi	r25, 0x0E	; 14
    129a:	89 9f       	mul	r24, r25
    129c:	f0 01       	movw	r30, r0
    129e:	11 24       	eor	r1, r1
    12a0:	e8 58       	subi	r30, 0x88	; 136
    12a2:	f2 4c       	sbci	r31, 0xC2	; 194
    12a4:	20 e5       	ldi	r18, 0x50	; 80
    12a6:	34 e0       	ldi	r19, 0x04	; 4
    12a8:	20 83       	st	Z, r18
    12aa:	31 83       	std	Z+1, r19	; 0x01
    12ac:	0c c0       	rjmp	.+24     	; 0x12c6 <spawnObstacle+0x76>
    12ae:	2e e0       	ldi	r18, 0x0E	; 14
    12b0:	82 9f       	mul	r24, r18
    12b2:	f0 01       	movw	r30, r0
    12b4:	11 24       	eor	r1, r1
    12b6:	e8 58       	subi	r30, 0x88	; 136
    12b8:	f2 4c       	sbci	r31, 0xC2	; 194
    12ba:	2e e2       	ldi	r18, 0x2E	; 46
    12bc:	34 e0       	ldi	r19, 0x04	; 4
    12be:	20 83       	st	Z, r18
    12c0:	31 83       	std	Z+1, r19	; 0x01
    12c2:	98 e3       	ldi	r25, 0x38	; 56
    12c4:	01 c0       	rjmp	.+2      	; 0x12c8 <spawnObstacle+0x78>
    12c6:	90 e3       	ldi	r25, 0x30	; 48
    12c8:	2e e0       	ldi	r18, 0x0E	; 14
    12ca:	82 9f       	mul	r24, r18
    12cc:	f0 01       	movw	r30, r0
    12ce:	11 24       	eor	r1, r1
    12d0:	e8 58       	subi	r30, 0x88	; 136
    12d2:	f2 4c       	sbci	r31, 0xC2	; 194
    12d4:	02 83       	std	Z+2, r16	; 0x02
    12d6:	13 83       	std	Z+3, r17	; 0x03
    12d8:	94 83       	std	Z+4, r25	; 0x04
    12da:	c5 83       	std	Z+5, r28	; 0x05
    12dc:	91 e0       	ldi	r25, 0x01	; 1
    12de:	93 87       	std	Z+11, r25	; 0x0b
    12e0:	8f 5f       	subi	r24, 0xFF	; 255
    12e2:	80 31       	cpi	r24, 0x10	; 16
    12e4:	19 f0       	breq	.+6      	; 0x12ec <spawnObstacle+0x9c>
    12e6:	80 93 2c 38 	sts	0x382C, r24	; 0x80382c <enemyPointer>
    12ea:	02 c0       	rjmp	.+4      	; 0x12f0 <spawnObstacle+0xa0>
    12ec:	10 92 2c 38 	sts	0x382C, r1	; 0x80382c <enemyPointer>
    12f0:	c0 93 58 3e 	sts	0x3E58, r28	; 0x803e58 <lastObstacleSpawned>
    12f4:	cf 91       	pop	r28
    12f6:	1f 91       	pop	r17
    12f8:	0f 91       	pop	r16
    12fa:	08 95       	ret

000012fc <spawnShot>:
    12fc:	1f 93       	push	r17
    12fe:	cf 93       	push	r28
    1300:	df 93       	push	r29
    1302:	d8 2f       	mov	r29, r24
    1304:	16 2f       	mov	r17, r22
    1306:	c4 2f       	mov	r28, r20
    1308:	0e 94 0e 09 	call	0x121c	; 0x121c <findNextSlot>
    130c:	90 91 2c 38 	lds	r25, 0x382C	; 0x80382c <enemyPointer>
    1310:	c0 38       	cpi	r28, 0x80	; 128
    1312:	59 f0       	breq	.+22     	; 0x132a <spawnShot+0x2e>
    1314:	c0 39       	cpi	r28, 0x90	; 144
    1316:	99 f4       	brne	.+38     	; 0x133e <spawnShot+0x42>
    1318:	8e e0       	ldi	r24, 0x0E	; 14
    131a:	98 9f       	mul	r25, r24
    131c:	f0 01       	movw	r30, r0
    131e:	11 24       	eor	r1, r1
    1320:	e8 58       	subi	r30, 0x88	; 136
    1322:	f2 4c       	sbci	r31, 0xC2	; 194
    1324:	24 e7       	ldi	r18, 0x74	; 116
    1326:	33 e0       	ldi	r19, 0x03	; 3
    1328:	08 c0       	rjmp	.+16     	; 0x133a <spawnShot+0x3e>
    132a:	8e e0       	ldi	r24, 0x0E	; 14
    132c:	98 9f       	mul	r25, r24
    132e:	f0 01       	movw	r30, r0
    1330:	11 24       	eor	r1, r1
    1332:	e8 58       	subi	r30, 0x88	; 136
    1334:	f2 4c       	sbci	r31, 0xC2	; 194
    1336:	26 e8       	ldi	r18, 0x86	; 134
    1338:	33 e0       	ldi	r19, 0x03	; 3
    133a:	20 83       	st	Z, r18
    133c:	31 83       	std	Z+1, r19	; 0x01
    133e:	8e e0       	ldi	r24, 0x0E	; 14
    1340:	98 9f       	mul	r25, r24
    1342:	f0 01       	movw	r30, r0
    1344:	11 24       	eor	r1, r1
    1346:	e8 58       	subi	r30, 0x88	; 136
    1348:	f2 4c       	sbci	r31, 0xC2	; 194
    134a:	2d 2f       	mov	r18, r29
    134c:	dd 0f       	add	r29, r29
    134e:	33 0b       	sbc	r19, r19
    1350:	22 83       	std	Z+2, r18	; 0x02
    1352:	33 83       	std	Z+3, r19	; 0x03
    1354:	14 83       	std	Z+4, r17	; 0x04
    1356:	c5 83       	std	Z+5, r28	; 0x05
    1358:	13 86       	std	Z+11, r1	; 0x0b
    135a:	9f 5f       	subi	r25, 0xFF	; 255
    135c:	90 31       	cpi	r25, 0x10	; 16
    135e:	19 f0       	breq	.+6      	; 0x1366 <spawnShot+0x6a>
    1360:	90 93 2c 38 	sts	0x382C, r25	; 0x80382c <enemyPointer>
    1364:	02 c0       	rjmp	.+4      	; 0x136a <spawnShot+0x6e>
    1366:	10 92 2c 38 	sts	0x382C, r1	; 0x80382c <enemyPointer>
    136a:	df 91       	pop	r29
    136c:	cf 91       	pop	r28
    136e:	1f 91       	pop	r17
    1370:	08 95       	ret

00001372 <spawnEnemy>:
    1372:	df 92       	push	r13
    1374:	ef 92       	push	r14
    1376:	ff 92       	push	r15
    1378:	0f 93       	push	r16
    137a:	1f 93       	push	r17
    137c:	cf 93       	push	r28
    137e:	df 93       	push	r29
    1380:	8c 01       	movw	r16, r24
    1382:	d6 2e       	mov	r13, r22
    1384:	e4 2e       	mov	r14, r20
    1386:	f2 2e       	mov	r15, r18
    1388:	0e 94 0e 09 	call	0x121c	; 0x121c <findNextSlot>
    138c:	c0 91 2c 38 	lds	r28, 0x382C	; 0x80382c <enemyPointer>
    1390:	80 e2       	ldi	r24, 0x20	; 32
    1392:	f8 16       	cp	r15, r24
    1394:	79 f0       	breq	.+30     	; 0x13b4 <spawnEnemy+0x42>
    1396:	90 e4       	ldi	r25, 0x40	; 64
    1398:	f9 16       	cp	r15, r25
    139a:	b9 f0       	breq	.+46     	; 0x13ca <spawnEnemy+0x58>
    139c:	80 e1       	ldi	r24, 0x10	; 16
    139e:	f8 12       	cpse	r15, r24
    13a0:	22 c0       	rjmp	.+68     	; 0x13e6 <spawnEnemy+0x74>
    13a2:	9e e0       	ldi	r25, 0x0E	; 14
    13a4:	c9 9f       	mul	r28, r25
    13a6:	e0 01       	movw	r28, r0
    13a8:	11 24       	eor	r1, r1
    13aa:	c8 58       	subi	r28, 0x88	; 136
    13ac:	d2 4c       	sbci	r29, 0xC2	; 194
    13ae:	8a ed       	ldi	r24, 0xDA	; 218
    13b0:	93 e0       	ldi	r25, 0x03	; 3
    13b2:	08 c0       	rjmp	.+16     	; 0x13c4 <spawnEnemy+0x52>
    13b4:	8e e0       	ldi	r24, 0x0E	; 14
    13b6:	c8 9f       	mul	r28, r24
    13b8:	e0 01       	movw	r28, r0
    13ba:	11 24       	eor	r1, r1
    13bc:	c8 58       	subi	r28, 0x88	; 136
    13be:	d2 4c       	sbci	r29, 0xC2	; 194
    13c0:	88 e9       	ldi	r24, 0x98	; 152
    13c2:	93 e0       	ldi	r25, 0x03	; 3
    13c4:	88 83       	st	Y, r24
    13c6:	99 83       	std	Y+1, r25	; 0x01
    13c8:	0e c0       	rjmp	.+28     	; 0x13e6 <spawnEnemy+0x74>
    13ca:	9e e0       	ldi	r25, 0x0E	; 14
    13cc:	c9 9f       	mul	r28, r25
    13ce:	e0 01       	movw	r28, r0
    13d0:	11 24       	eor	r1, r1
    13d2:	c8 58       	subi	r28, 0x88	; 136
    13d4:	d2 4c       	sbci	r29, 0xC2	; 194
    13d6:	82 e5       	ldi	r24, 0x52	; 82
    13d8:	93 e0       	ldi	r25, 0x03	; 3
    13da:	88 83       	st	Y, r24
    13dc:	99 83       	std	Y+1, r25	; 0x01
    13de:	8f ef       	ldi	r24, 0xFF	; 255
    13e0:	0e 94 09 06 	call	0xc12	; 0xc12 <getRandom>
    13e4:	88 87       	std	Y+8, r24	; 0x08
    13e6:	80 91 2c 38 	lds	r24, 0x382C	; 0x80382c <enemyPointer>
    13ea:	9e e0       	ldi	r25, 0x0E	; 14
    13ec:	89 9f       	mul	r24, r25
    13ee:	f0 01       	movw	r30, r0
    13f0:	11 24       	eor	r1, r1
    13f2:	e8 58       	subi	r30, 0x88	; 136
    13f4:	f2 4c       	sbci	r31, 0xC2	; 194
    13f6:	24 e1       	ldi	r18, 0x14	; 20
    13f8:	30 e0       	ldi	r19, 0x00	; 0
    13fa:	24 87       	std	Z+12, r18	; 0x0c
    13fc:	35 87       	std	Z+13, r19	; 0x0d
    13fe:	02 83       	std	Z+2, r16	; 0x02
    1400:	13 83       	std	Z+3, r17	; 0x03
    1402:	d4 82       	std	Z+4, r13	; 0x04
    1404:	e7 82       	std	Z+7, r14	; 0x07
    1406:	f5 82       	std	Z+5, r15	; 0x05
    1408:	13 86       	std	Z+11, r1	; 0x0b
    140a:	8f 5f       	subi	r24, 0xFF	; 255
    140c:	80 31       	cpi	r24, 0x10	; 16
    140e:	19 f0       	breq	.+6      	; 0x1416 <spawnEnemy+0xa4>
    1410:	80 93 2c 38 	sts	0x382C, r24	; 0x80382c <enemyPointer>
    1414:	02 c0       	rjmp	.+4      	; 0x141a <spawnEnemy+0xa8>
    1416:	10 92 2c 38 	sts	0x382C, r1	; 0x80382c <enemyPointer>
    141a:	df 91       	pop	r29
    141c:	cf 91       	pop	r28
    141e:	1f 91       	pop	r17
    1420:	0f 91       	pop	r16
    1422:	ff 90       	pop	r15
    1424:	ef 90       	pop	r14
    1426:	df 90       	pop	r13
    1428:	08 95       	ret

0000142a <spawnExplosion>:
    142a:	0f 93       	push	r16
    142c:	1f 93       	push	r17
    142e:	cf 93       	push	r28
    1430:	df 93       	push	r29
    1432:	8c 01       	movw	r16, r24
    1434:	d6 2f       	mov	r29, r22
    1436:	c4 2f       	mov	r28, r20
    1438:	0e 94 0e 09 	call	0x121c	; 0x121c <findNextSlot>
    143c:	80 91 2c 38 	lds	r24, 0x382C	; 0x80382c <enemyPointer>
    1440:	9e e0       	ldi	r25, 0x0E	; 14
    1442:	89 9f       	mul	r24, r25
    1444:	f0 01       	movw	r30, r0
    1446:	11 24       	eor	r1, r1
    1448:	e8 58       	subi	r30, 0x88	; 136
    144a:	f2 4c       	sbci	r31, 0xC2	; 194
    144c:	2e e0       	ldi	r18, 0x0E	; 14
    144e:	31 e0       	ldi	r19, 0x01	; 1
    1450:	20 83       	st	Z, r18
    1452:	31 83       	std	Z+1, r19	; 0x01
    1454:	2c 2f       	mov	r18, r28
    1456:	30 e0       	ldi	r19, 0x00	; 0
    1458:	24 87       	std	Z+12, r18	; 0x0c
    145a:	35 87       	std	Z+13, r19	; 0x0d
    145c:	02 83       	std	Z+2, r16	; 0x02
    145e:	13 83       	std	Z+3, r17	; 0x03
    1460:	d4 83       	std	Z+4, r29	; 0x04
    1462:	11 86       	std	Z+9, r1	; 0x09
    1464:	91 e0       	ldi	r25, 0x01	; 1
    1466:	97 83       	std	Z+7, r25	; 0x07
    1468:	c0 87       	std	Z+8, r28	; 0x08
    146a:	20 e3       	ldi	r18, 0x30	; 48
    146c:	25 83       	std	Z+5, r18	; 0x05
    146e:	93 87       	std	Z+11, r25	; 0x0b
    1470:	8f 5f       	subi	r24, 0xFF	; 255
    1472:	80 31       	cpi	r24, 0x10	; 16
    1474:	19 f0       	breq	.+6      	; 0x147c <spawnExplosion+0x52>
    1476:	80 93 2c 38 	sts	0x382C, r24	; 0x80382c <enemyPointer>
    147a:	02 c0       	rjmp	.+4      	; 0x1480 <spawnExplosion+0x56>
    147c:	10 92 2c 38 	sts	0x382C, r1	; 0x80382c <enemyPointer>
    1480:	df 91       	pop	r29
    1482:	cf 91       	pop	r28
    1484:	1f 91       	pop	r17
    1486:	0f 91       	pop	r16
    1488:	08 95       	ret

0000148a <shotLogic>:
    148a:	ef 92       	push	r14
    148c:	ff 92       	push	r15
    148e:	0f 93       	push	r16
    1490:	cf 93       	push	r28
    1492:	df 93       	push	r29
    1494:	c3 e6       	ldi	r28, 0x63	; 99
    1496:	dc e3       	ldi	r29, 0x3C	; 60
    1498:	80 e8       	ldi	r24, 0x80	; 128
    149a:	e8 2e       	mov	r14, r24
    149c:	ff 24       	eor	r15, r15
    149e:	fa 94       	dec	r15
    14a0:	4a 81       	ldd	r20, Y+2	; 0x02
    14a2:	5b 81       	ldd	r21, Y+3	; 0x03
    14a4:	40 38       	cpi	r20, 0x80	; 128
    14a6:	2f ef       	ldi	r18, 0xFF	; 255
    14a8:	52 07       	cpc	r21, r18
    14aa:	99 f0       	breq	.+38     	; 0x14d2 <shotLogic+0x48>
    14ac:	01 e0       	ldi	r16, 0x01	; 1
    14ae:	20 e0       	ldi	r18, 0x00	; 0
    14b0:	68 81       	ld	r22, Y
    14b2:	84 eb       	ldi	r24, 0xB4	; 180
    14b4:	94 e0       	ldi	r25, 0x04	; 4
    14b6:	0e 94 28 07 	call	0xe50	; 0xe50 <drawSprite>
    14ba:	8a 81       	ldd	r24, Y+2	; 0x02
    14bc:	9b 81       	ldd	r25, Y+3	; 0x03
    14be:	01 97       	sbiw	r24, 0x01	; 1
    14c0:	88 3f       	cpi	r24, 0xF8	; 248
    14c2:	2f ef       	ldi	r18, 0xFF	; 255
    14c4:	92 07       	cpc	r25, r18
    14c6:	19 f0       	breq	.+6      	; 0x14ce <shotLogic+0x44>
    14c8:	8a 83       	std	Y+2, r24	; 0x02
    14ca:	9b 83       	std	Y+3, r25	; 0x03
    14cc:	02 c0       	rjmp	.+4      	; 0x14d2 <shotLogic+0x48>
    14ce:	ea 82       	std	Y+2, r14	; 0x02
    14d0:	fb 82       	std	Y+3, r15	; 0x03
    14d2:	24 96       	adiw	r28, 0x04	; 4
    14d4:	8c e3       	ldi	r24, 0x3C	; 60
    14d6:	cb 36       	cpi	r28, 0x6B	; 107
    14d8:	d8 07       	cpc	r29, r24
    14da:	11 f7       	brne	.-60     	; 0x14a0 <shotLogic+0x16>
    14dc:	df 91       	pop	r29
    14de:	cf 91       	pop	r28
    14e0:	0f 91       	pop	r16
    14e2:	ff 90       	pop	r15
    14e4:	ef 90       	pop	r14
    14e6:	08 95       	ret

000014e8 <gotoSleep>:
    14e8:	81 e0       	ldi	r24, 0x01	; 1
    14ea:	80 93 4c 38 	sts	0x384C, r24	; 0x80384c <sleepState>
    14ee:	80 e0       	ldi	r24, 0x00	; 0
    14f0:	0e 94 ad 08 	call	0x115a	; 0x115a <displayOnOff>
    14f4:	80 e0       	ldi	r24, 0x00	; 0
    14f6:	0c 94 ff 05 	jmp	0xbfe	; 0xbfe <ledState>

000014fa <getGround>:
    14fa:	81 e0       	ldi	r24, 0x01	; 1
    14fc:	0e 94 09 06 	call	0xc12	; 0xc12 <getRandom>
    1500:	90 91 0c 38 	lds	r25, 0x380C	; 0x80380c <groundSlope>
    1504:	88 23       	and	r24, r24
    1506:	21 f0       	breq	.+8      	; 0x1510 <getGround+0x16>
    1508:	99 23       	and	r25, r25
    150a:	39 f0       	breq	.+14     	; 0x151a <getGround+0x20>
    150c:	91 50       	subi	r25, 0x01	; 1
    150e:	03 c0       	rjmp	.+6      	; 0x1516 <getGround+0x1c>
    1510:	92 30       	cpi	r25, 0x02	; 2
    1512:	18 f4       	brcc	.+6      	; 0x151a <getGround+0x20>
    1514:	9f 5f       	subi	r25, 0xFF	; 255
    1516:	90 93 0c 38 	sts	0x380C, r25	; 0x80380c <groundSlope>
    151a:	80 91 0c 38 	lds	r24, 0x380C	; 0x80380c <groundSlope>
    151e:	08 95       	ret

00001520 <drawCharacterRow>:
    1520:	80 91 13 38 	lds	r24, 0x3813	; 0x803813 <bugX>
    1524:	e2 e1       	ldi	r30, 0x12	; 18
    1526:	fd e3       	ldi	r31, 0x3D	; 61
    1528:	2b e1       	ldi	r18, 0x1B	; 27
    152a:	3d e3       	ldi	r19, 0x3D	; 61
    152c:	df 01       	movw	r26, r30
    152e:	98 2f       	mov	r25, r24
    1530:	9d 93       	st	X+, r25
    1532:	9f 5f       	subi	r25, 0xFF	; 255
    1534:	9b 35       	cpi	r25, 0x5B	; 91
    1536:	08 f0       	brcs	.+2      	; 0x153a <drawCharacterRow+0x1a>
    1538:	91 e4       	ldi	r25, 0x41	; 65
    153a:	2a 17       	cp	r18, r26
    153c:	3b 07       	cpc	r19, r27
    153e:	c1 f7       	brne	.-16     	; 0x1530 <drawCharacterRow+0x10>
    1540:	81 50       	subi	r24, 0x01	; 1
    1542:	81 34       	cpi	r24, 0x41	; 65
    1544:	08 f4       	brcc	.+2      	; 0x1548 <drawCharacterRow+0x28>
    1546:	8a e5       	ldi	r24, 0x5A	; 90
    1548:	82 93       	st	-Z, r24
    154a:	9d e3       	ldi	r25, 0x3D	; 61
    154c:	eb 30       	cpi	r30, 0x0B	; 11
    154e:	f9 07       	cpc	r31, r25
    1550:	b9 f7       	brne	.-18     	; 0x1540 <drawCharacterRow+0x20>
    1552:	08 95       	ret

00001554 <findScorePosition>:
    1554:	cf 92       	push	r12
    1556:	df 92       	push	r13
    1558:	ef 92       	push	r14
    155a:	ff 92       	push	r15
    155c:	8f ef       	ldi	r24, 0xFF	; 255
    155e:	80 93 00 38 	sts	0x3800, r24	; 0x803800 <__DATA_REGION_ORIGIN__>
    1562:	40 91 2e 38 	lds	r20, 0x382E	; 0x80382e <score>
    1566:	50 91 2f 38 	lds	r21, 0x382F	; 0x80382f <score+0x1>
    156a:	60 91 30 38 	lds	r22, 0x3830	; 0x803830 <score+0x2>
    156e:	70 91 31 38 	lds	r23, 0x3831	; 0x803831 <score+0x3>
    1572:	94 ea       	ldi	r25, 0xA4	; 164
    1574:	86 e0       	ldi	r24, 0x06	; 6
    1576:	2f ef       	ldi	r18, 0xFF	; 255
    1578:	e9 2f       	mov	r30, r25
    157a:	f0 e0       	ldi	r31, 0x00	; 0
    157c:	fc 5e       	subi	r31, 0xEC	; 236
    157e:	c0 80       	ld	r12, Z
    1580:	d1 80       	ldd	r13, Z+1	; 0x01
    1582:	e2 80       	ldd	r14, Z+2	; 0x02
    1584:	f3 80       	ldd	r15, Z+3	; 0x03
    1586:	4c 15       	cp	r20, r12
    1588:	5d 05       	cpc	r21, r13
    158a:	6e 05       	cpc	r22, r14
    158c:	7f 05       	cpc	r23, r15
    158e:	18 f4       	brcc	.+6      	; 0x1596 <findScorePosition+0x42>
    1590:	20 93 00 38 	sts	0x3800, r18	; 0x803800 <__DATA_REGION_ORIGIN__>
    1594:	0a c0       	rjmp	.+20     	; 0x15aa <findScorePosition+0x56>
    1596:	3f ef       	ldi	r19, 0xFF	; 255
    1598:	38 0f       	add	r19, r24
    159a:	90 52       	subi	r25, 0x20	; 32
    159c:	28 2f       	mov	r18, r24
    159e:	94 3e       	cpi	r25, 0xE4	; 228
    15a0:	11 f0       	breq	.+4      	; 0x15a6 <findScorePosition+0x52>
    15a2:	83 2f       	mov	r24, r19
    15a4:	e9 cf       	rjmp	.-46     	; 0x1578 <findScorePosition+0x24>
    15a6:	80 93 00 38 	sts	0x3800, r24	; 0x803800 <__DATA_REGION_ORIGIN__>
    15aa:	ff 90       	pop	r15
    15ac:	ef 90       	pop	r14
    15ae:	df 90       	pop	r13
    15b0:	cf 90       	pop	r12
    15b2:	08 95       	ret

000015b4 <killPlayer>:
    15b4:	10 92 38 38 	sts	0x3838, r1	; 0x803838 <playerFrame>
    15b8:	10 92 39 38 	sts	0x3839, r1	; 0x803839 <playerFrame+0x1>
    15bc:	80 e1       	ldi	r24, 0x10	; 16
    15be:	80 93 3c 38 	sts	0x383C, r24	; 0x80383c <playerState>
    15c2:	85 e0       	ldi	r24, 0x05	; 5
    15c4:	90 e0       	ldi	r25, 0x00	; 0
    15c6:	80 93 3a 38 	sts	0x383A, r24	; 0x80383a <playerTimer>
    15ca:	90 93 3b 38 	sts	0x383B, r25	; 0x80383b <playerTimer+0x1>
    15ce:	08 95       	ret

000015d0 <checkHitPlayer>:
    15d0:	cf 93       	push	r28
    15d2:	90 91 5e 3e 	lds	r25, 0x3E5E	; 0x803e5e <xCollide>
    15d6:	99 23       	and	r25, r25
    15d8:	99 f0       	breq	.+38     	; 0x1600 <checkHitPlayer+0x30>
    15da:	90 91 76 3d 	lds	r25, 0x3D76	; 0x803d76 <yCollide>
    15de:	99 23       	and	r25, r25
    15e0:	79 f0       	breq	.+30     	; 0x1600 <checkHitPlayer+0x30>
    15e2:	90 91 3c 38 	lds	r25, 0x383C	; 0x80383c <playerState>
    15e6:	97 70       	andi	r25, 0x07	; 7
    15e8:	59 f0       	breq	.+22     	; 0x1600 <checkHitPlayer+0x30>
    15ea:	c8 2f       	mov	r28, r24
    15ec:	0e 94 da 0a 	call	0x15b4	; 0x15b4 <killPlayer>
    15f0:	8e e0       	ldi	r24, 0x0E	; 14
    15f2:	c8 9f       	mul	r28, r24
    15f4:	f0 01       	movw	r30, r0
    15f6:	11 24       	eor	r1, r1
    15f8:	e8 58       	subi	r30, 0x88	; 136
    15fa:	f2 4c       	sbci	r31, 0xC2	; 194
    15fc:	80 e8       	ldi	r24, 0x80	; 128
    15fe:	84 83       	std	Z+4, r24	; 0x04
    1600:	cf 91       	pop	r28
    1602:	08 95       	ret

00001604 <checkObstacle>:
    1604:	80 91 5e 3e 	lds	r24, 0x3E5E	; 0x803e5e <xCollide>
    1608:	88 23       	and	r24, r24
    160a:	71 f0       	breq	.+28     	; 0x1628 <checkObstacle+0x24>
    160c:	80 91 3c 38 	lds	r24, 0x383C	; 0x80383c <playerState>
    1610:	87 70       	andi	r24, 0x07	; 7
    1612:	51 f0       	breq	.+20     	; 0x1628 <checkObstacle+0x24>
    1614:	80 91 12 38 	lds	r24, 0x3812	; 0x803812 <bugY>
    1618:	68 17       	cp	r22, r24
    161a:	10 f4       	brcc	.+4      	; 0x1620 <checkObstacle+0x1c>
    161c:	0c 94 da 0a 	jmp	0x15b4	; 0x15b4 <killPlayer>
    1620:	40 93 6f 3d 	sts	0x3D6F, r20	; 0x803d6f <jumpScore>
    1624:	50 93 70 3d 	sts	0x3D70, r21	; 0x803d70 <jumpScore+0x1>
    1628:	08 95       	ret

0000162a <clearShots>:
    162a:	e3 e6       	ldi	r30, 0x63	; 99
    162c:	fc e3       	ldi	r31, 0x3C	; 60
    162e:	80 e8       	ldi	r24, 0x80	; 128
    1630:	9f ef       	ldi	r25, 0xFF	; 255
    1632:	82 83       	std	Z+2, r24	; 0x02
    1634:	93 83       	std	Z+3, r25	; 0x03
    1636:	86 83       	std	Z+6, r24	; 0x06
    1638:	97 83       	std	Z+7, r25	; 0x07
    163a:	08 95       	ret

0000163c <clearEnemies>:
    163c:	e8 e7       	ldi	r30, 0x78	; 120
    163e:	fd e3       	ldi	r31, 0x3D	; 61
    1640:	90 e8       	ldi	r25, 0x80	; 128
    1642:	81 e0       	ldi	r24, 0x01	; 1
    1644:	94 83       	std	Z+4, r25	; 0x04
    1646:	86 83       	std	Z+6, r24	; 0x06
    1648:	13 86       	std	Z+11, r1	; 0x0b
    164a:	3e 96       	adiw	r30, 0x0e	; 14
    164c:	2e e3       	ldi	r18, 0x3E	; 62
    164e:	e8 35       	cpi	r30, 0x58	; 88
    1650:	f2 07       	cpc	r31, r18
    1652:	c1 f7       	brne	.-16     	; 0x1644 <clearEnemies+0x8>
    1654:	10 92 2c 38 	sts	0x382C, r1	; 0x80382c <enemyPointer>
    1658:	10 92 58 3e 	sts	0x3E58, r1	; 0x803e58 <lastObstacleSpawned>
    165c:	08 95       	ret

0000165e <phaseStart>:
    165e:	cf 93       	push	r28
    1660:	10 92 61 3c 	sts	0x3C61, r1	; 0x803c61 <skyEnemies>
    1664:	10 92 59 3e 	sts	0x3E59, r1	; 0x803e59 <byDistance>
    1668:	10 92 71 3d 	sts	0x3D71, r1	; 0x803d71 <distance>
    166c:	8a e0       	ldi	r24, 0x0A	; 10
    166e:	80 93 5d 3e 	sts	0x3E5D, r24	; 0x803e5d <distanceGoal>
    1672:	c1 e0       	ldi	r28, 0x01	; 1
    1674:	c0 93 04 38 	sts	0x3804, r28	; 0x803804 <obstacleTimer>
    1678:	0e 94 1e 0b 	call	0x163c	; 0x163c <clearEnemies>
    167c:	10 92 73 3d 	sts	0x3D73, r1	; 0x803d73 <numberSpawned>
    1680:	20 91 74 3d 	lds	r18, 0x3D74	; 0x803d74 <stage>
    1684:	82 2f       	mov	r24, r18
    1686:	86 95       	lsr	r24
    1688:	8d 5f       	subi	r24, 0xFD	; 253
    168a:	80 93 75 3d 	sts	0x3D75, r24	; 0x803d75 <numberOfWaves>
    168e:	92 2f       	mov	r25, r18
    1690:	99 0f       	add	r25, r25
    1692:	c0 93 0b 38 	sts	0x380B, r28	; 0x80380b <speed>
    1696:	80 91 5b 3e 	lds	r24, 0x3E5B	; 0x803e5b <checkPoint>
    169a:	82 30       	cpi	r24, 0x02	; 2
    169c:	09 f4       	brne	.+2      	; 0x16a0 <phaseStart+0x42>
    169e:	4e c0       	rjmp	.+156    	; 0x173c <phaseStart+0xde>
    16a0:	28 f4       	brcc	.+10     	; 0x16ac <phaseStart+0x4e>
    16a2:	88 23       	and	r24, r24
    16a4:	a9 f0       	breq	.+42     	; 0x16d0 <phaseStart+0x72>
    16a6:	81 30       	cpi	r24, 0x01	; 1
    16a8:	59 f1       	breq	.+86     	; 0x1700 <phaseStart+0xa2>
    16aa:	6a c0       	rjmp	.+212    	; 0x1780 <phaseStart+0x122>
    16ac:	84 30       	cpi	r24, 0x04	; 4
    16ae:	09 f4       	brne	.+2      	; 0x16b2 <phaseStart+0x54>
    16b0:	5b c0       	rjmp	.+182    	; 0x1768 <phaseStart+0x10a>
    16b2:	08 f4       	brcc	.+2      	; 0x16b6 <phaseStart+0x58>
    16b4:	53 c0       	rjmp	.+166    	; 0x175c <phaseStart+0xfe>
    16b6:	85 30       	cpi	r24, 0x05	; 5
    16b8:	09 f0       	breq	.+2      	; 0x16bc <phaseStart+0x5e>
    16ba:	62 c0       	rjmp	.+196    	; 0x1780 <phaseStart+0x122>
    16bc:	c0 93 2b 38 	sts	0x382B, r28	; 0x80382b <bossBattle>
    16c0:	84 e3       	ldi	r24, 0x34	; 52
    16c2:	80 93 07 38 	sts	0x3807, r24	; 0x803807 <bossHealth>
    16c6:	10 92 0a 38 	sts	0x380A, r1	; 0x80380a <stagePhase>
    16ca:	0e 94 e7 08 	call	0x11ce	; 0x11ce <spawnBoss>
    16ce:	58 c0       	rjmp	.+176    	; 0x1780 <phaseStart+0x122>
    16d0:	80 e3       	ldi	r24, 0x30	; 48
    16d2:	80 93 0a 38 	sts	0x380A, r24	; 0x80380a <stagePhase>
    16d6:	84 e0       	ldi	r24, 0x04	; 4
    16d8:	0e 94 df 08 	call	0x11be	; 0x11be <setGoal>
    16dc:	80 91 74 3d 	lds	r24, 0x3D74	; 0x803d74 <stage>
    16e0:	82 30       	cpi	r24, 0x02	; 2
    16e2:	08 f4       	brcc	.+2      	; 0x16e6 <phaseStart+0x88>
    16e4:	4d c0       	rjmp	.+154    	; 0x1780 <phaseStart+0x122>
    16e6:	92 e0       	ldi	r25, 0x02	; 2
    16e8:	90 93 0b 38 	sts	0x380B, r25	; 0x80380b <speed>
    16ec:	9a e5       	ldi	r25, 0x5A	; 90
    16ee:	90 93 04 38 	sts	0x3804, r25	; 0x803804 <obstacleTimer>
    16f2:	98 2f       	mov	r25, r24
    16f4:	99 0f       	add	r25, r25
    16f6:	89 0f       	add	r24, r25
    16f8:	8c 5f       	subi	r24, 0xFC	; 252
    16fa:	0e 94 df 08 	call	0x11be	; 0x11be <setGoal>
    16fe:	40 c0       	rjmp	.+128    	; 0x1780 <phaseStart+0x122>
    1700:	21 30       	cpi	r18, 0x01	; 1
    1702:	79 f4       	brne	.+30     	; 0x1722 <phaseStart+0xc4>
    1704:	20 93 0a 38 	sts	0x380A, r18	; 0x80380a <stagePhase>
    1708:	80 e5       	ldi	r24, 0x50	; 80
    170a:	90 e0       	ldi	r25, 0x00	; 0
    170c:	80 93 32 38 	sts	0x3832, r24	; 0x803832 <eventGoal>
    1710:	90 93 33 38 	sts	0x3833, r25	; 0x803833 <eventGoal+0x1>
    1714:	82 e0       	ldi	r24, 0x02	; 2
    1716:	80 93 5f 3e 	sts	0x3E5F, r24	; 0x803e5f <spawnPerWave>
    171a:	83 e0       	ldi	r24, 0x03	; 3
    171c:	80 93 75 3d 	sts	0x3D75, r24	; 0x803d75 <numberOfWaves>
    1720:	2f c0       	rjmp	.+94     	; 0x1780 <phaseStart+0x122>
    1722:	80 93 0a 38 	sts	0x380A, r24	; 0x80380a <stagePhase>
    1726:	28 e2       	ldi	r18, 0x28	; 40
    1728:	30 e0       	ldi	r19, 0x00	; 0
    172a:	a9 01       	movw	r20, r18
    172c:	49 1b       	sub	r20, r25
    172e:	51 09       	sbc	r21, r1
    1730:	40 93 32 38 	sts	0x3832, r20	; 0x803832 <eventGoal>
    1734:	50 93 33 38 	sts	0x3833, r21	; 0x803833 <eventGoal+0x1>
    1738:	84 e0       	ldi	r24, 0x04	; 4
    173a:	0d c0       	rjmp	.+26     	; 0x1756 <phaseStart+0xf8>
    173c:	81 e3       	ldi	r24, 0x31	; 49
    173e:	80 93 0a 38 	sts	0x380A, r24	; 0x80380a <stagePhase>
    1742:	26 e4       	ldi	r18, 0x46	; 70
    1744:	30 e0       	ldi	r19, 0x00	; 0
    1746:	a9 01       	movw	r20, r18
    1748:	49 1b       	sub	r20, r25
    174a:	51 09       	sbc	r21, r1
    174c:	40 93 32 38 	sts	0x3832, r20	; 0x803832 <eventGoal>
    1750:	50 93 33 38 	sts	0x3833, r21	; 0x803833 <eventGoal+0x1>
    1754:	83 e0       	ldi	r24, 0x03	; 3
    1756:	80 93 5f 3e 	sts	0x3E5F, r24	; 0x803e5f <spawnPerWave>
    175a:	12 c0       	rjmp	.+36     	; 0x1780 <phaseStart+0x122>
    175c:	82 e0       	ldi	r24, 0x02	; 2
    175e:	80 93 0a 38 	sts	0x380A, r24	; 0x80380a <stagePhase>
    1762:	22 e3       	ldi	r18, 0x32	; 50
    1764:	30 e0       	ldi	r19, 0x00	; 0
    1766:	ef cf       	rjmp	.-34     	; 0x1746 <phaseStart+0xe8>
    1768:	23 e1       	ldi	r18, 0x13	; 19
    176a:	20 93 0a 38 	sts	0x380A, r18	; 0x80380a <stagePhase>
    176e:	2c e3       	ldi	r18, 0x3C	; 60
    1770:	30 e0       	ldi	r19, 0x00	; 0
    1772:	29 1b       	sub	r18, r25
    1774:	31 09       	sbc	r19, r1
    1776:	20 93 32 38 	sts	0x3832, r18	; 0x803832 <eventGoal>
    177a:	30 93 33 38 	sts	0x3833, r19	; 0x803833 <eventGoal+0x1>
    177e:	eb cf       	rjmp	.-42     	; 0x1756 <phaseStart+0xf8>
    1780:	81 e0       	ldi	r24, 0x01	; 1
    1782:	90 e0       	ldi	r25, 0x00	; 0
    1784:	80 93 34 38 	sts	0x3834, r24	; 0x803834 <eventTimer>
    1788:	90 93 35 38 	sts	0x3835, r25	; 0x803835 <eventTimer+0x1>
    178c:	cf 91       	pop	r28
    178e:	08 95       	ret

00001790 <startNewLife>:
    1790:	cf 93       	push	r28
    1792:	10 92 71 3d 	sts	0x3D71, r1	; 0x803d71 <distance>
    1796:	10 92 3f 38 	sts	0x383F, r1	; 0x80383f <frameCounter>
    179a:	10 92 40 38 	sts	0x3840, r1	; 0x803840 <frameCounter+0x1>
    179e:	87 e0       	ldi	r24, 0x07	; 7
    17a0:	80 93 05 38 	sts	0x3805, r24	; 0x803805 <gameState>
    17a4:	c1 e0       	ldi	r28, 0x01	; 1
    17a6:	c0 93 3c 38 	sts	0x383C, r28	; 0x80383c <playerState>
    17aa:	10 92 36 38 	sts	0x3836, r1	; 0x803836 <stageWin>
    17ae:	84 ef       	ldi	r24, 0xF4	; 244
    17b0:	80 93 0d 38 	sts	0x380D, r24	; 0x80380d <spawnPointer>
    17b4:	80 e1       	ldi	r24, 0x10	; 16
    17b6:	80 93 13 38 	sts	0x3813, r24	; 0x803813 <bugX>
    17ba:	83 e3       	ldi	r24, 0x33	; 51
    17bc:	80 93 12 38 	sts	0x3812, r24	; 0x803812 <bugY>
    17c0:	10 92 3d 38 	sts	0x383D, r1	; 0x80383d <jump>
    17c4:	80 e8       	ldi	r24, 0x80	; 128
    17c6:	80 93 06 38 	sts	0x3806, r24	; 0x803806 <blasterX>
    17ca:	0e 94 15 0b 	call	0x162a	; 0x162a <clearShots>
    17ce:	0e 94 1e 0b 	call	0x163c	; 0x163c <clearEnemies>
    17d2:	10 92 2b 38 	sts	0x382B, r1	; 0x80382b <bossBattle>
    17d6:	10 92 6f 3d 	sts	0x3D6F, r1	; 0x803d6f <jumpScore>
    17da:	10 92 70 3d 	sts	0x3D70, r1	; 0x803d70 <jumpScore+0x1>
    17de:	c0 93 0b 38 	sts	0x380B, r28	; 0x80380b <speed>
    17e2:	cf 91       	pop	r28
    17e4:	08 95       	ret

000017e6 <playerLogic>:
    17e6:	0f 93       	push	r16
    17e8:	cf 93       	push	r28
    17ea:	60 91 13 38 	lds	r22, 0x3813	; 0x803813 <bugX>
    17ee:	80 91 43 38 	lds	r24, 0x3843	; 0x803843 <xWindow>
    17f2:	90 91 44 38 	lds	r25, 0x3844	; 0x803844 <xWindow+0x1>
    17f6:	86 0f       	add	r24, r22
    17f8:	91 1d       	adc	r25, r1
    17fa:	23 e0       	ldi	r18, 0x03	; 3
    17fc:	96 95       	lsr	r25
    17fe:	87 95       	ror	r24
    1800:	2a 95       	dec	r18
    1802:	e1 f7       	brne	.-8      	; 0x17fc <playerLogic+0x16>
    1804:	80 93 41 38 	sts	0x3841, r24	; 0x803841 <xWindowCoarse>
    1808:	90 93 42 38 	sts	0x3842, r25	; 0x803842 <xWindowCoarse+0x1>
    180c:	20 91 3c 38 	lds	r18, 0x383C	; 0x80383c <playerState>
    1810:	22 30       	cpi	r18, 0x02	; 2
    1812:	09 f4       	brne	.+2      	; 0x1816 <playerLogic+0x30>
    1814:	6a c0       	rjmp	.+212    	; 0x18ea <playerLogic+0x104>
    1816:	50 f4       	brcc	.+20     	; 0x182c <playerLogic+0x46>
    1818:	21 30       	cpi	r18, 0x01	; 1
    181a:	09 f0       	breq	.+2      	; 0x181e <playerLogic+0x38>
    181c:	f9 c0       	rjmp	.+498    	; 0x1a10 <playerLogic+0x22a>
    181e:	21 ee       	ldi	r18, 0xE1	; 225
    1820:	28 0f       	add	r18, r24
    1822:	af e0       	ldi	r26, 0x0F	; 15
    1824:	b8 e3       	ldi	r27, 0x38	; 56
    1826:	8c 51       	subi	r24, 0x1C	; 28
    1828:	90 e0       	ldi	r25, 0x00	; 0
    182a:	13 c0       	rjmp	.+38     	; 0x1852 <playerLogic+0x6c>
    182c:	20 31       	cpi	r18, 0x10	; 16
    182e:	09 f4       	brne	.+2      	; 0x1832 <playerLogic+0x4c>
    1830:	8d c0       	rjmp	.+282    	; 0x194c <playerLogic+0x166>
    1832:	20 32       	cpi	r18, 0x20	; 32
    1834:	09 f4       	brne	.+2      	; 0x1838 <playerLogic+0x52>
    1836:	d0 c0       	rjmp	.+416    	; 0x19d8 <playerLogic+0x1f2>
    1838:	eb c0       	rjmp	.+470    	; 0x1a10 <playerLogic+0x22a>
    183a:	30 ee       	ldi	r19, 0xE0	; 224
    183c:	32 0f       	add	r19, r18
    183e:	3c 93       	st	X, r19
    1840:	ed 91       	ld	r30, X+
    1842:	f0 e0       	ldi	r31, 0x00	; 0
    1844:	e5 59       	subi	r30, 0x95	; 149
    1846:	f3 4c       	sbci	r31, 0xC3	; 195
    1848:	30 81       	ld	r19, Z
    184a:	93 0f       	add	r25, r19
    184c:	2f 5f       	subi	r18, 0xFF	; 255
    184e:	82 17       	cp	r24, r18
    1850:	21 f0       	breq	.+8      	; 0x185a <playerLogic+0x74>
    1852:	21 3e       	cpi	r18, 0xE1	; 225
    1854:	90 f3       	brcs	.-28     	; 0x183a <playerLogic+0x54>
    1856:	2c 93       	st	X, r18
    1858:	f3 cf       	rjmp	.-26     	; 0x1840 <playerLogic+0x5a>
    185a:	80 91 3f 38 	lds	r24, 0x383F	; 0x80383f <frameCounter>
    185e:	80 ff       	sbrs	r24, 0
    1860:	02 c0       	rjmp	.+4      	; 0x1866 <playerLogic+0x80>
    1862:	8f ef       	ldi	r24, 0xFF	; 255
    1864:	01 c0       	rjmp	.+2      	; 0x1868 <playerLogic+0x82>
    1866:	81 e0       	ldi	r24, 0x01	; 1
    1868:	80 93 0e 38 	sts	0x380E, r24	; 0x80380e <wheelSpin>
    186c:	40 91 12 38 	lds	r20, 0x3812	; 0x803812 <bugY>
    1870:	46 50       	subi	r20, 0x06	; 6
    1872:	96 95       	lsr	r25
    1874:	49 0f       	add	r20, r25
    1876:	01 e0       	ldi	r16, 0x01	; 1
    1878:	20 e0       	ldi	r18, 0x00	; 0
    187a:	88 e0       	ldi	r24, 0x08	; 8
    187c:	95 e0       	ldi	r25, 0x05	; 5
    187e:	0e 94 28 07 	call	0xe50	; 0xe50 <drawSprite>
    1882:	e0 91 0f 38 	lds	r30, 0x380F	; 0x80380f <wheelXcoarseTile>
    1886:	f0 e0       	ldi	r31, 0x00	; 0
    1888:	e5 59       	subi	r30, 0x95	; 149
    188a:	f3 4c       	sbci	r31, 0xC3	; 195
    188c:	40 81       	ld	r20, Z
    188e:	80 91 12 38 	lds	r24, 0x3812	; 0x803812 <bugY>
    1892:	48 0f       	add	r20, r24
    1894:	00 91 0e 38 	lds	r16, 0x380E	; 0x80380e <wheelSpin>
    1898:	20 e0       	ldi	r18, 0x00	; 0
    189a:	60 91 13 38 	lds	r22, 0x3813	; 0x803813 <bugX>
    189e:	8a e3       	ldi	r24, 0x3A	; 58
    18a0:	95 e0       	ldi	r25, 0x05	; 5
    18a2:	0e 94 28 07 	call	0xe50	; 0xe50 <drawSprite>
    18a6:	e0 91 10 38 	lds	r30, 0x3810	; 0x803810 <wheelXcoarseTile+0x1>
    18aa:	f0 e0       	ldi	r31, 0x00	; 0
    18ac:	e5 59       	subi	r30, 0x95	; 149
    18ae:	f3 4c       	sbci	r31, 0xC3	; 195
    18b0:	40 81       	ld	r20, Z
    18b2:	80 91 12 38 	lds	r24, 0x3812	; 0x803812 <bugY>
    18b6:	48 0f       	add	r20, r24
    18b8:	60 91 13 38 	lds	r22, 0x3813	; 0x803813 <bugX>
    18bc:	68 5f       	subi	r22, 0xF8	; 248
    18be:	00 91 0e 38 	lds	r16, 0x380E	; 0x80380e <wheelSpin>
    18c2:	20 e0       	ldi	r18, 0x00	; 0
    18c4:	8a e3       	ldi	r24, 0x3A	; 58
    18c6:	95 e0       	ldi	r25, 0x05	; 5
    18c8:	0e 94 28 07 	call	0xe50	; 0xe50 <drawSprite>
    18cc:	e0 91 11 38 	lds	r30, 0x3811	; 0x803811 <wheelXcoarseTile+0x2>
    18d0:	f0 e0       	ldi	r31, 0x00	; 0
    18d2:	e5 59       	subi	r30, 0x95	; 149
    18d4:	f3 4c       	sbci	r31, 0xC3	; 195
    18d6:	40 81       	ld	r20, Z
    18d8:	80 91 12 38 	lds	r24, 0x3812	; 0x803812 <bugY>
    18dc:	48 0f       	add	r20, r24
    18de:	60 91 13 38 	lds	r22, 0x3813	; 0x803813 <bugX>
    18e2:	60 5f       	subi	r22, 0xF0	; 240
    18e4:	00 91 0e 38 	lds	r16, 0x380E	; 0x80380e <wheelSpin>
    18e8:	2b c0       	rjmp	.+86     	; 0x1940 <playerLogic+0x15a>
    18ea:	01 e0       	ldi	r16, 0x01	; 1
    18ec:	20 e0       	ldi	r18, 0x00	; 0
    18ee:	40 91 12 38 	lds	r20, 0x3812	; 0x803812 <bugY>
    18f2:	88 e0       	ldi	r24, 0x08	; 8
    18f4:	95 e0       	ldi	r25, 0x05	; 5
    18f6:	0e 94 28 07 	call	0xe50	; 0xe50 <drawSprite>
    18fa:	80 91 3d 38 	lds	r24, 0x383D	; 0x80383d <jump>
    18fe:	89 31       	cpi	r24, 0x19	; 25
    1900:	10 f0       	brcs	.+4      	; 0x1906 <playerLogic+0x120>
    1902:	c4 e0       	ldi	r28, 0x04	; 4
    1904:	01 c0       	rjmp	.+2      	; 0x1908 <playerLogic+0x122>
    1906:	c6 e0       	ldi	r28, 0x06	; 6
    1908:	40 91 12 38 	lds	r20, 0x3812	; 0x803812 <bugY>
    190c:	4c 0f       	add	r20, r28
    190e:	01 e0       	ldi	r16, 0x01	; 1
    1910:	20 e0       	ldi	r18, 0x00	; 0
    1912:	60 91 13 38 	lds	r22, 0x3813	; 0x803813 <bugX>
    1916:	8a e3       	ldi	r24, 0x3A	; 58
    1918:	95 e0       	ldi	r25, 0x05	; 5
    191a:	0e 94 28 07 	call	0xe50	; 0xe50 <drawSprite>
    191e:	40 91 12 38 	lds	r20, 0x3812	; 0x803812 <bugY>
    1922:	4c 0f       	add	r20, r28
    1924:	60 91 13 38 	lds	r22, 0x3813	; 0x803813 <bugX>
    1928:	68 5f       	subi	r22, 0xF8	; 248
    192a:	20 e0       	ldi	r18, 0x00	; 0
    192c:	8a e3       	ldi	r24, 0x3A	; 58
    192e:	95 e0       	ldi	r25, 0x05	; 5
    1930:	0e 94 28 07 	call	0xe50	; 0xe50 <drawSprite>
    1934:	40 91 12 38 	lds	r20, 0x3812	; 0x803812 <bugY>
    1938:	4c 0f       	add	r20, r28
    193a:	60 91 13 38 	lds	r22, 0x3813	; 0x803813 <bugX>
    193e:	60 5f       	subi	r22, 0xF0	; 240
    1940:	20 e0       	ldi	r18, 0x00	; 0
    1942:	8a e3       	ldi	r24, 0x3A	; 58
    1944:	95 e0       	ldi	r25, 0x05	; 5
    1946:	0e 94 28 07 	call	0xe50	; 0xe50 <drawSprite>
    194a:	62 c0       	rjmp	.+196    	; 0x1a10 <playerLogic+0x22a>
    194c:	80 91 0b 38 	lds	r24, 0x380B	; 0x80380b <speed>
    1950:	68 1b       	sub	r22, r24
    1952:	60 93 13 38 	sts	0x3813, r22	; 0x803813 <bugX>
    1956:	40 91 12 38 	lds	r20, 0x3812	; 0x803812 <bugY>
    195a:	40 51       	subi	r20, 0x10	; 16
    195c:	6c 5f       	subi	r22, 0xFC	; 252
    195e:	01 e0       	ldi	r16, 0x01	; 1
    1960:	20 91 38 38 	lds	r18, 0x3838	; 0x803838 <playerFrame>
    1964:	80 ed       	ldi	r24, 0xD0	; 208
    1966:	91 e0       	ldi	r25, 0x01	; 1
    1968:	0e 94 28 07 	call	0xe50	; 0xe50 <drawSprite>
    196c:	e0 91 3a 38 	lds	r30, 0x383A	; 0x80383a <playerTimer>
    1970:	f0 91 3b 38 	lds	r31, 0x383B	; 0x80383b <playerTimer+0x1>
    1974:	25 e0       	ldi	r18, 0x05	; 5
    1976:	30 e0       	ldi	r19, 0x00	; 0
    1978:	4a e0       	ldi	r20, 0x0A	; 10
    197a:	64 e1       	ldi	r22, 0x14	; 20
    197c:	70 e0       	ldi	r23, 0x00	; 0
    197e:	8c e2       	ldi	r24, 0x2C	; 44
    1980:	91 e0       	ldi	r25, 0x01	; 1
    1982:	dc 01       	movw	r26, r24
    1984:	ea 9f       	mul	r30, r26
    1986:	c0 01       	movw	r24, r0
    1988:	eb 9f       	mul	r30, r27
    198a:	90 0d       	add	r25, r0
    198c:	fa 9f       	mul	r31, r26
    198e:	90 0d       	add	r25, r0
    1990:	11 24       	eor	r1, r1
    1992:	0e 94 e7 05 	call	0xbce	; 0xbce <tone>
    1996:	80 91 3a 38 	lds	r24, 0x383A	; 0x80383a <playerTimer>
    199a:	90 91 3b 38 	lds	r25, 0x383B	; 0x80383b <playerTimer+0x1>
    199e:	01 97       	sbiw	r24, 0x01	; 1
    19a0:	b1 f4       	brne	.+44     	; 0x19ce <playerLogic+0x1e8>
    19a2:	85 e0       	ldi	r24, 0x05	; 5
    19a4:	90 e0       	ldi	r25, 0x00	; 0
    19a6:	80 93 3a 38 	sts	0x383A, r24	; 0x80383a <playerTimer>
    19aa:	90 93 3b 38 	sts	0x383B, r25	; 0x80383b <playerTimer+0x1>
    19ae:	80 91 38 38 	lds	r24, 0x3838	; 0x803838 <playerFrame>
    19b2:	90 91 39 38 	lds	r25, 0x3839	; 0x803839 <playerFrame+0x1>
    19b6:	01 96       	adiw	r24, 0x01	; 1
    19b8:	80 93 38 38 	sts	0x3838, r24	; 0x803838 <playerFrame>
    19bc:	90 93 39 38 	sts	0x3839, r25	; 0x803839 <playerFrame+0x1>
    19c0:	04 97       	sbiw	r24, 0x04	; 4
    19c2:	31 f5       	brne	.+76     	; 0x1a10 <playerLogic+0x22a>
    19c4:	80 e2       	ldi	r24, 0x20	; 32
    19c6:	80 93 3c 38 	sts	0x383C, r24	; 0x80383c <playerState>
    19ca:	8c e3       	ldi	r24, 0x3C	; 60
    19cc:	90 e0       	ldi	r25, 0x00	; 0
    19ce:	80 93 3a 38 	sts	0x383A, r24	; 0x80383a <playerTimer>
    19d2:	90 93 3b 38 	sts	0x383B, r25	; 0x80383b <playerTimer+0x1>
    19d6:	1c c0       	rjmp	.+56     	; 0x1a10 <playerLogic+0x22a>
    19d8:	80 91 3a 38 	lds	r24, 0x383A	; 0x80383a <playerTimer>
    19dc:	90 91 3b 38 	lds	r25, 0x383B	; 0x80383b <playerTimer+0x1>
    19e0:	01 97       	sbiw	r24, 0x01	; 1
    19e2:	80 93 3a 38 	sts	0x383A, r24	; 0x80383a <playerTimer>
    19e6:	90 93 3b 38 	sts	0x383B, r25	; 0x80383b <playerTimer+0x1>
    19ea:	89 2b       	or	r24, r25
    19ec:	89 f4       	brne	.+34     	; 0x1a10 <playerLogic+0x22a>
    19ee:	80 91 77 3d 	lds	r24, 0x3D77	; 0x803d77 <lives>
    19f2:	81 50       	subi	r24, 0x01	; 1
    19f4:	80 93 77 3d 	sts	0x3D77, r24	; 0x803d77 <lives>
    19f8:	8f 3f       	cpi	r24, 0xFF	; 255
    19fa:	41 f4       	brne	.+16     	; 0x1a0c <playerLogic+0x226>
    19fc:	86 e0       	ldi	r24, 0x06	; 6
    19fe:	80 93 05 38 	sts	0x3805, r24	; 0x803805 <gameState>
    1a02:	10 92 3f 38 	sts	0x383F, r1	; 0x80383f <frameCounter>
    1a06:	10 92 40 38 	sts	0x3840, r1	; 0x803840 <frameCounter+0x1>
    1a0a:	02 c0       	rjmp	.+4      	; 0x1a10 <playerLogic+0x22a>
    1a0c:	0e 94 c8 0b 	call	0x1790	; 0x1790 <startNewLife>
    1a10:	0e 94 45 0a 	call	0x148a	; 0x148a <shotLogic>
    1a14:	60 91 06 38 	lds	r22, 0x3806	; 0x803806 <blasterX>
    1a18:	60 38       	cpi	r22, 0x80	; 128
    1a1a:	c1 f0       	breq	.+48     	; 0x1a4c <playerLogic+0x266>
    1a1c:	20 91 3f 38 	lds	r18, 0x383F	; 0x80383f <frameCounter>
    1a20:	30 91 40 38 	lds	r19, 0x3840	; 0x803840 <frameCounter+0x1>
    1a24:	36 95       	lsr	r19
    1a26:	27 95       	ror	r18
    1a28:	36 95       	lsr	r19
    1a2a:	27 95       	ror	r18
    1a2c:	21 70       	andi	r18, 0x01	; 1
    1a2e:	01 e0       	ldi	r16, 0x01	; 1
    1a30:	40 91 29 38 	lds	r20, 0x3829	; 0x803829 <blasterY>
    1a34:	86 ec       	ldi	r24, 0xC6	; 198
    1a36:	94 e0       	ldi	r25, 0x04	; 4
    1a38:	0e 94 28 07 	call	0xe50	; 0xe50 <drawSprite>
    1a3c:	80 91 06 38 	lds	r24, 0x3806	; 0x803806 <blasterX>
    1a40:	8e 5f       	subi	r24, 0xFE	; 254
    1a42:	8e 37       	cpi	r24, 0x7E	; 126
    1a44:	0c f0       	brlt	.+2      	; 0x1a48 <playerLogic+0x262>
    1a46:	80 e8       	ldi	r24, 0x80	; 128
    1a48:	80 93 06 38 	sts	0x3806, r24	; 0x803806 <blasterX>
    1a4c:	80 91 3d 38 	lds	r24, 0x383D	; 0x80383d <jump>
    1a50:	88 23       	and	r24, r24
    1a52:	09 f4       	brne	.+2      	; 0x1a56 <playerLogic+0x270>
    1a54:	57 c0       	rjmp	.+174    	; 0x1b04 <playerLogic+0x31e>
    1a56:	90 e0       	ldi	r25, 0x00	; 0
    1a58:	fc 01       	movw	r30, r24
    1a5a:	31 97       	sbiw	r30, 0x01	; 1
    1a5c:	ee 7f       	andi	r30, 0xFE	; 254
    1a5e:	e8 57       	subi	r30, 0x78	; 120
    1a60:	f5 44       	sbci	r31, 0x45	; 69
    1a62:	30 91 12 38 	lds	r19, 0x3812	; 0x803812 <bugY>
    1a66:	20 81       	ld	r18, Z
    1a68:	23 0f       	add	r18, r19
    1a6a:	20 93 12 38 	sts	0x3812, r18	; 0x803812 <bugY>
    1a6e:	20 e0       	ldi	r18, 0x00	; 0
    1a70:	30 e0       	ldi	r19, 0x00	; 0
    1a72:	48 e0       	ldi	r20, 0x08	; 8
    1a74:	64 e1       	ldi	r22, 0x14	; 20
    1a76:	70 e0       	ldi	r23, 0x00	; 0
    1a78:	e4 ef       	ldi	r30, 0xF4	; 244
    1a7a:	f1 e0       	ldi	r31, 0x01	; 1
    1a7c:	dc 01       	movw	r26, r24
    1a7e:	ae 9f       	mul	r26, r30
    1a80:	c0 01       	movw	r24, r0
    1a82:	af 9f       	mul	r26, r31
    1a84:	90 0d       	add	r25, r0
    1a86:	be 9f       	mul	r27, r30
    1a88:	90 0d       	add	r25, r0
    1a8a:	11 24       	eor	r1, r1
    1a8c:	0e 94 e7 05 	call	0xbce	; 0xbce <tone>
    1a90:	80 91 3d 38 	lds	r24, 0x383D	; 0x80383d <jump>
    1a94:	8f 5f       	subi	r24, 0xFF	; 255
    1a96:	81 32       	cpi	r24, 0x21	; 33
    1a98:	19 f0       	breq	.+6      	; 0x1aa0 <playerLogic+0x2ba>
    1a9a:	80 93 3d 38 	sts	0x383D, r24	; 0x80383d <jump>
    1a9e:	32 c0       	rjmp	.+100    	; 0x1b04 <playerLogic+0x31e>
    1aa0:	10 92 3d 38 	sts	0x383D, r1	; 0x80383d <jump>
    1aa4:	20 91 6f 3d 	lds	r18, 0x3D6F	; 0x803d6f <jumpScore>
    1aa8:	30 91 70 3d 	lds	r19, 0x3D70	; 0x803d70 <jumpScore+0x1>
    1aac:	21 15       	cp	r18, r1
    1aae:	31 05       	cpc	r19, r1
    1ab0:	01 f1       	breq	.+64     	; 0x1af2 <playerLogic+0x30c>
    1ab2:	80 91 2e 38 	lds	r24, 0x382E	; 0x80382e <score>
    1ab6:	90 91 2f 38 	lds	r25, 0x382F	; 0x80382f <score+0x1>
    1aba:	a0 91 30 38 	lds	r26, 0x3830	; 0x803830 <score+0x2>
    1abe:	b0 91 31 38 	lds	r27, 0x3831	; 0x803831 <score+0x3>
    1ac2:	82 0f       	add	r24, r18
    1ac4:	93 1f       	adc	r25, r19
    1ac6:	a1 1d       	adc	r26, r1
    1ac8:	b1 1d       	adc	r27, r1
    1aca:	80 93 2e 38 	sts	0x382E, r24	; 0x80382e <score>
    1ace:	90 93 2f 38 	sts	0x382F, r25	; 0x80382f <score+0x1>
    1ad2:	a0 93 30 38 	sts	0x3830, r26	; 0x803830 <score+0x2>
    1ad6:	b0 93 31 38 	sts	0x3831, r27	; 0x803831 <score+0x3>
    1ada:	10 92 6f 3d 	sts	0x3D6F, r1	; 0x803d6f <jumpScore>
    1ade:	10 92 70 3d 	sts	0x3D70, r1	; 0x803d70 <jumpScore+0x1>
    1ae2:	2b ef       	ldi	r18, 0xFB	; 251
    1ae4:	3f ef       	ldi	r19, 0xFF	; 255
    1ae6:	48 e0       	ldi	r20, 0x08	; 8
    1ae8:	68 ec       	ldi	r22, 0xC8	; 200
    1aea:	70 e0       	ldi	r23, 0x00	; 0
    1aec:	88 e8       	ldi	r24, 0x88	; 136
    1aee:	93 e1       	ldi	r25, 0x13	; 19
    1af0:	07 c0       	rjmp	.+14     	; 0x1b00 <playerLogic+0x31a>
    1af2:	20 e0       	ldi	r18, 0x00	; 0
    1af4:	30 e0       	ldi	r19, 0x00	; 0
    1af6:	48 e0       	ldi	r20, 0x08	; 8
    1af8:	68 ec       	ldi	r22, 0xC8	; 200
    1afa:	70 e0       	ldi	r23, 0x00	; 0
    1afc:	80 e1       	ldi	r24, 0x10	; 16
    1afe:	97 e2       	ldi	r25, 0x27	; 39
    1b00:	0e 94 e7 05 	call	0xbce	; 0xbce <tone>
    1b04:	80 91 3c 38 	lds	r24, 0x383C	; 0x80383c <playerState>
    1b08:	87 70       	andi	r24, 0x07	; 7
    1b0a:	09 f4       	brne	.+2      	; 0x1b0e <playerLogic+0x328>
    1b0c:	5e c0       	rjmp	.+188    	; 0x1bca <playerLogic+0x3e4>
    1b0e:	90 91 46 38 	lds	r25, 0x3846	; 0x803846 <sideOfMoon>
    1b12:	80 91 72 3d 	lds	r24, 0x3D72	; 0x803d72 <gamePad>
    1b16:	99 23       	and	r25, r25
    1b18:	61 f0       	breq	.+24     	; 0x1b32 <playerLogic+0x34c>
    1b1a:	83 ff       	sbrs	r24, 3
    1b1c:	07 c0       	rjmp	.+14     	; 0x1b2c <playerLogic+0x346>
    1b1e:	90 91 13 38 	lds	r25, 0x3813	; 0x803813 <bugX>
    1b22:	99 23       	and	r25, r25
    1b24:	19 f0       	breq	.+6      	; 0x1b2c <playerLogic+0x346>
    1b26:	91 50       	subi	r25, 0x01	; 1
    1b28:	90 93 13 38 	sts	0x3813, r25	; 0x803813 <bugX>
    1b2c:	82 ff       	sbrs	r24, 2
    1b2e:	13 c0       	rjmp	.+38     	; 0x1b56 <playerLogic+0x370>
    1b30:	0b c0       	rjmp	.+22     	; 0x1b48 <playerLogic+0x362>
    1b32:	82 ff       	sbrs	r24, 2
    1b34:	07 c0       	rjmp	.+14     	; 0x1b44 <playerLogic+0x35e>
    1b36:	90 91 13 38 	lds	r25, 0x3813	; 0x803813 <bugX>
    1b3a:	99 23       	and	r25, r25
    1b3c:	19 f0       	breq	.+6      	; 0x1b44 <playerLogic+0x35e>
    1b3e:	91 50       	subi	r25, 0x01	; 1
    1b40:	90 93 13 38 	sts	0x3813, r25	; 0x803813 <bugX>
    1b44:	83 ff       	sbrs	r24, 3
    1b46:	07 c0       	rjmp	.+14     	; 0x1b56 <playerLogic+0x370>
    1b48:	80 91 13 38 	lds	r24, 0x3813	; 0x803813 <bugX>
    1b4c:	87 36       	cpi	r24, 0x67	; 103
    1b4e:	18 f4       	brcc	.+6      	; 0x1b56 <playerLogic+0x370>
    1b50:	8f 5f       	subi	r24, 0xFF	; 255
    1b52:	80 93 13 38 	sts	0x3813, r24	; 0x803813 <bugX>
    1b56:	80 91 47 38 	lds	r24, 0x3847	; 0x803847 <buttonsPressed>
    1b5a:	87 ff       	sbrs	r24, 7
    1b5c:	07 c0       	rjmp	.+14     	; 0x1b6c <playerLogic+0x386>
    1b5e:	90 91 3d 38 	lds	r25, 0x383D	; 0x80383d <jump>
    1b62:	91 11       	cpse	r25, r1
    1b64:	03 c0       	rjmp	.+6      	; 0x1b6c <playerLogic+0x386>
    1b66:	91 e0       	ldi	r25, 0x01	; 1
    1b68:	90 93 3d 38 	sts	0x383D, r25	; 0x80383d <jump>
    1b6c:	86 ff       	sbrs	r24, 6
    1b6e:	2d c0       	rjmp	.+90     	; 0x1bca <playerLogic+0x3e4>
    1b70:	e0 91 2d 38 	lds	r30, 0x382D	; 0x80382d <shotPointer>
    1b74:	b4 e0       	ldi	r27, 0x04	; 4
    1b76:	eb 9f       	mul	r30, r27
    1b78:	f0 01       	movw	r30, r0
    1b7a:	11 24       	eor	r1, r1
    1b7c:	ed 59       	subi	r30, 0x9D	; 157
    1b7e:	f3 4c       	sbci	r31, 0xC3	; 195
    1b80:	82 81       	ldd	r24, Z+2	; 0x02
    1b82:	93 81       	ldd	r25, Z+3	; 0x03
    1b84:	80 38       	cpi	r24, 0x80	; 128
    1b86:	9f 4f       	sbci	r25, 0xFF	; 255
    1b88:	e1 f4       	brne	.+56     	; 0x1bc2 <playerLogic+0x3dc>
    1b8a:	80 91 13 38 	lds	r24, 0x3813	; 0x803813 <bugX>
    1b8e:	90 e0       	ldi	r25, 0x00	; 0
    1b90:	02 96       	adiw	r24, 0x02	; 2
    1b92:	80 83       	st	Z, r24
    1b94:	91 83       	std	Z+1, r25	; 0x01
    1b96:	80 91 12 38 	lds	r24, 0x3812	; 0x803812 <bugY>
    1b9a:	90 e0       	ldi	r25, 0x00	; 0
    1b9c:	08 97       	sbiw	r24, 0x08	; 8
    1b9e:	82 83       	std	Z+2, r24	; 0x02
    1ba0:	93 83       	std	Z+3, r25	; 0x03
    1ba2:	2a e0       	ldi	r18, 0x0A	; 10
    1ba4:	30 e0       	ldi	r19, 0x00	; 0
    1ba6:	4a e0       	ldi	r20, 0x0A	; 10
    1ba8:	64 e6       	ldi	r22, 0x64	; 100
    1baa:	70 e0       	ldi	r23, 0x00	; 0
    1bac:	80 e2       	ldi	r24, 0x20	; 32
    1bae:	93 e0       	ldi	r25, 0x03	; 3
    1bb0:	0e 94 e7 05 	call	0xbce	; 0xbce <tone>
    1bb4:	80 91 2d 38 	lds	r24, 0x382D	; 0x80382d <shotPointer>
    1bb8:	8f 5f       	subi	r24, 0xFF	; 255
    1bba:	82 30       	cpi	r24, 0x02	; 2
    1bbc:	c8 f5       	brcc	.+114    	; 0x1c30 <playerLogic+0x44a>
    1bbe:	80 93 2d 38 	sts	0x382D, r24	; 0x80382d <shotPointer>
    1bc2:	80 91 06 38 	lds	r24, 0x3806	; 0x803806 <blasterX>
    1bc6:	80 38       	cpi	r24, 0x80	; 128
    1bc8:	b1 f1       	breq	.+108    	; 0x1c36 <playerLogic+0x450>
    1bca:	80 91 36 38 	lds	r24, 0x3836	; 0x803836 <stageWin>
    1bce:	88 23       	and	r24, r24
    1bd0:	09 f4       	brne	.+2      	; 0x1bd4 <playerLogic+0x3ee>
    1bd2:	4b c0       	rjmp	.+150    	; 0x1c6a <playerLogic+0x484>
    1bd4:	80 91 3f 38 	lds	r24, 0x383F	; 0x80383f <frameCounter>
    1bd8:	66 e0       	ldi	r22, 0x06	; 6
    1bda:	82 ff       	sbrs	r24, 2
    1bdc:	02 c0       	rjmp	.+4      	; 0x1be2 <playerLogic+0x3fc>
    1bde:	80 e8       	ldi	r24, 0x80	; 128
    1be0:	01 c0       	rjmp	.+2      	; 0x1be4 <playerLogic+0x3fe>
    1be2:	80 e0       	ldi	r24, 0x00	; 0
    1be4:	0e 94 19 07 	call	0xe32	; 0xe32 <setRowScroll>
    1be8:	80 91 3a 38 	lds	r24, 0x383A	; 0x80383a <playerTimer>
    1bec:	90 91 3b 38 	lds	r25, 0x383B	; 0x80383b <playerTimer+0x1>
    1bf0:	01 97       	sbiw	r24, 0x01	; 1
    1bf2:	80 93 3a 38 	sts	0x383A, r24	; 0x80383a <playerTimer>
    1bf6:	90 93 3b 38 	sts	0x383B, r25	; 0x80383b <playerTimer+0x1>
    1bfa:	89 2b       	or	r24, r25
    1bfc:	b1 f5       	brne	.+108    	; 0x1c6a <playerLogic+0x484>
    1bfe:	80 91 74 3d 	lds	r24, 0x3D74	; 0x803d74 <stage>
    1c02:	8f 5f       	subi	r24, 0xFF	; 255
    1c04:	80 93 74 3d 	sts	0x3D74, r24	; 0x803d74 <stage>
    1c08:	80 91 77 3d 	lds	r24, 0x3D77	; 0x803d77 <lives>
    1c0c:	8f 5f       	subi	r24, 0xFF	; 255
    1c0e:	80 93 77 3d 	sts	0x3D77, r24	; 0x803d77 <lives>
    1c12:	87 e0       	ldi	r24, 0x07	; 7
    1c14:	80 93 05 38 	sts	0x3805, r24	; 0x803805 <gameState>
    1c18:	10 92 3f 38 	sts	0x383F, r1	; 0x80383f <frameCounter>
    1c1c:	10 92 40 38 	sts	0x3840, r1	; 0x803840 <frameCounter+0x1>
    1c20:	10 92 2b 38 	sts	0x382B, r1	; 0x80382b <bossBattle>
    1c24:	10 92 5b 3e 	sts	0x3E5B, r1	; 0x803e5b <checkPoint>
    1c28:	cf 91       	pop	r28
    1c2a:	0f 91       	pop	r16
    1c2c:	0c 94 c8 0b 	jmp	0x1790	; 0x1790 <startNewLife>
    1c30:	10 92 2d 38 	sts	0x382D, r1	; 0x80382d <shotPointer>
    1c34:	c6 cf       	rjmp	.-116    	; 0x1bc2 <playerLogic+0x3dc>
    1c36:	80 91 13 38 	lds	r24, 0x3813	; 0x803813 <bugX>
    1c3a:	80 5f       	subi	r24, 0xF0	; 240
    1c3c:	80 93 06 38 	sts	0x3806, r24	; 0x803806 <blasterX>
    1c40:	2a e0       	ldi	r18, 0x0A	; 10
    1c42:	30 e0       	ldi	r19, 0x00	; 0
    1c44:	4a e0       	ldi	r20, 0x0A	; 10
    1c46:	64 e6       	ldi	r22, 0x64	; 100
    1c48:	70 e0       	ldi	r23, 0x00	; 0
    1c4a:	80 e2       	ldi	r24, 0x20	; 32
    1c4c:	93 e0       	ldi	r25, 0x03	; 3
    1c4e:	0e 94 e7 05 	call	0xbce	; 0xbce <tone>
    1c52:	90 91 3d 38 	lds	r25, 0x383D	; 0x80383d <jump>
    1c56:	80 91 12 38 	lds	r24, 0x3812	; 0x803812 <bugY>
    1c5a:	99 23       	and	r25, r25
    1c5c:	11 f0       	breq	.+4      	; 0x1c62 <playerLogic+0x47c>
    1c5e:	8e 5f       	subi	r24, 0xFE	; 254
    1c60:	01 c0       	rjmp	.+2      	; 0x1c64 <playerLogic+0x47e>
    1c62:	83 50       	subi	r24, 0x03	; 3
    1c64:	80 93 29 38 	sts	0x3829, r24	; 0x803829 <blasterY>
    1c68:	b0 cf       	rjmp	.-160    	; 0x1bca <playerLogic+0x3e4>
    1c6a:	cf 91       	pop	r28
    1c6c:	0f 91       	pop	r16
    1c6e:	08 95       	ret

00001c70 <startNewStage>:
    1c70:	10 92 5b 3e 	sts	0x3E5B, r1	; 0x803e5b <checkPoint>
    1c74:	80 91 74 3d 	lds	r24, 0x3D74	; 0x803d74 <stage>
    1c78:	9c ee       	ldi	r25, 0xEC	; 236
    1c7a:	89 9f       	mul	r24, r25
    1c7c:	80 2d       	mov	r24, r0
    1c7e:	11 24       	eor	r1, r1
    1c80:	84 57       	subi	r24, 0x74	; 116
    1c82:	80 93 14 38 	sts	0x3814, r24	; 0x803814 <attackSpeed>
    1c86:	0c 94 c8 0b 	jmp	0x1790	; 0x1790 <startNewLife>

00001c8a <startNewGame>:
    1c8a:	81 e0       	ldi	r24, 0x01	; 1
    1c8c:	80 93 74 3d 	sts	0x3D74, r24	; 0x803d74 <stage>
    1c90:	10 92 2e 38 	sts	0x382E, r1	; 0x80382e <score>
    1c94:	10 92 2f 38 	sts	0x382F, r1	; 0x80382f <score+0x1>
    1c98:	10 92 30 38 	sts	0x3830, r1	; 0x803830 <score+0x2>
    1c9c:	10 92 31 38 	sts	0x3831, r1	; 0x803831 <score+0x3>
    1ca0:	82 e0       	ldi	r24, 0x02	; 2
    1ca2:	80 93 77 3d 	sts	0x3D77, r24	; 0x803d77 <lives>
    1ca6:	0c 94 38 0e 	jmp	0x1c70	; 0x1c70 <startNewStage>

00001caa <fillTiles>:
    1caa:	90 e0       	ldi	r25, 0x00	; 0
    1cac:	fc 01       	movw	r30, r24
    1cae:	e5 59       	subi	r30, 0x95	; 149
    1cb0:	f3 4c       	sbci	r31, 0xC3	; 195
    1cb2:	84 0f       	add	r24, r20
    1cb4:	91 1d       	adc	r25, r1
    1cb6:	9f 01       	movw	r18, r30
    1cb8:	2b 56       	subi	r18, 0x6B	; 107
    1cba:	3c 43       	sbci	r19, 0x3C	; 60
    1cbc:	28 17       	cp	r18, r24
    1cbe:	39 07       	cpc	r19, r25
    1cc0:	1c f4       	brge	.+6      	; 0x1cc8 <fillTiles+0x1e>
    1cc2:	61 93       	st	Z+, r22
    1cc4:	6f 5f       	subi	r22, 0xFF	; 255
    1cc6:	f7 cf       	rjmp	.-18     	; 0x1cb6 <fillTiles+0xc>
    1cc8:	08 95       	ret

00001cca <drawMountains2>:
    1cca:	cf 93       	push	r28
    1ccc:	c8 2f       	mov	r28, r24
    1cce:	c2 95       	swap	r28
    1cd0:	cc 0f       	add	r28, r28
    1cd2:	c0 7e       	andi	r28, 0xE0	; 224
    1cd4:	40 e1       	ldi	r20, 0x10	; 16
    1cd6:	60 e8       	ldi	r22, 0x80	; 128
    1cd8:	8c 2f       	mov	r24, r28
    1cda:	0e 94 55 0e 	call	0x1caa	; 0x1caa <fillTiles>
    1cde:	40 e1       	ldi	r20, 0x10	; 16
    1ce0:	60 e8       	ldi	r22, 0x80	; 128
    1ce2:	80 e1       	ldi	r24, 0x10	; 16
    1ce4:	8c 0f       	add	r24, r28
    1ce6:	0e 94 55 0e 	call	0x1caa	; 0x1caa <fillTiles>
    1cea:	ec 2f       	mov	r30, r28
    1cec:	f0 e0       	ldi	r31, 0x00	; 0
    1cee:	e5 59       	subi	r30, 0x95	; 149
    1cf0:	f3 4c       	sbci	r31, 0xC3	; 195
    1cf2:	80 e2       	ldi	r24, 0x20	; 32
    1cf4:	86 83       	std	Z+6, r24	; 0x06
    1cf6:	81 87       	std	Z+9, r24	; 0x09
    1cf8:	82 87       	std	Z+10, r24	; 0x0a
    1cfa:	86 8b       	std	Z+22, r24	; 0x16
    1cfc:	81 8f       	std	Z+25, r24	; 0x19
    1cfe:	82 8f       	std	Z+26, r24	; 0x1a
    1d00:	40 e1       	ldi	r20, 0x10	; 16
    1d02:	60 e9       	ldi	r22, 0x90	; 144
    1d04:	8c 0f       	add	r24, r28
    1d06:	0e 94 55 0e 	call	0x1caa	; 0x1caa <fillTiles>
    1d0a:	40 e1       	ldi	r20, 0x10	; 16
    1d0c:	60 e9       	ldi	r22, 0x90	; 144
    1d0e:	80 e3       	ldi	r24, 0x30	; 48
    1d10:	8c 0f       	add	r24, r28
    1d12:	cf 91       	pop	r28
    1d14:	0c 94 55 0e 	jmp	0x1caa	; 0x1caa <fillTiles>

00001d18 <drawDecimal>:
    1d18:	2f 92       	push	r2
    1d1a:	3f 92       	push	r3
    1d1c:	4f 92       	push	r4
    1d1e:	5f 92       	push	r5
    1d20:	6f 92       	push	r6
    1d22:	7f 92       	push	r7
    1d24:	8f 92       	push	r8
    1d26:	9f 92       	push	r9
    1d28:	af 92       	push	r10
    1d2a:	bf 92       	push	r11
    1d2c:	cf 92       	push	r12
    1d2e:	df 92       	push	r13
    1d30:	ef 92       	push	r14
    1d32:	ff 92       	push	r15
    1d34:	0f 93       	push	r16
    1d36:	1f 93       	push	r17
    1d38:	cf 93       	push	r28
    1d3a:	df 93       	push	r29
    1d3c:	6b 01       	movw	r12, r22
    1d3e:	7c 01       	movw	r14, r24
    1d40:	ea 01       	movw	r28, r20
    1d42:	89 e0       	ldi	r24, 0x09	; 9
    1d44:	28 2e       	mov	r2, r24
    1d46:	31 2c       	mov	r3, r1
    1d48:	81 2c       	mov	r8, r1
    1d4a:	91 ee       	ldi	r25, 0xE1	; 225
    1d4c:	99 2e       	mov	r9, r25
    1d4e:	95 ef       	ldi	r25, 0xF5	; 245
    1d50:	a9 2e       	mov	r10, r25
    1d52:	95 e0       	ldi	r25, 0x05	; 5
    1d54:	b9 2e       	mov	r11, r25
    1d56:	00 e0       	ldi	r16, 0x00	; 0
    1d58:	10 e0       	ldi	r17, 0x00	; 0
    1d5a:	2a e0       	ldi	r18, 0x0A	; 10
    1d5c:	42 2e       	mov	r4, r18
    1d5e:	51 2c       	mov	r5, r1
    1d60:	61 2c       	mov	r6, r1
    1d62:	71 2c       	mov	r7, r1
    1d64:	c8 14       	cp	r12, r8
    1d66:	d9 04       	cpc	r13, r9
    1d68:	ea 04       	cpc	r14, r10
    1d6a:	fb 04       	cpc	r15, r11
    1d6c:	70 f0       	brcs	.+28     	; 0x1d8a <drawDecimal+0x72>
    1d6e:	c7 01       	movw	r24, r14
    1d70:	b6 01       	movw	r22, r12
    1d72:	a5 01       	movw	r20, r10
    1d74:	94 01       	movw	r18, r8
    1d76:	0e 94 08 1c 	call	0x3810	; 0x3810 <__udivmodsi4>
    1d7a:	20 5d       	subi	r18, 0xD0	; 208
    1d7c:	28 83       	st	Y, r18
    1d7e:	6b 01       	movw	r12, r22
    1d80:	7c 01       	movw	r14, r24
    1d82:	21 96       	adiw	r28, 0x01	; 1
    1d84:	01 e0       	ldi	r16, 0x01	; 1
    1d86:	10 e0       	ldi	r17, 0x00	; 0
    1d88:	0c c0       	rjmp	.+24     	; 0x1da2 <drawDecimal+0x8a>
    1d8a:	01 15       	cp	r16, r1
    1d8c:	11 05       	cpc	r17, r1
    1d8e:	31 f4       	brne	.+12     	; 0x1d9c <drawDecimal+0x84>
    1d90:	81 e0       	ldi	r24, 0x01	; 1
    1d92:	88 16       	cp	r8, r24
    1d94:	91 04       	cpc	r9, r1
    1d96:	a1 04       	cpc	r10, r1
    1d98:	b1 04       	cpc	r11, r1
    1d9a:	19 f4       	brne	.+6      	; 0x1da2 <drawDecimal+0x8a>
    1d9c:	80 e3       	ldi	r24, 0x30	; 48
    1d9e:	88 83       	st	Y, r24
    1da0:	21 96       	adiw	r28, 0x01	; 1
    1da2:	c5 01       	movw	r24, r10
    1da4:	b4 01       	movw	r22, r8
    1da6:	a3 01       	movw	r20, r6
    1da8:	92 01       	movw	r18, r4
    1daa:	0e 94 08 1c 	call	0x3810	; 0x3810 <__udivmodsi4>
    1dae:	49 01       	movw	r8, r18
    1db0:	5a 01       	movw	r10, r20
    1db2:	81 e0       	ldi	r24, 0x01	; 1
    1db4:	28 1a       	sub	r2, r24
    1db6:	31 08       	sbc	r3, r1
    1db8:	a9 f6       	brne	.-86     	; 0x1d64 <drawDecimal+0x4c>
    1dba:	df 91       	pop	r29
    1dbc:	cf 91       	pop	r28
    1dbe:	1f 91       	pop	r17
    1dc0:	0f 91       	pop	r16
    1dc2:	ff 90       	pop	r15
    1dc4:	ef 90       	pop	r14
    1dc6:	df 90       	pop	r13
    1dc8:	cf 90       	pop	r12
    1dca:	bf 90       	pop	r11
    1dcc:	af 90       	pop	r10
    1dce:	9f 90       	pop	r9
    1dd0:	8f 90       	pop	r8
    1dd2:	7f 90       	pop	r7
    1dd4:	6f 90       	pop	r6
    1dd6:	5f 90       	pop	r5
    1dd8:	4f 90       	pop	r4
    1dda:	3f 90       	pop	r3
    1ddc:	2f 90       	pop	r2
    1dde:	08 95       	ret

00001de0 <drawText>:
    1de0:	dc 01       	movw	r26, r24
    1de2:	fb 01       	movw	r30, r22
    1de4:	9d 91       	ld	r25, X+
    1de6:	99 23       	and	r25, r25
    1de8:	11 f0       	breq	.+4      	; 0x1dee <drawText+0xe>
    1dea:	91 93       	st	Z+, r25
    1dec:	fb cf       	rjmp	.-10     	; 0x1de4 <drawText+0x4>
    1dee:	08 95       	ret

00001df0 <gameStatus>:
    1df0:	cf 93       	push	r28
    1df2:	c8 2f       	mov	r28, r24
    1df4:	0e 94 c4 08 	call	0x1188	; 0x1188 <csLow>
    1df8:	80 91 3f 38 	lds	r24, 0x383F	; 0x80383f <frameCounter>
    1dfc:	90 91 40 38 	lds	r25, 0x3840	; 0x803840 <frameCounter+0x1>
    1e00:	01 96       	adiw	r24, 0x01	; 1
    1e02:	80 93 3f 38 	sts	0x383F, r24	; 0x80383f <frameCounter>
    1e06:	90 93 40 38 	sts	0x3840, r25	; 0x803840 <frameCounter+0x1>
    1e0a:	85 ff       	sbrs	r24, 5
    1e0c:	08 c0       	rjmp	.+16     	; 0x1e1e <gameStatus+0x2e>
    1e0e:	c1 11       	cpse	r28, r1
    1e10:	06 c0       	rjmp	.+12     	; 0x1e1e <gameStatus+0x2e>
    1e12:	65 e8       	ldi	r22, 0x85	; 133
    1e14:	7c e3       	ldi	r23, 0x3C	; 60
    1e16:	82 e7       	ldi	r24, 0x72	; 114
    1e18:	98 eb       	ldi	r25, 0xB8	; 184
    1e1a:	0e 94 f0 0e 	call	0x1de0	; 0x1de0 <drawText>
    1e1e:	0e 94 d0 08 	call	0x11a0	; 0x11a0 <nextRow>
    1e22:	6b e7       	ldi	r22, 0x7B	; 123
    1e24:	7c e3       	ldi	r23, 0x3C	; 60
    1e26:	89 e7       	ldi	r24, 0x79	; 121
    1e28:	98 eb       	ldi	r25, 0xB8	; 184
    1e2a:	0e 94 f0 0e 	call	0x1de0	; 0x1de0 <drawText>
    1e2e:	60 91 74 3d 	lds	r22, 0x3D74	; 0x803d74 <stage>
    1e32:	70 e0       	ldi	r23, 0x00	; 0
    1e34:	80 e0       	ldi	r24, 0x00	; 0
    1e36:	90 e0       	ldi	r25, 0x00	; 0
    1e38:	41 e8       	ldi	r20, 0x81	; 129
    1e3a:	5c e3       	ldi	r21, 0x3C	; 60
    1e3c:	0e 94 8c 0e 	call	0x1d18	; 0x1d18 <drawDecimal>
    1e40:	0e 94 d0 08 	call	0x11a0	; 0x11a0 <nextRow>
    1e44:	6b e7       	ldi	r22, 0x7B	; 123
    1e46:	7c e3       	ldi	r23, 0x3C	; 60
    1e48:	80 e8       	ldi	r24, 0x80	; 128
    1e4a:	98 eb       	ldi	r25, 0xB8	; 184
    1e4c:	0e 94 f0 0e 	call	0x1de0	; 0x1de0 <drawText>
    1e50:	60 91 2e 38 	lds	r22, 0x382E	; 0x80382e <score>
    1e54:	70 91 2f 38 	lds	r23, 0x382F	; 0x80382f <score+0x1>
    1e58:	80 91 30 38 	lds	r24, 0x3830	; 0x803830 <score+0x2>
    1e5c:	90 91 31 38 	lds	r25, 0x3831	; 0x803831 <score+0x3>
    1e60:	41 e8       	ldi	r20, 0x81	; 129
    1e62:	5c e3       	ldi	r21, 0x3C	; 60
    1e64:	0e 94 8c 0e 	call	0x1d18	; 0x1d18 <drawDecimal>
    1e68:	0e 94 d0 08 	call	0x11a0	; 0x11a0 <nextRow>
    1e6c:	6b e7       	ldi	r22, 0x7B	; 123
    1e6e:	7c e3       	ldi	r23, 0x3C	; 60
    1e70:	87 e8       	ldi	r24, 0x87	; 135
    1e72:	98 eb       	ldi	r25, 0xB8	; 184
    1e74:	0e 94 f0 0e 	call	0x1de0	; 0x1de0 <drawText>
    1e78:	60 91 77 3d 	lds	r22, 0x3D77	; 0x803d77 <lives>
    1e7c:	6f 3f       	cpi	r22, 0xFF	; 255
    1e7e:	39 f0       	breq	.+14     	; 0x1e8e <gameStatus+0x9e>
    1e80:	70 e0       	ldi	r23, 0x00	; 0
    1e82:	80 e0       	ldi	r24, 0x00	; 0
    1e84:	90 e0       	ldi	r25, 0x00	; 0
    1e86:	41 e8       	ldi	r20, 0x81	; 129
    1e88:	5c e3       	ldi	r21, 0x3C	; 60
    1e8a:	0e 94 8c 0e 	call	0x1d18	; 0x1d18 <drawDecimal>
    1e8e:	0e 94 d0 08 	call	0x11a0	; 0x11a0 <nextRow>
    1e92:	6b e7       	ldi	r22, 0x7B	; 123
    1e94:	7c e3       	ldi	r23, 0x3C	; 60
    1e96:	8e e8       	ldi	r24, 0x8E	; 142
    1e98:	98 eb       	ldi	r25, 0xB8	; 184
    1e9a:	0e 94 f0 0e 	call	0x1de0	; 0x1de0 <drawText>
    1e9e:	0e 94 d0 08 	call	0x11a0	; 0x11a0 <nextRow>
    1ea2:	6b e7       	ldi	r22, 0x7B	; 123
    1ea4:	7c e3       	ldi	r23, 0x3C	; 60
    1ea6:	8f e9       	ldi	r24, 0x9F	; 159
    1ea8:	98 eb       	ldi	r25, 0xB8	; 184
    1eaa:	0e 94 f0 0e 	call	0x1de0	; 0x1de0 <drawText>
    1eae:	20 91 5b 3e 	lds	r18, 0x3E5B	; 0x803e5b <checkPoint>
    1eb2:	92 2f       	mov	r25, r18
    1eb4:	99 0f       	add	r25, r25
    1eb6:	92 0f       	add	r25, r18
    1eb8:	80 e1       	ldi	r24, 0x10	; 16
    1eba:	89 0f       	add	r24, r25
    1ebc:	40 91 08 38 	lds	r20, 0x3808	; 0x803808 <messageFlash>
    1ec0:	50 91 09 38 	lds	r21, 0x3809	; 0x803809 <messageFlash+0x1>
    1ec4:	4f 3f       	cpi	r20, 0xFF	; 255
    1ec6:	5f 4f       	sbci	r21, 0xFF	; 255
    1ec8:	31 f4       	brne	.+12     	; 0x1ed6 <gameStatus+0xe6>
    1eca:	25 30       	cpi	r18, 0x05	; 5
    1ecc:	20 f4       	brcc	.+8      	; 0x1ed6 <gameStatus+0xe6>
    1ece:	c1 30       	cpi	r28, 0x01	; 1
    1ed0:	21 f0       	breq	.+8      	; 0x1eda <gameStatus+0xea>
    1ed2:	81 e1       	ldi	r24, 0x11	; 17
    1ed4:	89 0f       	add	r24, r25
    1ed6:	c2 30       	cpi	r28, 0x02	; 2
    1ed8:	11 f0       	breq	.+4      	; 0x1ede <gameStatus+0xee>
    1eda:	2d e7       	ldi	r18, 0x7D	; 125
    1edc:	01 c0       	rjmp	.+2      	; 0x1ee0 <gameStatus+0xf0>
    1ede:	25 e2       	ldi	r18, 0x25	; 37
    1ee0:	30 91 3f 38 	lds	r19, 0x383F	; 0x80383f <frameCounter>
    1ee4:	08 2e       	mov	r0, r24
    1ee6:	00 0c       	add	r0, r0
    1ee8:	99 0b       	sbc	r25, r25
    1eea:	fc 01       	movw	r30, r24
    1eec:	e5 59       	subi	r30, 0x95	; 149
    1eee:	f3 4c       	sbci	r31, 0xC3	; 195
    1ef0:	33 ff       	sbrs	r19, 3
    1ef2:	2e 5f       	subi	r18, 0xFE	; 254
    1ef4:	20 83       	st	Z, r18
    1ef6:	0e 94 d0 08 	call	0x11a0	; 0x11a0 <nextRow>
    1efa:	cc 23       	and	r28, r28
    1efc:	91 f0       	breq	.+36     	; 0x1f22 <gameStatus+0x132>
    1efe:	0e 94 d0 08 	call	0x11a0	; 0x11a0 <nextRow>
    1f02:	c2 30       	cpi	r28, 0x02	; 2
    1f04:	29 f4       	brne	.+10     	; 0x1f10 <gameStatus+0x120>
    1f06:	6f e7       	ldi	r22, 0x7F	; 127
    1f08:	7c e3       	ldi	r23, 0x3C	; 60
    1f0a:	80 eb       	ldi	r24, 0xB0	; 176
    1f0c:	98 eb       	ldi	r25, 0xB8	; 184
    1f0e:	15 c0       	rjmp	.+42     	; 0x1f3a <gameStatus+0x14a>
    1f10:	80 91 3f 38 	lds	r24, 0x383F	; 0x80383f <frameCounter>
    1f14:	83 ff       	sbrs	r24, 3
    1f16:	13 c0       	rjmp	.+38     	; 0x1f3e <gameStatus+0x14e>
    1f18:	6e e7       	ldi	r22, 0x7E	; 126
    1f1a:	7c e3       	ldi	r23, 0x3C	; 60
    1f1c:	8a eb       	ldi	r24, 0xBA	; 186
    1f1e:	98 eb       	ldi	r25, 0xB8	; 184
    1f20:	0c c0       	rjmp	.+24     	; 0x1f3a <gameStatus+0x14a>
    1f22:	60 e8       	ldi	r22, 0x80	; 128
    1f24:	7c e3       	ldi	r23, 0x3C	; 60
    1f26:	85 ec       	ldi	r24, 0xC5	; 197
    1f28:	98 eb       	ldi	r25, 0xB8	; 184
    1f2a:	0e 94 f0 0e 	call	0x1de0	; 0x1de0 <drawText>
    1f2e:	0e 94 d0 08 	call	0x11a0	; 0x11a0 <nextRow>
    1f32:	60 e8       	ldi	r22, 0x80	; 128
    1f34:	7c e3       	ldi	r23, 0x3C	; 60
    1f36:	81 ed       	ldi	r24, 0xD1	; 209
    1f38:	98 eb       	ldi	r25, 0xB8	; 184
    1f3a:	0e 94 f0 0e 	call	0x1de0	; 0x1de0 <drawText>
    1f3e:	0e 94 d0 08 	call	0x11a0	; 0x11a0 <nextRow>
    1f42:	0e 94 c0 08 	call	0x1180	; 0x1180 <csHigh>
    1f46:	80 91 72 3d 	lds	r24, 0x3D72	; 0x803d72 <gamePad>
    1f4a:	86 ff       	sbrs	r24, 6
    1f4c:	0a c0       	rjmp	.+20     	; 0x1f62 <gameStatus+0x172>
    1f4e:	87 ff       	sbrs	r24, 7
    1f50:	08 c0       	rjmp	.+16     	; 0x1f62 <gameStatus+0x172>
    1f52:	c1 11       	cpse	r28, r1
    1f54:	06 c0       	rjmp	.+12     	; 0x1f62 <gameStatus+0x172>
    1f56:	80 e2       	ldi	r24, 0x20	; 32
    1f58:	80 93 6e 3d 	sts	0x3D6E, r24	; 0x803d6e <buttonRepeatFlag>
    1f5c:	cf 91       	pop	r28
    1f5e:	0c 94 74 0a 	jmp	0x14e8	; 0x14e8 <gotoSleep>
    1f62:	cf 91       	pop	r28
    1f64:	08 95       	ret

00001f66 <damageBoss>:
    1f66:	cf 93       	push	r28
    1f68:	df 93       	push	r29
    1f6a:	c8 2f       	mov	r28, r24
    1f6c:	25 e0       	ldi	r18, 0x05	; 5
    1f6e:	30 e0       	ldi	r19, 0x00	; 0
    1f70:	4a e0       	ldi	r20, 0x0A	; 10
    1f72:	64 e6       	ldi	r22, 0x64	; 100
    1f74:	70 e0       	ldi	r23, 0x00	; 0
    1f76:	80 e9       	ldi	r24, 0x90	; 144
    1f78:	91 e0       	ldi	r25, 0x01	; 1
    1f7a:	0e 94 e7 05 	call	0xbce	; 0xbce <tone>
    1f7e:	80 91 2e 38 	lds	r24, 0x382E	; 0x80382e <score>
    1f82:	90 91 2f 38 	lds	r25, 0x382F	; 0x80382f <score+0x1>
    1f86:	a0 91 30 38 	lds	r26, 0x3830	; 0x803830 <score+0x2>
    1f8a:	b0 91 31 38 	lds	r27, 0x3831	; 0x803831 <score+0x3>
    1f8e:	86 50       	subi	r24, 0x06	; 6
    1f90:	9f 4f       	sbci	r25, 0xFF	; 255
    1f92:	af 4f       	sbci	r26, 0xFF	; 255
    1f94:	bf 4f       	sbci	r27, 0xFF	; 255
    1f96:	80 93 2e 38 	sts	0x382E, r24	; 0x80382e <score>
    1f9a:	90 93 2f 38 	sts	0x382F, r25	; 0x80382f <score+0x1>
    1f9e:	a0 93 30 38 	sts	0x3830, r26	; 0x803830 <score+0x2>
    1fa2:	b0 93 31 38 	sts	0x3831, r27	; 0x803831 <score+0x3>
    1fa6:	80 91 07 38 	lds	r24, 0x3807	; 0x803807 <bossHealth>
    1faa:	81 50       	subi	r24, 0x01	; 1
    1fac:	80 93 07 38 	sts	0x3807, r24	; 0x803807 <bossHealth>
    1fb0:	81 11       	cpse	r24, r1
    1fb2:	26 c0       	rjmp	.+76     	; 0x2000 <damageBoss+0x9a>
    1fb4:	8e e0       	ldi	r24, 0x0E	; 14
    1fb6:	c8 9f       	mul	r28, r24
    1fb8:	e0 01       	movw	r28, r0
    1fba:	11 24       	eor	r1, r1
    1fbc:	c8 58       	subi	r28, 0x88	; 136
    1fbe:	d2 4c       	sbci	r29, 0xC2	; 194
    1fc0:	44 e1       	ldi	r20, 0x14	; 20
    1fc2:	6c 81       	ldd	r22, Y+4	; 0x04
    1fc4:	8a 81       	ldd	r24, Y+2	; 0x02
    1fc6:	9b 81       	ldd	r25, Y+3	; 0x03
    1fc8:	0e 94 15 0a 	call	0x142a	; 0x142a <spawnExplosion>
    1fcc:	8a 81       	ldd	r24, Y+2	; 0x02
    1fce:	9b 81       	ldd	r25, Y+3	; 0x03
    1fd0:	48 e1       	ldi	r20, 0x18	; 24
    1fd2:	6c 81       	ldd	r22, Y+4	; 0x04
    1fd4:	40 96       	adiw	r24, 0x10	; 16
    1fd6:	0e 94 15 0a 	call	0x142a	; 0x142a <spawnExplosion>
    1fda:	80 e8       	ldi	r24, 0x80	; 128
    1fdc:	8c 83       	std	Y+4, r24	; 0x04
    1fde:	81 e0       	ldi	r24, 0x01	; 1
    1fe0:	80 93 36 38 	sts	0x3836, r24	; 0x803836 <stageWin>
    1fe4:	84 eb       	ldi	r24, 0xB4	; 180
    1fe6:	90 e0       	ldi	r25, 0x00	; 0
    1fe8:	80 93 3a 38 	sts	0x383A, r24	; 0x80383a <playerTimer>
    1fec:	90 93 3b 38 	sts	0x383B, r25	; 0x80383b <playerTimer+0x1>
    1ff0:	6d e3       	ldi	r22, 0x3D	; 61
    1ff2:	7d e3       	ldi	r23, 0x3D	; 61
    1ff4:	8d ed       	ldi	r24, 0xDD	; 221
    1ff6:	98 eb       	ldi	r25, 0xB8	; 184
    1ff8:	df 91       	pop	r29
    1ffa:	cf 91       	pop	r28
    1ffc:	0c 94 f0 0e 	jmp	0x1de0	; 0x1de0 <drawText>
    2000:	df 91       	pop	r29
    2002:	cf 91       	pop	r28
    2004:	08 95       	ret

00002006 <enemies>:
    2006:	2f 92       	push	r2
    2008:	3f 92       	push	r3
    200a:	4f 92       	push	r4
    200c:	5f 92       	push	r5
    200e:	6f 92       	push	r6
    2010:	7f 92       	push	r7
    2012:	8f 92       	push	r8
    2014:	9f 92       	push	r9
    2016:	af 92       	push	r10
    2018:	bf 92       	push	r11
    201a:	cf 92       	push	r12
    201c:	df 92       	push	r13
    201e:	ef 92       	push	r14
    2020:	ff 92       	push	r15
    2022:	0f 93       	push	r16
    2024:	1f 93       	push	r17
    2026:	cf 93       	push	r28
    2028:	df 93       	push	r29
    202a:	c8 e7       	ldi	r28, 0x78	; 120
    202c:	dd e3       	ldi	r29, 0x3D	; 61
    202e:	f1 2c       	mov	r15, r1
    2030:	40 e8       	ldi	r20, 0x80	; 128
    2032:	84 2e       	mov	r8, r20
    2034:	99 24       	eor	r9, r9
    2036:	9a 94       	dec	r9
    2038:	10 e8       	ldi	r17, 0x80	; 128
    203a:	cc 24       	eor	r12, r12
    203c:	ca 94       	dec	r12
    203e:	ee 24       	eor	r14, r14
    2040:	e3 94       	inc	r14
    2042:	52 e9       	ldi	r21, 0x92	; 146
    2044:	25 2e       	mov	r2, r21
    2046:	54 e0       	ldi	r21, 0x04	; 4
    2048:	35 2e       	mov	r3, r21
    204a:	4c 81       	ldd	r20, Y+4	; 0x04
    204c:	40 38       	cpi	r20, 0x80	; 128
    204e:	09 f4       	brne	.+2      	; 0x2052 <enemies+0x4c>
    2050:	c7 c3       	rjmp	.+1934   	; 0x27e0 <enemies+0x7da>
    2052:	0e 81       	ldd	r16, Y+6	; 0x06
    2054:	29 85       	ldd	r18, Y+9	; 0x09
    2056:	6a 81       	ldd	r22, Y+2	; 0x02
    2058:	88 81       	ld	r24, Y
    205a:	99 81       	ldd	r25, Y+1	; 0x01
    205c:	0e 94 28 07 	call	0xe50	; 0xe50 <drawSprite>
    2060:	e8 81       	ld	r30, Y
    2062:	f9 81       	ldd	r31, Y+1	; 0x01
    2064:	d4 90       	lpm	r13, Z
    2066:	31 96       	adiw	r30, 0x01	; 1
    2068:	04 91       	lpm	r16, Z
    206a:	10 92 5e 3e 	sts	0x3E5E, r1	; 0x803e5e <xCollide>
    206e:	10 92 76 3d 	sts	0x3D76, r1	; 0x803d76 <yCollide>
    2072:	20 91 13 38 	lds	r18, 0x3813	; 0x803813 <bugX>
    2076:	30 e0       	ldi	r19, 0x00	; 0
    2078:	8a 81       	ldd	r24, Y+2	; 0x02
    207a:	9b 81       	ldd	r25, Y+3	; 0x03
    207c:	a9 01       	movw	r20, r18
    207e:	4d 5e       	subi	r20, 0xED	; 237
    2080:	5f 4f       	sbci	r21, 0xFF	; 255
    2082:	48 17       	cp	r20, r24
    2084:	59 07       	cpc	r21, r25
    2086:	6c f0       	brlt	.+26     	; 0x20a2 <enemies+0x9c>
    2088:	4d 2d       	mov	r20, r13
    208a:	0d 2c       	mov	r0, r13
    208c:	00 0c       	add	r0, r0
    208e:	55 0b       	sbc	r21, r21
    2090:	44 50       	subi	r20, 0x04	; 4
    2092:	51 09       	sbc	r21, r1
    2094:	84 0f       	add	r24, r20
    2096:	95 1f       	adc	r25, r21
    2098:	28 17       	cp	r18, r24
    209a:	39 07       	cpc	r19, r25
    209c:	14 f4       	brge	.+4      	; 0x20a2 <enemies+0x9c>
    209e:	e0 92 5e 3e 	sts	0x3E5E, r14	; 0x803e5e <xCollide>
    20a2:	20 91 12 38 	lds	r18, 0x3812	; 0x803812 <bugY>
    20a6:	30 e0       	ldi	r19, 0x00	; 0
    20a8:	8c 81       	ldd	r24, Y+4	; 0x04
    20aa:	08 2e       	mov	r0, r24
    20ac:	00 0c       	add	r0, r0
    20ae:	99 0b       	sbc	r25, r25
    20b0:	a9 01       	movw	r20, r18
    20b2:	49 5f       	subi	r20, 0xF9	; 249
    20b4:	5f 4f       	sbci	r21, 0xFF	; 255
    20b6:	48 17       	cp	r20, r24
    20b8:	59 07       	cpc	r21, r25
    20ba:	4c f0       	brlt	.+18     	; 0x20ce <enemies+0xc8>
    20bc:	80 0f       	add	r24, r16
    20be:	91 1d       	adc	r25, r1
    20c0:	07 fd       	sbrc	r16, 7
    20c2:	9a 95       	dec	r25
    20c4:	28 17       	cp	r18, r24
    20c6:	39 07       	cpc	r19, r25
    20c8:	14 f4       	brge	.+4      	; 0x20ce <enemies+0xc8>
    20ca:	e0 92 76 3d 	sts	0x3D76, r14	; 0x803d76 <yCollide>
    20ce:	33 e6       	ldi	r19, 0x63	; 99
    20d0:	a3 2e       	mov	r10, r19
    20d2:	3c e3       	ldi	r19, 0x3C	; 60
    20d4:	b3 2e       	mov	r11, r19
    20d6:	4d 2c       	mov	r4, r13
    20d8:	0d 2c       	mov	r0, r13
    20da:	00 0c       	add	r0, r0
    20dc:	55 08       	sbc	r5, r5
    20de:	60 2e       	mov	r6, r16
    20e0:	00 2e       	mov	r0, r16
    20e2:	00 0c       	add	r0, r0
    20e4:	77 08       	sbc	r7, r7
    20e6:	f5 01       	movw	r30, r10
    20e8:	42 81       	ldd	r20, Z+2	; 0x02
    20ea:	53 81       	ldd	r21, Z+3	; 0x03
    20ec:	40 38       	cpi	r20, 0x80	; 128
    20ee:	ff ef       	ldi	r31, 0xFF	; 255
    20f0:	5f 07       	cpc	r21, r31
    20f2:	09 f4       	brne	.+2      	; 0x20f6 <enemies+0xf0>
    20f4:	70 c0       	rjmp	.+224    	; 0x21d6 <enemies+0x1d0>
    20f6:	f5 01       	movw	r30, r10
    20f8:	20 81       	ld	r18, Z
    20fa:	31 81       	ldd	r19, Z+1	; 0x01
    20fc:	8a 81       	ldd	r24, Y+2	; 0x02
    20fe:	9b 81       	ldd	r25, Y+3	; 0x03
    2100:	b9 01       	movw	r22, r18
    2102:	69 5f       	subi	r22, 0xF9	; 249
    2104:	7f 4f       	sbci	r23, 0xFF	; 255
    2106:	68 17       	cp	r22, r24
    2108:	79 07       	cpc	r23, r25
    210a:	0c f4       	brge	.+2      	; 0x210e <enemies+0x108>
    210c:	64 c0       	rjmp	.+200    	; 0x21d6 <enemies+0x1d0>
    210e:	b2 01       	movw	r22, r4
    2110:	68 0f       	add	r22, r24
    2112:	79 1f       	adc	r23, r25
    2114:	26 17       	cp	r18, r22
    2116:	37 07       	cpc	r19, r23
    2118:	0c f0       	brlt	.+2      	; 0x211c <enemies+0x116>
    211a:	5d c0       	rjmp	.+186    	; 0x21d6 <enemies+0x1d0>
    211c:	6c 81       	ldd	r22, Y+4	; 0x04
    211e:	26 2f       	mov	r18, r22
    2120:	06 2e       	mov	r0, r22
    2122:	00 0c       	add	r0, r0
    2124:	33 0b       	sbc	r19, r19
    2126:	fa 01       	movw	r30, r20
    2128:	37 96       	adiw	r30, 0x07	; 7
    212a:	e2 17       	cp	r30, r18
    212c:	f3 07       	cpc	r31, r19
    212e:	0c f4       	brge	.+2      	; 0x2132 <enemies+0x12c>
    2130:	52 c0       	rjmp	.+164    	; 0x21d6 <enemies+0x1d0>
    2132:	26 0d       	add	r18, r6
    2134:	37 1d       	adc	r19, r7
    2136:	42 17       	cp	r20, r18
    2138:	53 07       	cpc	r21, r19
    213a:	0c f0       	brlt	.+2      	; 0x213e <enemies+0x138>
    213c:	4c c0       	rjmp	.+152    	; 0x21d6 <enemies+0x1d0>
    213e:	7d 81       	ldd	r23, Y+5	; 0x05
    2140:	70 33       	cpi	r23, 0x30	; 48
    2142:	09 f4       	brne	.+2      	; 0x2146 <enemies+0x140>
    2144:	48 c0       	rjmp	.+144    	; 0x21d6 <enemies+0x1d0>
    2146:	70 3a       	cpi	r23, 0xA0	; 160
    2148:	61 f4       	brne	.+24     	; 0x2162 <enemies+0x15c>
    214a:	8f 2d       	mov	r24, r15
    214c:	0e 94 b3 0f 	call	0x1f66	; 0x1f66 <damageBoss>
    2150:	6c 81       	ldd	r22, Y+4	; 0x04
    2152:	68 5f       	subi	r22, 0xF8	; 248
    2154:	8a 81       	ldd	r24, Y+2	; 0x02
    2156:	9b 81       	ldd	r25, Y+3	; 0x03
    2158:	45 e0       	ldi	r20, 0x05	; 5
    215a:	08 96       	adiw	r24, 0x08	; 8
    215c:	0e 94 15 0a 	call	0x142a	; 0x142a <spawnExplosion>
    2160:	37 c0       	rjmp	.+110    	; 0x21d0 <enemies+0x1ca>
    2162:	70 77       	andi	r23, 0x70	; 112
    2164:	20 91 2e 38 	lds	r18, 0x382E	; 0x80382e <score>
    2168:	30 91 2f 38 	lds	r19, 0x382F	; 0x80382f <score+0x1>
    216c:	40 91 30 38 	lds	r20, 0x3830	; 0x803830 <score+0x2>
    2170:	50 91 31 38 	lds	r21, 0x3831	; 0x803831 <score+0x3>
    2174:	77 23       	and	r23, r23
    2176:	a9 f0       	breq	.+42     	; 0x21a2 <enemies+0x19c>
    2178:	70 91 61 3c 	lds	r23, 0x3C61	; 0x803c61 <skyEnemies>
    217c:	71 50       	subi	r23, 0x01	; 1
    217e:	70 93 61 3c 	sts	0x3C61, r23	; 0x803c61 <skyEnemies>
    2182:	28 51       	subi	r18, 0x18	; 24
    2184:	3c 4f       	sbci	r19, 0xFC	; 252
    2186:	4f 4f       	sbci	r20, 0xFF	; 255
    2188:	5f 4f       	sbci	r21, 0xFF	; 255
    218a:	20 93 2e 38 	sts	0x382E, r18	; 0x80382e <score>
    218e:	30 93 2f 38 	sts	0x382F, r19	; 0x80382f <score+0x1>
    2192:	40 93 30 38 	sts	0x3830, r20	; 0x803830 <score+0x2>
    2196:	50 93 31 38 	sts	0x3831, r21	; 0x803831 <score+0x3>
    219a:	46 e0       	ldi	r20, 0x06	; 6
    219c:	0e 94 15 0a 	call	0x142a	; 0x142a <spawnExplosion>
    21a0:	0d c0       	rjmp	.+26     	; 0x21bc <enemies+0x1b6>
    21a2:	da 01       	movw	r26, r20
    21a4:	c9 01       	movw	r24, r18
    21a6:	0a 96       	adiw	r24, 0x0a	; 10
    21a8:	a1 1d       	adc	r26, r1
    21aa:	b1 1d       	adc	r27, r1
    21ac:	80 93 2e 38 	sts	0x382E, r24	; 0x80382e <score>
    21b0:	90 93 2f 38 	sts	0x382F, r25	; 0x80382f <score+0x1>
    21b4:	a0 93 30 38 	sts	0x3830, r26	; 0x803830 <score+0x2>
    21b8:	b0 93 31 38 	sts	0x3831, r27	; 0x803831 <score+0x3>
    21bc:	1c 83       	std	Y+4, r17	; 0x04
    21be:	2f ef       	ldi	r18, 0xFF	; 255
    21c0:	3f ef       	ldi	r19, 0xFF	; 255
    21c2:	4a e0       	ldi	r20, 0x0A	; 10
    21c4:	6c e2       	ldi	r22, 0x2C	; 44
    21c6:	71 e0       	ldi	r23, 0x01	; 1
    21c8:	8c eb       	ldi	r24, 0xBC	; 188
    21ca:	92 e0       	ldi	r25, 0x02	; 2
    21cc:	0e 94 e7 05 	call	0xbce	; 0xbce <tone>
    21d0:	f5 01       	movw	r30, r10
    21d2:	82 82       	std	Z+2, r8	; 0x02
    21d4:	93 82       	std	Z+3, r9	; 0x03
    21d6:	f4 e0       	ldi	r31, 0x04	; 4
    21d8:	af 0e       	add	r10, r31
    21da:	b1 1c       	adc	r11, r1
    21dc:	2b e6       	ldi	r18, 0x6B	; 107
    21de:	a2 16       	cp	r10, r18
    21e0:	2c e3       	ldi	r18, 0x3C	; 60
    21e2:	b2 06       	cpc	r11, r18
    21e4:	09 f0       	breq	.+2      	; 0x21e8 <enemies+0x1e2>
    21e6:	7f cf       	rjmp	.-258    	; 0x20e6 <enemies+0xe0>
    21e8:	80 91 06 38 	lds	r24, 0x3806	; 0x803806 <blasterX>
    21ec:	80 38       	cpi	r24, 0x80	; 128
    21ee:	41 f1       	breq	.+80     	; 0x2240 <enemies+0x23a>
    21f0:	08 2e       	mov	r0, r24
    21f2:	00 0c       	add	r0, r0
    21f4:	99 0b       	sbc	r25, r25
    21f6:	2a 81       	ldd	r18, Y+2	; 0x02
    21f8:	3b 81       	ldd	r19, Y+3	; 0x03
    21fa:	ac 01       	movw	r20, r24
    21fc:	41 5f       	subi	r20, 0xF1	; 241
    21fe:	5f 4f       	sbci	r21, 0xFF	; 255
    2200:	42 17       	cp	r20, r18
    2202:	53 07       	cpc	r21, r19
    2204:	ec f0       	brlt	.+58     	; 0x2240 <enemies+0x23a>
    2206:	2d 0d       	add	r18, r13
    2208:	31 1d       	adc	r19, r1
    220a:	d7 fc       	sbrc	r13, 7
    220c:	3a 95       	dec	r19
    220e:	82 17       	cp	r24, r18
    2210:	93 07       	cpc	r25, r19
    2212:	b4 f4       	brge	.+44     	; 0x2240 <enemies+0x23a>
    2214:	20 91 29 38 	lds	r18, 0x3829	; 0x803829 <blasterY>
    2218:	30 e0       	ldi	r19, 0x00	; 0
    221a:	8c 81       	ldd	r24, Y+4	; 0x04
    221c:	08 2e       	mov	r0, r24
    221e:	00 0c       	add	r0, r0
    2220:	99 0b       	sbc	r25, r25
    2222:	a9 01       	movw	r20, r18
    2224:	49 5f       	subi	r20, 0xF9	; 249
    2226:	5f 4f       	sbci	r21, 0xFF	; 255
    2228:	48 17       	cp	r20, r24
    222a:	59 07       	cpc	r21, r25
    222c:	4c f0       	brlt	.+18     	; 0x2240 <enemies+0x23a>
    222e:	80 0f       	add	r24, r16
    2230:	91 1d       	adc	r25, r1
    2232:	07 fd       	sbrc	r16, 7
    2234:	9a 95       	dec	r25
    2236:	bb 24       	eor	r11, r11
    2238:	b3 94       	inc	r11
    223a:	28 17       	cp	r18, r24
    223c:	39 07       	cpc	r19, r25
    223e:	0c f0       	brlt	.+2      	; 0x2242 <enemies+0x23c>
    2240:	b1 2c       	mov	r11, r1
    2242:	8b 85       	ldd	r24, Y+11	; 0x0b
    2244:	88 23       	and	r24, r24
    2246:	89 f0       	breq	.+34     	; 0x226a <enemies+0x264>
    2248:	80 91 0b 38 	lds	r24, 0x380B	; 0x80380b <speed>
    224c:	2a 81       	ldd	r18, Y+2	; 0x02
    224e:	3b 81       	ldd	r19, Y+3	; 0x03
    2250:	28 1b       	sub	r18, r24
    2252:	31 09       	sbc	r19, r1
    2254:	2a 83       	std	Y+2, r18	; 0x02
    2256:	3b 83       	std	Y+3, r19	; 0x03
    2258:	4d 2d       	mov	r20, r13
    225a:	55 27       	eor	r21, r21
    225c:	41 95       	neg	r20
    225e:	0c f4       	brge	.+2      	; 0x2262 <enemies+0x25c>
    2260:	50 95       	com	r21
    2262:	24 17       	cp	r18, r20
    2264:	35 07       	cpc	r19, r21
    2266:	0c f4       	brge	.+2      	; 0x226a <enemies+0x264>
    2268:	1c 83       	std	Y+4, r17	; 0x04
    226a:	6c 81       	ldd	r22, Y+4	; 0x04
    226c:	60 38       	cpi	r22, 0x80	; 128
    226e:	09 f4       	brne	.+2      	; 0x2272 <enemies+0x26c>
    2270:	b7 c2       	rjmp	.+1390   	; 0x27e0 <enemies+0x7da>
    2272:	0d 81       	ldd	r16, Y+5	; 0x05
    2274:	00 31       	cpi	r16, 0x10	; 16
    2276:	09 f4       	brne	.+2      	; 0x227a <enemies+0x274>
    2278:	bf c0       	rjmp	.+382    	; 0x23f8 <enemies+0x3f2>
    227a:	80 f4       	brcc	.+32     	; 0x229c <enemies+0x296>
    227c:	02 30       	cpi	r16, 0x02	; 2
    227e:	09 f4       	brne	.+2      	; 0x2282 <enemies+0x27c>
    2280:	55 c0       	rjmp	.+170    	; 0x232c <enemies+0x326>
    2282:	18 f4       	brcc	.+6      	; 0x228a <enemies+0x284>
    2284:	01 30       	cpi	r16, 0x01	; 1
    2286:	69 f1       	breq	.+90     	; 0x22e2 <enemies+0x2dc>
    2288:	ab c2       	rjmp	.+1366   	; 0x27e0 <enemies+0x7da>
    228a:	04 30       	cpi	r16, 0x04	; 4
    228c:	09 f4       	brne	.+2      	; 0x2290 <enemies+0x28a>
    228e:	7d c0       	rjmp	.+250    	; 0x238a <enemies+0x384>
    2290:	08 30       	cpi	r16, 0x08	; 8
    2292:	09 f0       	breq	.+2      	; 0x2296 <enemies+0x290>
    2294:	a5 c2       	rjmp	.+1354   	; 0x27e0 <enemies+0x7da>
    2296:	48 e5       	ldi	r20, 0x58	; 88
    2298:	52 e0       	ldi	r21, 0x02	; 2
    229a:	79 c0       	rjmp	.+242    	; 0x238e <enemies+0x388>
    229c:	00 38       	cpi	r16, 0x80	; 128
    229e:	09 f4       	brne	.+2      	; 0x22a2 <enemies+0x29c>
    22a0:	78 c0       	rjmp	.+240    	; 0x2392 <enemies+0x38c>
    22a2:	30 f4       	brcc	.+12     	; 0x22b0 <enemies+0x2aa>
    22a4:	00 32       	cpi	r16, 0x20	; 32
    22a6:	09 f4       	brne	.+2      	; 0x22aa <enemies+0x2a4>
    22a8:	ee c0       	rjmp	.+476    	; 0x2486 <enemies+0x480>
    22aa:	00 33       	cpi	r16, 0x30	; 48
    22ac:	41 f0       	breq	.+16     	; 0x22be <enemies+0x2b8>
    22ae:	98 c2       	rjmp	.+1328   	; 0x27e0 <enemies+0x7da>
    22b0:	00 39       	cpi	r16, 0x90	; 144
    22b2:	09 f4       	brne	.+2      	; 0x22b6 <enemies+0x2b0>
    22b4:	79 c0       	rjmp	.+242    	; 0x23a8 <enemies+0x3a2>
    22b6:	00 3a       	cpi	r16, 0xA0	; 160
    22b8:	09 f4       	brne	.+2      	; 0x22bc <enemies+0x2b6>
    22ba:	46 c1       	rjmp	.+652    	; 0x2548 <enemies+0x542>
    22bc:	91 c2       	rjmp	.+1314   	; 0x27e0 <enemies+0x7da>
    22be:	8c 85       	ldd	r24, Y+12	; 0x0c
    22c0:	9d 85       	ldd	r25, Y+13	; 0x0d
    22c2:	01 97       	sbiw	r24, 0x01	; 1
    22c4:	8c 87       	std	Y+12, r24	; 0x0c
    22c6:	9d 87       	std	Y+13, r25	; 0x0d
    22c8:	89 2b       	or	r24, r25
    22ca:	09 f0       	breq	.+2      	; 0x22ce <enemies+0x2c8>
    22cc:	89 c2       	rjmp	.+1298   	; 0x27e0 <enemies+0x7da>
    22ce:	89 85       	ldd	r24, Y+9	; 0x09
    22d0:	8f 5f       	subi	r24, 0xFF	; 255
    22d2:	89 87       	std	Y+9, r24	; 0x09
    22d4:	83 30       	cpi	r24, 0x03	; 3
    22d6:	11 f4       	brne	.+4      	; 0x22dc <enemies+0x2d6>
    22d8:	1c 83       	std	Y+4, r17	; 0x04
    22da:	82 c2       	rjmp	.+1284   	; 0x27e0 <enemies+0x7da>
    22dc:	86 e0       	ldi	r24, 0x06	; 6
    22de:	90 e0       	ldi	r25, 0x00	; 0
    22e0:	cf c0       	rjmp	.+414    	; 0x2480 <enemies+0x47a>
    22e2:	bb 20       	and	r11, r11
    22e4:	01 f1       	breq	.+64     	; 0x2326 <enemies+0x320>
    22e6:	1c 83       	std	Y+4, r17	; 0x04
    22e8:	10 93 06 38 	sts	0x3806, r17	; 0x803806 <blasterX>
    22ec:	2a e0       	ldi	r18, 0x0A	; 10
    22ee:	30 e0       	ldi	r19, 0x00	; 0
    22f0:	4a e0       	ldi	r20, 0x0A	; 10
    22f2:	68 ec       	ldi	r22, 0xC8	; 200
    22f4:	70 e0       	ldi	r23, 0x00	; 0
    22f6:	8c ed       	ldi	r24, 0xDC	; 220
    22f8:	95 e0       	ldi	r25, 0x05	; 5
    22fa:	0e 94 e7 05 	call	0xbce	; 0xbce <tone>
    22fe:	80 91 2e 38 	lds	r24, 0x382E	; 0x80382e <score>
    2302:	90 91 2f 38 	lds	r25, 0x382F	; 0x80382f <score+0x1>
    2306:	a0 91 30 38 	lds	r26, 0x3830	; 0x803830 <score+0x2>
    230a:	b0 91 31 38 	lds	r27, 0x3831	; 0x803831 <score+0x3>
    230e:	8c 59       	subi	r24, 0x9C	; 156
    2310:	9f 4f       	sbci	r25, 0xFF	; 255
    2312:	af 4f       	sbci	r26, 0xFF	; 255
    2314:	bf 4f       	sbci	r27, 0xFF	; 255
    2316:	80 93 2e 38 	sts	0x382E, r24	; 0x80382e <score>
    231a:	90 93 2f 38 	sts	0x382F, r25	; 0x80382f <score+0x1>
    231e:	a0 93 30 38 	sts	0x3830, r26	; 0x803830 <score+0x2>
    2322:	b0 93 31 38 	sts	0x3831, r27	; 0x803831 <score+0x3>
    2326:	44 ef       	ldi	r20, 0xF4	; 244
    2328:	51 e0       	ldi	r21, 0x01	; 1
    232a:	2a c0       	rjmp	.+84     	; 0x2380 <enemies+0x37a>
    232c:	bb 20       	and	r11, r11
    232e:	31 f1       	breq	.+76     	; 0x237c <enemies+0x376>
    2330:	28 82       	st	Y, r2
    2332:	39 82       	std	Y+1, r3	; 0x01
    2334:	ed 82       	std	Y+5, r14	; 0x05
    2336:	8a 81       	ldd	r24, Y+2	; 0x02
    2338:	9b 81       	ldd	r25, Y+3	; 0x03
    233a:	08 96       	adiw	r24, 0x08	; 8
    233c:	8a 83       	std	Y+2, r24	; 0x02
    233e:	9b 83       	std	Y+3, r25	; 0x03
    2340:	10 93 06 38 	sts	0x3806, r17	; 0x803806 <blasterX>
    2344:	23 e0       	ldi	r18, 0x03	; 3
    2346:	30 e0       	ldi	r19, 0x00	; 0
    2348:	4a e0       	ldi	r20, 0x0A	; 10
    234a:	64 e6       	ldi	r22, 0x64	; 100
    234c:	70 e0       	ldi	r23, 0x00	; 0
    234e:	80 e9       	ldi	r24, 0x90	; 144
    2350:	91 e0       	ldi	r25, 0x01	; 1
    2352:	0e 94 e7 05 	call	0xbce	; 0xbce <tone>
    2356:	80 91 2e 38 	lds	r24, 0x382E	; 0x80382e <score>
    235a:	90 91 2f 38 	lds	r25, 0x382F	; 0x80382f <score+0x1>
    235e:	a0 91 30 38 	lds	r26, 0x3830	; 0x803830 <score+0x2>
    2362:	b0 91 31 38 	lds	r27, 0x3831	; 0x803831 <score+0x3>
    2366:	c2 96       	adiw	r24, 0x32	; 50
    2368:	a1 1d       	adc	r26, r1
    236a:	b1 1d       	adc	r27, r1
    236c:	80 93 2e 38 	sts	0x382E, r24	; 0x80382e <score>
    2370:	90 93 2f 38 	sts	0x382F, r25	; 0x80382f <score+0x1>
    2374:	a0 93 30 38 	sts	0x3830, r26	; 0x803830 <score+0x2>
    2378:	b0 93 31 38 	sts	0x3831, r27	; 0x803831 <score+0x3>
    237c:	48 ee       	ldi	r20, 0xE8	; 232
    237e:	53 e0       	ldi	r21, 0x03	; 3
    2380:	6c e2       	ldi	r22, 0x2C	; 44
    2382:	8f 2d       	mov	r24, r15
    2384:	0e 94 02 0b 	call	0x1604	; 0x1604 <checkObstacle>
    2388:	2b c2       	rjmp	.+1110   	; 0x27e0 <enemies+0x7da>
    238a:	4c e2       	ldi	r20, 0x2C	; 44
    238c:	51 e0       	ldi	r21, 0x01	; 1
    238e:	62 e3       	ldi	r22, 0x32	; 50
    2390:	f8 cf       	rjmp	.-16     	; 0x2382 <enemies+0x37c>
    2392:	8f 2d       	mov	r24, r15
    2394:	0e 94 e8 0a 	call	0x15d0	; 0x15d0 <checkHitPlayer>
    2398:	8c 81       	ldd	r24, Y+4	; 0x04
    239a:	8f 5f       	subi	r24, 0xFF	; 255
    239c:	85 33       	cpi	r24, 0x35	; 53
    239e:	14 f4       	brge	.+4      	; 0x23a4 <enemies+0x39e>
    23a0:	8c 83       	std	Y+4, r24	; 0x04
    23a2:	1a c0       	rjmp	.+52     	; 0x23d8 <enemies+0x3d2>
    23a4:	0c 83       	std	Y+4, r16	; 0x04
    23a6:	18 c0       	rjmp	.+48     	; 0x23d8 <enemies+0x3d2>
    23a8:	8f 2d       	mov	r24, r15
    23aa:	0e 94 e8 0a 	call	0x15d0	; 0x15d0 <checkHitPlayer>
    23ae:	8c 81       	ldd	r24, Y+4	; 0x04
    23b0:	8f 5f       	subi	r24, 0xFF	; 255
    23b2:	8c 83       	std	Y+4, r24	; 0x04
    23b4:	85 33       	cpi	r24, 0x35	; 53
    23b6:	84 f0       	brlt	.+32     	; 0x23d8 <enemies+0x3d2>
    23b8:	21 e0       	ldi	r18, 0x01	; 1
    23ba:	30 e0       	ldi	r19, 0x00	; 0
    23bc:	48 e0       	ldi	r20, 0x08	; 8
    23be:	6c e2       	ldi	r22, 0x2C	; 44
    23c0:	71 e0       	ldi	r23, 0x01	; 1
    23c2:	80 ed       	ldi	r24, 0xD0	; 208
    23c4:	97 e0       	ldi	r25, 0x07	; 7
    23c6:	0e 94 e7 05 	call	0xbce	; 0xbce <tone>
    23ca:	1c 83       	std	Y+4, r17	; 0x04
    23cc:	8a 81       	ldd	r24, Y+2	; 0x02
    23ce:	9b 81       	ldd	r25, Y+3	; 0x03
    23d0:	64 e0       	ldi	r22, 0x04	; 4
    23d2:	08 97       	sbiw	r24, 0x08	; 8
    23d4:	0e 94 28 09 	call	0x1250	; 0x1250 <spawnObstacle>
    23d8:	bb 20       	and	r11, r11
    23da:	09 f4       	brne	.+2      	; 0x23de <enemies+0x3d8>
    23dc:	01 c2       	rjmp	.+1026   	; 0x27e0 <enemies+0x7da>
    23de:	1c 83       	std	Y+4, r17	; 0x04
    23e0:	10 93 06 38 	sts	0x3806, r17	; 0x803806 <blasterX>
    23e4:	2f ef       	ldi	r18, 0xFF	; 255
    23e6:	3f ef       	ldi	r19, 0xFF	; 255
    23e8:	49 e0       	ldi	r20, 0x09	; 9
    23ea:	6c e2       	ldi	r22, 0x2C	; 44
    23ec:	71 e0       	ldi	r23, 0x01	; 1
    23ee:	8c eb       	ldi	r24, 0xBC	; 188
    23f0:	92 e0       	ldi	r25, 0x02	; 2
    23f2:	0e 94 e7 05 	call	0xbce	; 0xbce <tone>
    23f6:	f4 c1       	rjmp	.+1000   	; 0x27e0 <enemies+0x7da>
    23f8:	80 91 3f 38 	lds	r24, 0x383F	; 0x80383f <frameCounter>
    23fc:	83 ff       	sbrs	r24, 3
    23fe:	02 c0       	rjmp	.+4      	; 0x2404 <enemies+0x3fe>
    2400:	ee 82       	std	Y+6, r14	; 0x06
    2402:	01 c0       	rjmp	.+2      	; 0x2406 <enemies+0x400>
    2404:	ce 82       	std	Y+6, r12	; 0x06
    2406:	2f 81       	ldd	r18, Y+7	; 0x07
    2408:	8a 81       	ldd	r24, Y+2	; 0x02
    240a:	9b 81       	ldd	r25, Y+3	; 0x03
    240c:	82 0f       	add	r24, r18
    240e:	91 1d       	adc	r25, r1
    2410:	27 fd       	sbrc	r18, 7
    2412:	9a 95       	dec	r25
    2414:	8a 83       	std	Y+2, r24	; 0x02
    2416:	9b 83       	std	Y+3, r25	; 0x03
    2418:	18 16       	cp	r1, r24
    241a:	19 06       	cpc	r1, r25
    241c:	14 f0       	brlt	.+4      	; 0x2422 <enemies+0x41c>
    241e:	ef 82       	std	Y+7, r14	; 0x07
    2420:	04 c0       	rjmp	.+8      	; 0x242a <enemies+0x424>
    2422:	80 37       	cpi	r24, 0x70	; 112
    2424:	91 05       	cpc	r25, r1
    2426:	0c f0       	brlt	.+2      	; 0x242a <enemies+0x424>
    2428:	cf 82       	std	Y+7, r12	; 0x07
    242a:	20 91 13 38 	lds	r18, 0x3813	; 0x803813 <bugX>
    242e:	30 e0       	ldi	r19, 0x00	; 0
    2430:	a9 01       	movw	r20, r18
    2432:	4c 5f       	subi	r20, 0xFC	; 252
    2434:	5f 4f       	sbci	r21, 0xFF	; 255
    2436:	48 17       	cp	r20, r24
    2438:	59 07       	cpc	r21, r25
    243a:	e4 f4       	brge	.+56     	; 0x2474 <enemies+0x46e>
    243c:	29 5f       	subi	r18, 0xF9	; 249
    243e:	3f 4f       	sbci	r19, 0xFF	; 255
    2440:	28 17       	cp	r18, r24
    2442:	39 07       	cpc	r19, r25
    2444:	bc f0       	brlt	.+46     	; 0x2474 <enemies+0x46e>
    2446:	2c 85       	ldd	r18, Y+12	; 0x0c
    2448:	3d 85       	ldd	r19, Y+13	; 0x0d
    244a:	23 2b       	or	r18, r19
    244c:	99 f4       	brne	.+38     	; 0x2474 <enemies+0x46e>
    244e:	20 91 14 38 	lds	r18, 0x3814	; 0x803814 <attackSpeed>
    2452:	30 e0       	ldi	r19, 0x00	; 0
    2454:	2c 87       	std	Y+12, r18	; 0x0c
    2456:	3d 87       	std	Y+13, r19	; 0x0d
    2458:	68 5f       	subi	r22, 0xF8	; 248
    245a:	40 e8       	ldi	r20, 0x80	; 128
    245c:	8c 5f       	subi	r24, 0xFC	; 252
    245e:	0e 94 7e 09 	call	0x12fc	; 0x12fc <spawnShot>
    2462:	2f ef       	ldi	r18, 0xFF	; 255
    2464:	3f ef       	ldi	r19, 0xFF	; 255
    2466:	4a e0       	ldi	r20, 0x0A	; 10
    2468:	64 e6       	ldi	r22, 0x64	; 100
    246a:	70 e0       	ldi	r23, 0x00	; 0
    246c:	80 e9       	ldi	r24, 0x90	; 144
    246e:	91 e0       	ldi	r25, 0x01	; 1
    2470:	0e 94 e7 05 	call	0xbce	; 0xbce <tone>
    2474:	8c 85       	ldd	r24, Y+12	; 0x0c
    2476:	9d 85       	ldd	r25, Y+13	; 0x0d
    2478:	00 97       	sbiw	r24, 0x00	; 0
    247a:	09 f4       	brne	.+2      	; 0x247e <enemies+0x478>
    247c:	b1 c1       	rjmp	.+866    	; 0x27e0 <enemies+0x7da>
    247e:	01 97       	sbiw	r24, 0x01	; 1
    2480:	8c 87       	std	Y+12, r24	; 0x0c
    2482:	9d 87       	std	Y+13, r25	; 0x0d
    2484:	ad c1       	rjmp	.+858    	; 0x27e0 <enemies+0x7da>
    2486:	80 91 3f 38 	lds	r24, 0x383F	; 0x80383f <frameCounter>
    248a:	83 ff       	sbrs	r24, 3
    248c:	02 c0       	rjmp	.+4      	; 0x2492 <enemies+0x48c>
    248e:	ee 82       	std	Y+6, r14	; 0x06
    2490:	01 c0       	rjmp	.+2      	; 0x2494 <enemies+0x48e>
    2492:	ce 82       	std	Y+6, r12	; 0x06
    2494:	2f 81       	ldd	r18, Y+7	; 0x07
    2496:	8a 81       	ldd	r24, Y+2	; 0x02
    2498:	9b 81       	ldd	r25, Y+3	; 0x03
    249a:	82 0f       	add	r24, r18
    249c:	91 1d       	adc	r25, r1
    249e:	27 fd       	sbrc	r18, 7
    24a0:	9a 95       	dec	r25
    24a2:	8a 83       	std	Y+2, r24	; 0x02
    24a4:	9b 83       	std	Y+3, r25	; 0x03
    24a6:	18 16       	cp	r1, r24
    24a8:	19 06       	cpc	r1, r25
    24aa:	14 f0       	brlt	.+4      	; 0x24b0 <enemies+0x4aa>
    24ac:	ef 82       	std	Y+7, r14	; 0x07
    24ae:	04 c0       	rjmp	.+8      	; 0x24b8 <enemies+0x4b2>
    24b0:	80 37       	cpi	r24, 0x70	; 112
    24b2:	91 05       	cpc	r25, r1
    24b4:	0c f0       	brlt	.+2      	; 0x24b8 <enemies+0x4b2>
    24b6:	cf 82       	std	Y+7, r12	; 0x07
    24b8:	2c 85       	ldd	r18, Y+12	; 0x0c
    24ba:	3d 85       	ldd	r19, Y+13	; 0x0d
    24bc:	23 2b       	or	r18, r19
    24be:	09 f5       	brne	.+66     	; 0x2502 <enemies+0x4fc>
    24c0:	40 91 13 38 	lds	r20, 0x3813	; 0x803813 <bugX>
    24c4:	24 2f       	mov	r18, r20
    24c6:	30 e0       	ldi	r19, 0x00	; 0
    24c8:	47 35       	cpi	r20, 0x57	; 87
    24ca:	18 f0       	brcs	.+6      	; 0x24d2 <enemies+0x4cc>
    24cc:	2c 5f       	subi	r18, 0xFC	; 252
    24ce:	3f 4f       	sbci	r19, 0xFF	; 255
    24d0:	02 c0       	rjmp	.+4      	; 0x24d6 <enemies+0x4d0>
    24d2:	28 5d       	subi	r18, 0xD8	; 216
    24d4:	3f 4f       	sbci	r19, 0xFF	; 255
    24d6:	82 17       	cp	r24, r18
    24d8:	93 07       	cpc	r25, r19
    24da:	99 f4       	brne	.+38     	; 0x2502 <enemies+0x4fc>
    24dc:	20 91 14 38 	lds	r18, 0x3814	; 0x803814 <attackSpeed>
    24e0:	30 e0       	ldi	r19, 0x00	; 0
    24e2:	2c 87       	std	Y+12, r18	; 0x0c
    24e4:	3d 87       	std	Y+13, r19	; 0x0d
    24e6:	68 5f       	subi	r22, 0xF8	; 248
    24e8:	40 e9       	ldi	r20, 0x90	; 144
    24ea:	8c 5f       	subi	r24, 0xFC	; 252
    24ec:	0e 94 7e 09 	call	0x12fc	; 0x12fc <spawnShot>
    24f0:	2f ef       	ldi	r18, 0xFF	; 255
    24f2:	3f ef       	ldi	r19, 0xFF	; 255
    24f4:	4a e0       	ldi	r20, 0x0A	; 10
    24f6:	64 e6       	ldi	r22, 0x64	; 100
    24f8:	70 e0       	ldi	r23, 0x00	; 0
    24fa:	88 e5       	ldi	r24, 0x58	; 88
    24fc:	92 e0       	ldi	r25, 0x02	; 2
    24fe:	0e 94 e7 05 	call	0xbce	; 0xbce <tone>
    2502:	8a 81       	ldd	r24, Y+2	; 0x02
    2504:	9b 81       	ldd	r25, Y+3	; 0x03
    2506:	20 91 13 38 	lds	r18, 0x3813	; 0x803813 <bugX>
    250a:	30 e0       	ldi	r19, 0x00	; 0
    250c:	28 5d       	subi	r18, 0xD8	; 216
    250e:	3f 4f       	sbci	r19, 0xFF	; 255
    2510:	82 17       	cp	r24, r18
    2512:	93 07       	cpc	r25, r19
    2514:	09 f0       	breq	.+2      	; 0x2518 <enemies+0x512>
    2516:	ae cf       	rjmp	.-164    	; 0x2474 <enemies+0x46e>
    2518:	2c 85       	ldd	r18, Y+12	; 0x0c
    251a:	3d 85       	ldd	r19, Y+13	; 0x0d
    251c:	23 2b       	or	r18, r19
    251e:	09 f0       	breq	.+2      	; 0x2522 <enemies+0x51c>
    2520:	a9 cf       	rjmp	.-174    	; 0x2474 <enemies+0x46e>
    2522:	20 91 14 38 	lds	r18, 0x3814	; 0x803814 <attackSpeed>
    2526:	30 e0       	ldi	r19, 0x00	; 0
    2528:	2c 87       	std	Y+12, r18	; 0x0c
    252a:	3d 87       	std	Y+13, r19	; 0x0d
    252c:	6c 81       	ldd	r22, Y+4	; 0x04
    252e:	68 5f       	subi	r22, 0xF8	; 248
    2530:	40 e9       	ldi	r20, 0x90	; 144
    2532:	8c 5f       	subi	r24, 0xFC	; 252
    2534:	0e 94 7e 09 	call	0x12fc	; 0x12fc <spawnShot>
    2538:	2f ef       	ldi	r18, 0xFF	; 255
    253a:	3f ef       	ldi	r19, 0xFF	; 255
    253c:	4a e0       	ldi	r20, 0x0A	; 10
    253e:	64 e6       	ldi	r22, 0x64	; 100
    2540:	70 e0       	ldi	r23, 0x00	; 0
    2542:	88 e5       	ldi	r24, 0x58	; 88
    2544:	92 e0       	ldi	r25, 0x02	; 2
    2546:	94 cf       	rjmp	.-216    	; 0x2470 <enemies+0x46a>
    2548:	80 91 28 38 	lds	r24, 0x3828	; 0x803828 <spinSpeed.3922>
    254c:	28 2f       	mov	r18, r24
    254e:	30 e0       	ldi	r19, 0x00	; 0
    2550:	80 91 3f 38 	lds	r24, 0x383F	; 0x80383f <frameCounter>
    2554:	90 91 40 38 	lds	r25, 0x3840	; 0x803840 <frameCounter+0x1>
    2558:	82 23       	and	r24, r18
    255a:	93 23       	and	r25, r19
    255c:	89 2b       	or	r24, r25
    255e:	11 f0       	breq	.+4      	; 0x2564 <enemies+0x55e>
    2560:	ee 82       	std	Y+6, r14	; 0x06
    2562:	01 c0       	rjmp	.+2      	; 0x2566 <enemies+0x560>
    2564:	ce 82       	std	Y+6, r12	; 0x06
    2566:	bb 20       	and	r11, r11
    2568:	59 f0       	breq	.+22     	; 0x2580 <enemies+0x57a>
    256a:	10 93 06 38 	sts	0x3806, r17	; 0x803806 <blasterX>
    256e:	8f 2d       	mov	r24, r15
    2570:	0e 94 b3 0f 	call	0x1f66	; 0x1f66 <damageBoss>
    2574:	45 e0       	ldi	r20, 0x05	; 5
    2576:	6c 81       	ldd	r22, Y+4	; 0x04
    2578:	8a 81       	ldd	r24, Y+2	; 0x02
    257a:	9b 81       	ldd	r25, Y+3	; 0x03
    257c:	0e 94 15 0a 	call	0x142a	; 0x142a <spawnExplosion>
    2580:	8c 81       	ldd	r24, Y+4	; 0x04
    2582:	80 38       	cpi	r24, 0x80	; 128
    2584:	09 f4       	brne	.+2      	; 0x2588 <enemies+0x582>
    2586:	2c c1       	rjmp	.+600    	; 0x27e0 <enemies+0x7da>
    2588:	80 91 5e 3e 	lds	r24, 0x3E5E	; 0x803e5e <xCollide>
    258c:	88 23       	and	r24, r24
    258e:	51 f0       	breq	.+20     	; 0x25a4 <enemies+0x59e>
    2590:	80 91 76 3d 	lds	r24, 0x3D76	; 0x803d76 <yCollide>
    2594:	88 23       	and	r24, r24
    2596:	31 f0       	breq	.+12     	; 0x25a4 <enemies+0x59e>
    2598:	80 91 3c 38 	lds	r24, 0x383C	; 0x80383c <playerState>
    259c:	87 70       	andi	r24, 0x07	; 7
    259e:	11 f0       	breq	.+4      	; 0x25a4 <enemies+0x59e>
    25a0:	0e 94 da 0a 	call	0x15b4	; 0x15b4 <killPlayer>
    25a4:	e8 85       	ldd	r30, Y+8	; 0x08
    25a6:	8e 2f       	mov	r24, r30
    25a8:	90 e0       	ldi	r25, 0x00	; 0
    25aa:	fc 01       	movw	r30, r24
    25ac:	31 97       	sbiw	r30, 0x01	; 1
    25ae:	e8 30       	cpi	r30, 0x08	; 8
    25b0:	f1 05       	cpc	r31, r1
    25b2:	08 f0       	brcs	.+2      	; 0x25b6 <enemies+0x5b0>
    25b4:	15 c1       	rjmp	.+554    	; 0x27e0 <enemies+0x7da>
    25b6:	e2 5c       	subi	r30, 0xC2	; 194
    25b8:	ff 4f       	sbci	r31, 0xFF	; 255
    25ba:	0c 94 2a 1c 	jmp	0x3854	; 0x3854 <__tablejump2__>
    25be:	88 e0       	ldi	r24, 0x08	; 8
    25c0:	80 93 28 38 	sts	0x3828, r24	; 0x803828 <spinSpeed.3922>
    25c4:	80 91 3f 38 	lds	r24, 0x383F	; 0x80383f <frameCounter>
    25c8:	80 ff       	sbrs	r24, 0
    25ca:	0a c1       	rjmp	.+532    	; 0x27e0 <enemies+0x7da>
    25cc:	8c 81       	ldd	r24, Y+4	; 0x04
    25ce:	8f 5f       	subi	r24, 0xFF	; 255
    25d0:	8c 83       	std	Y+4, r24	; 0x04
    25d2:	84 32       	cpi	r24, 0x24	; 36
    25d4:	09 f0       	breq	.+2      	; 0x25d8 <enemies+0x5d2>
    25d6:	04 c1       	rjmp	.+520    	; 0x27e0 <enemies+0x7da>
    25d8:	82 e0       	ldi	r24, 0x02	; 2
    25da:	88 87       	std	Y+8, r24	; 0x08
    25dc:	87 e0       	ldi	r24, 0x07	; 7
    25de:	0e 94 09 06 	call	0xc12	; 0xc12 <getRandom>
    25e2:	e7 e0       	ldi	r30, 0x07	; 7
    25e4:	8e 9f       	mul	r24, r30
    25e6:	c0 01       	movw	r24, r0
    25e8:	11 24       	eor	r1, r1
    25ea:	4e 96       	adiw	r24, 0x1e	; 30
    25ec:	8c 87       	std	Y+12, r24	; 0x0c
    25ee:	9d 87       	std	Y+13, r25	; 0x0d
    25f0:	8f e5       	ldi	r24, 0x5F	; 95
    25f2:	80 93 48 38 	sts	0x3848, r24	; 0x803848 <wavePointer>
    25f6:	f4 c0       	rjmp	.+488    	; 0x27e0 <enemies+0x7da>
    25f8:	80 91 48 38 	lds	r24, 0x3848	; 0x803848 <wavePointer>
    25fc:	8f 5f       	subi	r24, 0xFF	; 255
    25fe:	80 38       	cpi	r24, 0x80	; 128
    2600:	19 f0       	breq	.+6      	; 0x2608 <enemies+0x602>
    2602:	80 93 48 38 	sts	0x3848, r24	; 0x803848 <wavePointer>
    2606:	02 c0       	rjmp	.+4      	; 0x260c <enemies+0x606>
    2608:	10 92 48 38 	sts	0x3848, r1	; 0x803848 <wavePointer>
    260c:	e0 91 48 38 	lds	r30, 0x3848	; 0x803848 <wavePointer>
    2610:	f0 e0       	ldi	r31, 0x00	; 0
    2612:	ea 53       	subi	r30, 0x3A	; 58
    2614:	f6 44       	sbci	r31, 0x46	; 70
    2616:	90 81       	ld	r25, Z
    2618:	95 95       	asr	r25
    261a:	95 95       	asr	r25
    261c:	84 e2       	ldi	r24, 0x24	; 36
    261e:	89 1b       	sub	r24, r25
    2620:	8c 83       	std	Y+4, r24	; 0x04
    2622:	8c 85       	ldd	r24, Y+12	; 0x0c
    2624:	9d 85       	ldd	r25, Y+13	; 0x0d
    2626:	01 97       	sbiw	r24, 0x01	; 1
    2628:	8c 87       	std	Y+12, r24	; 0x0c
    262a:	9d 87       	std	Y+13, r25	; 0x0d
    262c:	89 2b       	or	r24, r25
    262e:	09 f0       	breq	.+2      	; 0x2632 <enemies+0x62c>
    2630:	d7 c0       	rjmp	.+430    	; 0x27e0 <enemies+0x7da>
    2632:	83 e0       	ldi	r24, 0x03	; 3
    2634:	88 87       	std	Y+8, r24	; 0x08
    2636:	2c e3       	ldi	r18, 0x3C	; 60
    2638:	30 e0       	ldi	r19, 0x00	; 0
    263a:	2c 87       	std	Y+12, r18	; 0x0c
    263c:	3d 87       	std	Y+13, r19	; 0x0d
    263e:	0e 94 09 06 	call	0xc12	; 0xc12 <getRandom>
    2642:	90 91 74 3d 	lds	r25, 0x3D74	; 0x803d74 <stage>
    2646:	9b 5f       	subi	r25, 0xFB	; 251
    2648:	89 0f       	add	r24, r25
    264a:	8a 87       	std	Y+10, r24	; 0x0a
    264c:	c9 c0       	rjmp	.+402    	; 0x27e0 <enemies+0x7da>
    264e:	80 91 48 38 	lds	r24, 0x3848	; 0x803848 <wavePointer>
    2652:	8f 5f       	subi	r24, 0xFF	; 255
    2654:	80 38       	cpi	r24, 0x80	; 128
    2656:	19 f0       	breq	.+6      	; 0x265e <enemies+0x658>
    2658:	80 93 48 38 	sts	0x3848, r24	; 0x803848 <wavePointer>
    265c:	02 c0       	rjmp	.+4      	; 0x2662 <enemies+0x65c>
    265e:	10 92 48 38 	sts	0x3848, r1	; 0x803848 <wavePointer>
    2662:	e0 91 48 38 	lds	r30, 0x3848	; 0x803848 <wavePointer>
    2666:	f0 e0       	ldi	r31, 0x00	; 0
    2668:	ea 53       	subi	r30, 0x3A	; 58
    266a:	f6 44       	sbci	r31, 0x46	; 70
    266c:	80 81       	ld	r24, Z
    266e:	85 95       	asr	r24
    2670:	85 95       	asr	r24
    2672:	94 e2       	ldi	r25, 0x24	; 36
    2674:	98 1b       	sub	r25, r24
    2676:	9c 83       	std	Y+4, r25	; 0x04
    2678:	2c 85       	ldd	r18, Y+12	; 0x0c
    267a:	3d 85       	ldd	r19, Y+13	; 0x0d
    267c:	21 50       	subi	r18, 0x01	; 1
    267e:	31 09       	sbc	r19, r1
    2680:	2c 87       	std	Y+12, r18	; 0x0c
    2682:	3d 87       	std	Y+13, r19	; 0x0d
    2684:	23 2b       	or	r18, r19
    2686:	09 f0       	breq	.+2      	; 0x268a <enemies+0x684>
    2688:	ab c0       	rjmp	.+342    	; 0x27e0 <enemies+0x7da>
    268a:	9a 85       	ldd	r25, Y+10	; 0x0a
    268c:	91 50       	subi	r25, 0x01	; 1
    268e:	9a 87       	std	Y+10, r25	; 0x0a
    2690:	99 23       	and	r25, r25
    2692:	81 f0       	breq	.+32     	; 0x26b4 <enemies+0x6ae>
    2694:	6c e2       	ldi	r22, 0x2C	; 44
    2696:	68 1b       	sub	r22, r24
    2698:	8a 81       	ldd	r24, Y+2	; 0x02
    269a:	40 e9       	ldi	r20, 0x90	; 144
    269c:	84 5f       	subi	r24, 0xF4	; 244
    269e:	0e 94 7e 09 	call	0x12fc	; 0x12fc <spawnShot>
    26a2:	20 91 74 3d 	lds	r18, 0x3D74	; 0x803d74 <stage>
    26a6:	3d ef       	ldi	r19, 0xFD	; 253
    26a8:	32 03       	mulsu	r19, r18
    26aa:	c0 01       	movw	r24, r0
    26ac:	11 24       	eor	r1, r1
    26ae:	86 5a       	subi	r24, 0xA6	; 166
    26b0:	9f 4f       	sbci	r25, 0xFF	; 255
    26b2:	e6 ce       	rjmp	.-564    	; 0x2480 <enemies+0x47a>
    26b4:	84 e0       	ldi	r24, 0x04	; 4
    26b6:	88 87       	std	Y+8, r24	; 0x08
    26b8:	82 e0       	ldi	r24, 0x02	; 2
    26ba:	80 93 28 38 	sts	0x3828, r24	; 0x803828 <spinSpeed.3922>
    26be:	46 e4       	ldi	r20, 0x46	; 70
    26c0:	50 e0       	ldi	r21, 0x00	; 0
    26c2:	4c 87       	std	Y+12, r20	; 0x0c
    26c4:	5d 87       	std	Y+13, r21	; 0x0d
    26c6:	1f 82       	std	Y+7, r1	; 0x07
    26c8:	8b c0       	rjmp	.+278    	; 0x27e0 <enemies+0x7da>
    26ca:	8c 81       	ldd	r24, Y+4	; 0x04
    26cc:	89 30       	cpi	r24, 0x09	; 9
    26ce:	44 f0       	brlt	.+16     	; 0x26e0 <enemies+0x6da>
    26d0:	9f 81       	ldd	r25, Y+7	; 0x07
    26d2:	9f 5f       	subi	r25, 0xFF	; 255
    26d4:	9f 83       	std	Y+7, r25	; 0x07
    26d6:	94 30       	cpi	r25, 0x04	; 4
    26d8:	19 f4       	brne	.+6      	; 0x26e0 <enemies+0x6da>
    26da:	81 50       	subi	r24, 0x01	; 1
    26dc:	8c 83       	std	Y+4, r24	; 0x04
    26de:	1f 82       	std	Y+7, r1	; 0x07
    26e0:	8c 85       	ldd	r24, Y+12	; 0x0c
    26e2:	9d 85       	ldd	r25, Y+13	; 0x0d
    26e4:	01 97       	sbiw	r24, 0x01	; 1
    26e6:	8c 87       	std	Y+12, r24	; 0x0c
    26e8:	9d 87       	std	Y+13, r25	; 0x0d
    26ea:	89 2b       	or	r24, r25
    26ec:	09 f0       	breq	.+2      	; 0x26f0 <enemies+0x6ea>
    26ee:	78 c0       	rjmp	.+240    	; 0x27e0 <enemies+0x7da>
    26f0:	85 e0       	ldi	r24, 0x05	; 5
    26f2:	1f c0       	rjmp	.+62     	; 0x2732 <enemies+0x72c>
    26f4:	8c 81       	ldd	r24, Y+4	; 0x04
    26f6:	8d 5f       	subi	r24, 0xFD	; 253
    26f8:	87 33       	cpi	r24, 0x37	; 55
    26fa:	14 f4       	brge	.+4      	; 0x2700 <enemies+0x6fa>
    26fc:	8c 83       	std	Y+4, r24	; 0x04
    26fe:	70 c0       	rjmp	.+224    	; 0x27e0 <enemies+0x7da>
    2700:	57 e3       	ldi	r21, 0x37	; 55
    2702:	5c 83       	std	Y+4, r21	; 0x04
    2704:	86 e0       	ldi	r24, 0x06	; 6
    2706:	88 87       	std	Y+8, r24	; 0x08
    2708:	88 e2       	ldi	r24, 0x28	; 40
    270a:	90 e0       	ldi	r25, 0x00	; 0
    270c:	b9 ce       	rjmp	.-654    	; 0x2480 <enemies+0x47a>
    270e:	80 91 3f 38 	lds	r24, 0x383F	; 0x80383f <frameCounter>
    2712:	80 ff       	sbrs	r24, 0
    2714:	05 c0       	rjmp	.+10     	; 0x2720 <enemies+0x71a>
    2716:	8a 81       	ldd	r24, Y+2	; 0x02
    2718:	9b 81       	ldd	r25, Y+3	; 0x03
    271a:	01 96       	adiw	r24, 0x01	; 1
    271c:	8a 83       	std	Y+2, r24	; 0x02
    271e:	9b 83       	std	Y+3, r25	; 0x03
    2720:	8c 85       	ldd	r24, Y+12	; 0x0c
    2722:	9d 85       	ldd	r25, Y+13	; 0x0d
    2724:	01 97       	sbiw	r24, 0x01	; 1
    2726:	8c 87       	std	Y+12, r24	; 0x0c
    2728:	9d 87       	std	Y+13, r25	; 0x0d
    272a:	89 2b       	or	r24, r25
    272c:	09 f0       	breq	.+2      	; 0x2730 <enemies+0x72a>
    272e:	58 c0       	rjmp	.+176    	; 0x27e0 <enemies+0x7da>
    2730:	87 e0       	ldi	r24, 0x07	; 7
    2732:	88 87       	std	Y+8, r24	; 0x08
    2734:	55 c0       	rjmp	.+170    	; 0x27e0 <enemies+0x7da>
    2736:	8a 81       	ldd	r24, Y+2	; 0x02
    2738:	9b 81       	ldd	r25, Y+3	; 0x03
    273a:	02 97       	sbiw	r24, 0x02	; 2
    273c:	8a 83       	std	Y+2, r24	; 0x02
    273e:	9b 83       	std	Y+3, r25	; 0x03
    2740:	80 3e       	cpi	r24, 0xE0	; 224
    2742:	9f 4f       	sbci	r25, 0xFF	; 255
    2744:	0c f0       	brlt	.+2      	; 0x2748 <enemies+0x742>
    2746:	4c c0       	rjmp	.+152    	; 0x27e0 <enemies+0x7da>
    2748:	88 e0       	ldi	r24, 0x08	; 8
    274a:	88 87       	std	Y+8, r24	; 0x08
    274c:	87 e0       	ldi	r24, 0x07	; 7
    274e:	0e 94 09 06 	call	0xc12	; 0xc12 <getRandom>
    2752:	f6 e0       	ldi	r31, 0x06	; 6
    2754:	8f 9f       	mul	r24, r31
    2756:	c0 01       	movw	r24, r0
    2758:	11 24       	eor	r1, r1
    275a:	80 58       	subi	r24, 0x80	; 128
    275c:	91 09       	sbc	r25, r1
    275e:	8a 83       	std	Y+2, r24	; 0x02
    2760:	9b 83       	std	Y+3, r25	; 0x03
    2762:	83 e0       	ldi	r24, 0x03	; 3
    2764:	0e 94 09 06 	call	0xc12	; 0xc12 <getRandom>
    2768:	98 2f       	mov	r25, r24
    276a:	99 0f       	add	r25, r25
    276c:	89 0f       	add	r24, r25
    276e:	88 5f       	subi	r24, 0xF8	; 248
    2770:	8c 83       	std	Y+4, r24	; 0x04
    2772:	1b 86       	std	Y+11, r1	; 0x0b
    2774:	84 e0       	ldi	r24, 0x04	; 4
    2776:	80 93 28 38 	sts	0x3828, r24	; 0x803828 <spinSpeed.3922>
    277a:	2e e1       	ldi	r18, 0x1E	; 30
    277c:	30 e0       	ldi	r19, 0x00	; 0
    277e:	2c 87       	std	Y+12, r18	; 0x0c
    2780:	3d 87       	std	Y+13, r19	; 0x0d
    2782:	2e c0       	rjmp	.+92     	; 0x27e0 <enemies+0x7da>
    2784:	8a 81       	ldd	r24, Y+2	; 0x02
    2786:	9b 81       	ldd	r25, Y+3	; 0x03
    2788:	18 16       	cp	r1, r24
    278a:	19 06       	cpc	r1, r25
    278c:	dc f4       	brge	.+54     	; 0x27c4 <enemies+0x7be>
    278e:	2c 85       	ldd	r18, Y+12	; 0x0c
    2790:	3d 85       	ldd	r19, Y+13	; 0x0d
    2792:	21 50       	subi	r18, 0x01	; 1
    2794:	31 09       	sbc	r19, r1
    2796:	2c 87       	std	Y+12, r18	; 0x0c
    2798:	3d 87       	std	Y+13, r19	; 0x0d
    279a:	23 2b       	or	r18, r19
    279c:	99 f4       	brne	.+38     	; 0x27c4 <enemies+0x7be>
    279e:	6c 81       	ldd	r22, Y+4	; 0x04
    27a0:	68 5f       	subi	r22, 0xF8	; 248
    27a2:	40 e8       	ldi	r20, 0x80	; 128
    27a4:	84 5f       	subi	r24, 0xF4	; 244
    27a6:	0e 94 7e 09 	call	0x12fc	; 0x12fc <spawnShot>
    27aa:	80 91 74 3d 	lds	r24, 0x3D74	; 0x803d74 <stage>
    27ae:	4a e0       	ldi	r20, 0x0A	; 10
    27b0:	50 e0       	ldi	r21, 0x00	; 0
    27b2:	48 1b       	sub	r20, r24
    27b4:	51 09       	sbc	r21, r1
    27b6:	ca 01       	movw	r24, r20
    27b8:	88 0f       	add	r24, r24
    27ba:	99 1f       	adc	r25, r25
    27bc:	88 0f       	add	r24, r24
    27be:	99 1f       	adc	r25, r25
    27c0:	8c 87       	std	Y+12, r24	; 0x0c
    27c2:	9d 87       	std	Y+13, r25	; 0x0d
    27c4:	8a 81       	ldd	r24, Y+2	; 0x02
    27c6:	9b 81       	ldd	r25, Y+3	; 0x03
    27c8:	01 96       	adiw	r24, 0x01	; 1
    27ca:	8a 83       	std	Y+2, r24	; 0x02
    27cc:	9b 83       	std	Y+3, r25	; 0x03
    27ce:	8f 35       	cpi	r24, 0x5F	; 95
    27d0:	91 05       	cpc	r25, r1
    27d2:	34 f0       	brlt	.+12     	; 0x27e0 <enemies+0x7da>
    27d4:	e8 86       	std	Y+8, r14	; 0x08
    27d6:	80 91 2a 38 	lds	r24, 0x382A	; 0x80382a <bossPhase>
    27da:	8f 5f       	subi	r24, 0xFF	; 255
    27dc:	80 93 2a 38 	sts	0x382A, r24	; 0x80382a <bossPhase>
    27e0:	2e 96       	adiw	r28, 0x0e	; 14
    27e2:	f3 94       	inc	r15
    27e4:	50 e1       	ldi	r21, 0x10	; 16
    27e6:	f5 12       	cpse	r15, r21
    27e8:	30 cc       	rjmp	.-1952   	; 0x204a <enemies+0x44>
    27ea:	df 91       	pop	r29
    27ec:	cf 91       	pop	r28
    27ee:	1f 91       	pop	r17
    27f0:	0f 91       	pop	r16
    27f2:	ff 90       	pop	r15
    27f4:	ef 90       	pop	r14
    27f6:	df 90       	pop	r13
    27f8:	cf 90       	pop	r12
    27fa:	bf 90       	pop	r11
    27fc:	af 90       	pop	r10
    27fe:	9f 90       	pop	r9
    2800:	8f 90       	pop	r8
    2802:	7f 90       	pop	r7
    2804:	6f 90       	pop	r6
    2806:	5f 90       	pop	r5
    2808:	4f 90       	pop	r4
    280a:	3f 90       	pop	r3
    280c:	2f 90       	pop	r2
    280e:	08 95       	ret

00002810 <gameAction>:
    2810:	0f 93       	push	r16
    2812:	1f 93       	push	r17
    2814:	cf 93       	push	r28
    2816:	df 93       	push	r29
    2818:	0e 94 c8 08 	call	0x1190	; 0x1190 <sendTiles>
    281c:	80 91 3f 38 	lds	r24, 0x383F	; 0x80383f <frameCounter>
    2820:	90 91 40 38 	lds	r25, 0x3840	; 0x803840 <frameCounter+0x1>
    2824:	01 96       	adiw	r24, 0x01	; 1
    2826:	80 93 3f 38 	sts	0x383F, r24	; 0x80383f <frameCounter>
    282a:	90 93 40 38 	sts	0x3840, r25	; 0x803840 <frameCounter+0x1>
    282e:	0e 94 f3 0b 	call	0x17e6	; 0x17e6 <playerLogic>
    2832:	0e 94 03 10 	call	0x2006	; 0x2006 <enemies>
    2836:	80 91 08 38 	lds	r24, 0x3808	; 0x803808 <messageFlash>
    283a:	90 91 09 38 	lds	r25, 0x3809	; 0x803809 <messageFlash+0x1>
    283e:	01 96       	adiw	r24, 0x01	; 1
    2840:	09 f0       	breq	.+2      	; 0x2844 <gameAction+0x34>
    2842:	eb c0       	rjmp	.+470    	; 0x2a1a <gameAction+0x20a>
    2844:	80 91 0a 38 	lds	r24, 0x380A	; 0x80380a <stagePhase>
    2848:	8f 70       	andi	r24, 0x0F	; 15
    284a:	09 f4       	brne	.+2      	; 0x284e <gameAction+0x3e>
    284c:	a9 c0       	rjmp	.+338    	; 0x29a0 <gameAction+0x190>
    284e:	90 91 73 3d 	lds	r25, 0x3D73	; 0x803d73 <numberSpawned>
    2852:	20 91 5f 3e 	lds	r18, 0x3E5F	; 0x803e5f <spawnPerWave>
    2856:	92 17       	cp	r25, r18
    2858:	09 f4       	brne	.+2      	; 0x285c <gameAction+0x4c>
    285a:	8f c0       	rjmp	.+286    	; 0x297a <gameAction+0x16a>
    285c:	20 91 34 38 	lds	r18, 0x3834	; 0x803834 <eventTimer>
    2860:	30 91 35 38 	lds	r19, 0x3835	; 0x803835 <eventTimer+0x1>
    2864:	21 15       	cp	r18, r1
    2866:	31 05       	cpc	r19, r1
    2868:	09 f4       	brne	.+2      	; 0x286c <gameAction+0x5c>
    286a:	9a c0       	rjmp	.+308    	; 0x29a0 <gameAction+0x190>
    286c:	21 50       	subi	r18, 0x01	; 1
    286e:	31 09       	sbc	r19, r1
    2870:	20 93 34 38 	sts	0x3834, r18	; 0x803834 <eventTimer>
    2874:	30 93 35 38 	sts	0x3835, r19	; 0x803835 <eventTimer+0x1>
    2878:	23 2b       	or	r18, r19
    287a:	09 f0       	breq	.+2      	; 0x287e <gameAction+0x6e>
    287c:	91 c0       	rjmp	.+290    	; 0x29a0 <gameAction+0x190>
    287e:	9f 5f       	subi	r25, 0xFF	; 255
    2880:	90 93 73 3d 	sts	0x3D73, r25	; 0x803d73 <numberSpawned>
    2884:	82 30       	cpi	r24, 0x02	; 2
    2886:	b9 f0       	breq	.+46     	; 0x28b6 <gameAction+0xa6>
    2888:	83 30       	cpi	r24, 0x03	; 3
    288a:	69 f1       	breq	.+90     	; 0x28e6 <gameAction+0xd6>
    288c:	81 30       	cpi	r24, 0x01	; 1
    288e:	09 f0       	breq	.+2      	; 0x2892 <gameAction+0x82>
    2890:	5e c0       	rjmp	.+188    	; 0x294e <gameAction+0x13e>
    2892:	0e 94 09 06 	call	0xc12	; 0xc12 <getRandom>
    2896:	c8 2f       	mov	r28, r24
    2898:	81 e0       	ldi	r24, 0x01	; 1
    289a:	0e 94 09 06 	call	0xc12	; 0xc12 <getRandom>
    289e:	6c 2f       	mov	r22, r28
    28a0:	66 0f       	add	r22, r22
    28a2:	66 0f       	add	r22, r22
    28a4:	66 0f       	add	r22, r22
    28a6:	e8 2f       	mov	r30, r24
    28a8:	f0 e0       	ldi	r31, 0x00	; 0
    28aa:	ee 0f       	add	r30, r30
    28ac:	ff 1f       	adc	r31, r31
    28ae:	ee 53       	subi	r30, 0x3E	; 62
    28b0:	f6 44       	sbci	r31, 0x46	; 70
    28b2:	20 e1       	ldi	r18, 0x10	; 16
    28b4:	12 c0       	rjmp	.+36     	; 0x28da <gameAction+0xca>
    28b6:	81 e0       	ldi	r24, 0x01	; 1
    28b8:	0e 94 09 06 	call	0xc12	; 0xc12 <getRandom>
    28bc:	c8 2f       	mov	r28, r24
    28be:	81 e0       	ldi	r24, 0x01	; 1
    28c0:	0e 94 09 06 	call	0xc12	; 0xc12 <getRandom>
    28c4:	6c 2f       	mov	r22, r28
    28c6:	66 0f       	add	r22, r22
    28c8:	66 0f       	add	r22, r22
    28ca:	66 0f       	add	r22, r22
    28cc:	e8 2f       	mov	r30, r24
    28ce:	f0 e0       	ldi	r31, 0x00	; 0
    28d0:	ee 0f       	add	r30, r30
    28d2:	ff 1f       	adc	r31, r31
    28d4:	ee 53       	subi	r30, 0x3E	; 62
    28d6:	f6 44       	sbci	r31, 0x46	; 70
    28d8:	20 e2       	ldi	r18, 0x20	; 32
    28da:	41 e0       	ldi	r20, 0x01	; 1
    28dc:	80 81       	ld	r24, Z
    28de:	91 81       	ldd	r25, Z+1	; 0x01
    28e0:	0e 94 b9 09 	call	0x1372	; 0x1372 <spawnEnemy>
    28e4:	34 c0       	rjmp	.+104    	; 0x294e <gameAction+0x13e>
    28e6:	81 e0       	ldi	r24, 0x01	; 1
    28e8:	0e 94 09 06 	call	0xc12	; 0xc12 <getRandom>
    28ec:	c8 2f       	mov	r28, r24
    28ee:	81 e0       	ldi	r24, 0x01	; 1
    28f0:	0e 94 09 06 	call	0xc12	; 0xc12 <getRandom>
    28f4:	68 2f       	mov	r22, r24
    28f6:	66 0f       	add	r22, r22
    28f8:	66 0f       	add	r22, r22
    28fa:	66 0f       	add	r22, r22
    28fc:	ec 2f       	mov	r30, r28
    28fe:	f0 e0       	ldi	r31, 0x00	; 0
    2900:	ee 0f       	add	r30, r30
    2902:	ff 1f       	adc	r31, r31
    2904:	ee 53       	subi	r30, 0x3E	; 62
    2906:	f6 44       	sbci	r31, 0x46	; 70
    2908:	20 e1       	ldi	r18, 0x10	; 16
    290a:	41 e0       	ldi	r20, 0x01	; 1
    290c:	80 81       	ld	r24, Z
    290e:	91 81       	ldd	r25, Z+1	; 0x01
    2910:	0e 94 b9 09 	call	0x1372	; 0x1372 <spawnEnemy>
    2914:	81 e0       	ldi	r24, 0x01	; 1
    2916:	0e 94 09 06 	call	0xc12	; 0xc12 <getRandom>
    291a:	68 2f       	mov	r22, r24
    291c:	66 0f       	add	r22, r22
    291e:	66 0f       	add	r22, r22
    2920:	66 0f       	add	r22, r22
    2922:	21 e0       	ldi	r18, 0x01	; 1
    2924:	30 e0       	ldi	r19, 0x00	; 0
    2926:	cc 23       	and	r28, r28
    2928:	11 f0       	breq	.+4      	; 0x292e <gameAction+0x11e>
    292a:	20 e0       	ldi	r18, 0x00	; 0
    292c:	30 e0       	ldi	r19, 0x00	; 0
    292e:	22 0f       	add	r18, r18
    2930:	33 1f       	adc	r19, r19
    2932:	f9 01       	movw	r30, r18
    2934:	ee 53       	subi	r30, 0x3E	; 62
    2936:	f6 44       	sbci	r31, 0x46	; 70
    2938:	20 e2       	ldi	r18, 0x20	; 32
    293a:	41 e0       	ldi	r20, 0x01	; 1
    293c:	80 81       	ld	r24, Z
    293e:	91 81       	ldd	r25, Z+1	; 0x01
    2940:	0e 94 b9 09 	call	0x1372	; 0x1372 <spawnEnemy>
    2944:	80 91 61 3c 	lds	r24, 0x3C61	; 0x803c61 <skyEnemies>
    2948:	8f 5f       	subi	r24, 0xFF	; 255
    294a:	80 93 61 3c 	sts	0x3C61, r24	; 0x803c61 <skyEnemies>
    294e:	87 e0       	ldi	r24, 0x07	; 7
    2950:	0e 94 09 06 	call	0xc12	; 0xc12 <getRandom>
    2954:	20 91 32 38 	lds	r18, 0x3832	; 0x803832 <eventGoal>
    2958:	30 91 33 38 	lds	r19, 0x3833	; 0x803833 <eventGoal+0x1>
    295c:	93 e0       	ldi	r25, 0x03	; 3
    295e:	89 9f       	mul	r24, r25
    2960:	20 0d       	add	r18, r0
    2962:	31 1d       	adc	r19, r1
    2964:	11 24       	eor	r1, r1
    2966:	20 93 34 38 	sts	0x3834, r18	; 0x803834 <eventTimer>
    296a:	30 93 35 38 	sts	0x3835, r19	; 0x803835 <eventTimer+0x1>
    296e:	80 91 61 3c 	lds	r24, 0x3C61	; 0x803c61 <skyEnemies>
    2972:	8f 5f       	subi	r24, 0xFF	; 255
    2974:	80 93 61 3c 	sts	0x3C61, r24	; 0x803c61 <skyEnemies>
    2978:	13 c0       	rjmp	.+38     	; 0x29a0 <gameAction+0x190>
    297a:	80 91 61 3c 	lds	r24, 0x3C61	; 0x803c61 <skyEnemies>
    297e:	81 11       	cpse	r24, r1
    2980:	0f c0       	rjmp	.+30     	; 0x29a0 <gameAction+0x190>
    2982:	10 92 73 3d 	sts	0x3D73, r1	; 0x803d73 <numberSpawned>
    2986:	80 91 75 3d 	lds	r24, 0x3D75	; 0x803d75 <numberOfWaves>
    298a:	81 50       	subi	r24, 0x01	; 1
    298c:	80 93 75 3d 	sts	0x3D75, r24	; 0x803d75 <numberOfWaves>
    2990:	88 23       	and	r24, r24
    2992:	41 f0       	breq	.+16     	; 0x29a4 <gameAction+0x194>
    2994:	80 e5       	ldi	r24, 0x50	; 80
    2996:	90 e0       	ldi	r25, 0x00	; 0
    2998:	80 93 34 38 	sts	0x3834, r24	; 0x803834 <eventTimer>
    299c:	90 93 35 38 	sts	0x3835, r25	; 0x803835 <eventTimer+0x1>
    29a0:	d0 e0       	ldi	r29, 0x00	; 0
    29a2:	05 c0       	rjmp	.+10     	; 0x29ae <gameAction+0x19e>
    29a4:	80 91 5d 3e 	lds	r24, 0x3E5D	; 0x803e5d <distanceGoal>
    29a8:	80 93 71 3d 	sts	0x3D71, r24	; 0x803d71 <distance>
    29ac:	d1 e0       	ldi	r29, 0x01	; 1
    29ae:	80 91 0a 38 	lds	r24, 0x380A	; 0x80380a <stagePhase>
    29b2:	80 7f       	andi	r24, 0xF0	; 240
    29b4:	99 f1       	breq	.+102    	; 0x2a1c <gameAction+0x20c>
    29b6:	83 e0       	ldi	r24, 0x03	; 3
    29b8:	0e 94 09 06 	call	0xc12	; 0xc12 <getRandom>
    29bc:	18 2f       	mov	r17, r24
    29be:	90 91 74 3d 	lds	r25, 0x3D74	; 0x803d74 <stage>
    29c2:	92 30       	cpi	r25, 0x02	; 2
    29c4:	30 f0       	brcs	.+12     	; 0x29d2 <gameAction+0x1c2>
    29c6:	80 91 5b 3e 	lds	r24, 0x3E5B	; 0x803e5b <checkPoint>
    29ca:	81 11       	cpse	r24, r1
    29cc:	02 c0       	rjmp	.+4      	; 0x29d2 <gameAction+0x1c2>
    29ce:	88 e2       	ldi	r24, 0x28	; 40
    29d0:	01 c0       	rjmp	.+2      	; 0x29d4 <gameAction+0x1c4>
    29d2:	8c e3       	ldi	r24, 0x3C	; 60
    29d4:	20 91 0a 38 	lds	r18, 0x380A	; 0x80380a <stagePhase>
    29d8:	25 ff       	sbrs	r18, 5
    29da:	11 70       	andi	r17, 0x01	; 1
    29dc:	20 91 04 38 	lds	r18, 0x3804	; 0x803804 <obstacleTimer>
    29e0:	21 50       	subi	r18, 0x01	; 1
    29e2:	20 93 04 38 	sts	0x3804, r18	; 0x803804 <obstacleTimer>
    29e6:	21 11       	cpse	r18, r1
    29e8:	19 c0       	rjmp	.+50     	; 0x2a1c <gameAction+0x20c>
    29ea:	99 0f       	add	r25, r25
    29ec:	99 0f       	add	r25, r25
    29ee:	c8 2f       	mov	r28, r24
    29f0:	c9 1b       	sub	r28, r25
    29f2:	8f e0       	ldi	r24, 0x0F	; 15
    29f4:	0e 94 09 06 	call	0xc12	; 0xc12 <getRandom>
    29f8:	8c 0f       	add	r24, r28
    29fa:	12 30       	cpi	r17, 0x02	; 2
    29fc:	08 f0       	brcs	.+2      	; 0x2a00 <gameAction+0x1f0>
    29fe:	8c 5e       	subi	r24, 0xEC	; 236
    2a00:	80 93 04 38 	sts	0x3804, r24	; 0x803804 <obstacleTimer>
    2a04:	61 e0       	ldi	r22, 0x01	; 1
    2a06:	70 e0       	ldi	r23, 0x00	; 0
    2a08:	01 c0       	rjmp	.+2      	; 0x2a0c <gameAction+0x1fc>
    2a0a:	66 0f       	add	r22, r22
    2a0c:	1a 95       	dec	r17
    2a0e:	ea f7       	brpl	.-6      	; 0x2a0a <gameAction+0x1fa>
    2a10:	8f e7       	ldi	r24, 0x7F	; 127
    2a12:	90 e0       	ldi	r25, 0x00	; 0
    2a14:	0e 94 28 09 	call	0x1250	; 0x1250 <spawnObstacle>
    2a18:	01 c0       	rjmp	.+2      	; 0x2a1c <gameAction+0x20c>
    2a1a:	d0 e0       	ldi	r29, 0x00	; 0
    2a1c:	20 91 0b 38 	lds	r18, 0x380B	; 0x80380b <speed>
    2a20:	80 91 43 38 	lds	r24, 0x3843	; 0x803843 <xWindow>
    2a24:	90 91 44 38 	lds	r25, 0x3844	; 0x803844 <xWindow+0x1>
    2a28:	82 0f       	add	r24, r18
    2a2a:	91 1d       	adc	r25, r1
    2a2c:	80 93 43 38 	sts	0x3843, r24	; 0x803843 <xWindow>
    2a30:	90 93 44 38 	sts	0x3844, r25	; 0x803844 <xWindow+0x1>
    2a34:	80 91 08 38 	lds	r24, 0x3808	; 0x803808 <messageFlash>
    2a38:	90 91 09 38 	lds	r25, 0x3809	; 0x803809 <messageFlash+0x1>
    2a3c:	8f 3f       	cpi	r24, 0xFF	; 255
    2a3e:	2f ef       	ldi	r18, 0xFF	; 255
    2a40:	92 07       	cpc	r25, r18
    2a42:	d9 f0       	breq	.+54     	; 0x2a7a <gameAction+0x26a>
    2a44:	66 e0       	ldi	r22, 0x06	; 6
    2a46:	0e 94 19 07 	call	0xe32	; 0xe32 <setRowScroll>
    2a4a:	20 91 0b 38 	lds	r18, 0x380B	; 0x80380b <speed>
    2a4e:	80 91 08 38 	lds	r24, 0x3808	; 0x803808 <messageFlash>
    2a52:	90 91 09 38 	lds	r25, 0x3809	; 0x803809 <messageFlash+0x1>
    2a56:	82 0f       	add	r24, r18
    2a58:	91 1d       	adc	r25, r1
    2a5a:	80 93 08 38 	sts	0x3808, r24	; 0x803808 <messageFlash>
    2a5e:	90 93 09 38 	sts	0x3809, r25	; 0x803809 <messageFlash+0x1>
    2a62:	8f 3f       	cpi	r24, 0xFF	; 255
    2a64:	91 05       	cpc	r25, r1
    2a66:	49 f0       	breq	.+18     	; 0x2a7a <gameAction+0x26a>
    2a68:	40 f0       	brcs	.+16     	; 0x2a7a <gameAction+0x26a>
    2a6a:	0e 94 2f 0b 	call	0x165e	; 0x165e <phaseStart>
    2a6e:	8f ef       	ldi	r24, 0xFF	; 255
    2a70:	9f ef       	ldi	r25, 0xFF	; 255
    2a72:	80 93 08 38 	sts	0x3808, r24	; 0x803808 <messageFlash>
    2a76:	90 93 09 38 	sts	0x3809, r25	; 0x803809 <messageFlash+0x1>
    2a7a:	80 91 43 38 	lds	r24, 0x3843	; 0x803843 <xWindow>
    2a7e:	90 91 44 38 	lds	r25, 0x3844	; 0x803844 <xWindow+0x1>
    2a82:	87 70       	andi	r24, 0x07	; 7
    2a84:	99 27       	eor	r25, r25
    2a86:	07 97       	sbiw	r24, 0x07	; 7
    2a88:	91 f4       	brne	.+36     	; 0x2aae <gameAction+0x29e>
    2a8a:	10 92 37 38 	sts	0x3837, r1	; 0x803837 <spawnFineCounter>
    2a8e:	80 91 0d 38 	lds	r24, 0x380D	; 0x80380d <spawnPointer>
    2a92:	8f 5f       	subi	r24, 0xFF	; 255
    2a94:	09 f4       	brne	.+2      	; 0x2a98 <gameAction+0x288>
    2a96:	80 ee       	ldi	r24, 0xE0	; 224
    2a98:	80 93 0d 38 	sts	0x380D, r24	; 0x80380d <spawnPointer>
    2a9c:	00 91 0d 38 	lds	r16, 0x380D	; 0x80380d <spawnPointer>
    2aa0:	10 e0       	ldi	r17, 0x00	; 0
    2aa2:	0e 94 7d 0a 	call	0x14fa	; 0x14fa <getGround>
    2aa6:	f8 01       	movw	r30, r16
    2aa8:	e5 59       	subi	r30, 0x95	; 149
    2aaa:	f3 4c       	sbci	r31, 0xC3	; 195
    2aac:	80 83       	st	Z, r24
    2aae:	80 91 3f 38 	lds	r24, 0x383F	; 0x80383f <frameCounter>
    2ab2:	81 70       	andi	r24, 0x01	; 1
    2ab4:	90 91 3e 38 	lds	r25, 0x383E	; 0x80383e <bgScroll>
    2ab8:	89 0f       	add	r24, r25
    2aba:	80 93 3e 38 	sts	0x383E, r24	; 0x80383e <bgScroll>
    2abe:	80 91 2b 38 	lds	r24, 0x382B	; 0x80382b <bossBattle>
    2ac2:	88 23       	and	r24, r24
    2ac4:	59 f1       	breq	.+86     	; 0x2b1c <gameAction+0x30c>
    2ac6:	43 e0       	ldi	r20, 0x03	; 3
    2ac8:	60 ea       	ldi	r22, 0xA0	; 160
    2aca:	80 e1       	ldi	r24, 0x10	; 16
    2acc:	0e 94 55 0e 	call	0x1caa	; 0x1caa <fillTiles>
    2ad0:	ae e7       	ldi	r26, 0x7E	; 126
    2ad2:	bc e3       	ldi	r27, 0x3C	; 60
    2ad4:	eb e8       	ldi	r30, 0x8B	; 139
    2ad6:	fc e3       	ldi	r31, 0x3C	; 60
    2ad8:	83 ea       	ldi	r24, 0xA3	; 163
    2ada:	8d 93       	st	X+, r24
    2adc:	ea 17       	cp	r30, r26
    2ade:	fb 07       	cpc	r31, r27
    2ae0:	e1 f7       	brne	.-8      	; 0x2ada <gameAction+0x2ca>
    2ae2:	20 91 07 38 	lds	r18, 0x3807	; 0x803807 <bossHealth>
    2ae6:	92 2f       	mov	r25, r18
    2ae8:	96 95       	lsr	r25
    2aea:	96 95       	lsr	r25
    2aec:	8f e1       	ldi	r24, 0x1F	; 31
    2aee:	89 1b       	sub	r24, r25
    2af0:	4f e1       	ldi	r20, 0x1F	; 31
    2af2:	50 e0       	ldi	r21, 0x00	; 0
    2af4:	90 e0       	ldi	r25, 0x00	; 0
    2af6:	37 ea       	ldi	r19, 0xA7	; 167
    2af8:	84 17       	cp	r24, r20
    2afa:	95 07       	cpc	r25, r21
    2afc:	24 f4       	brge	.+8      	; 0x2b06 <gameAction+0x2f6>
    2afe:	32 93       	st	-Z, r19
    2b00:	41 50       	subi	r20, 0x01	; 1
    2b02:	51 09       	sbc	r21, r1
    2b04:	f9 cf       	rjmp	.-14     	; 0x2af8 <gameAction+0x2e8>
    2b06:	23 70       	andi	r18, 0x03	; 3
    2b08:	29 f0       	breq	.+10     	; 0x2b14 <gameAction+0x304>
    2b0a:	fc 01       	movw	r30, r24
    2b0c:	e5 59       	subi	r30, 0x95	; 149
    2b0e:	f3 4c       	sbci	r31, 0xC3	; 195
    2b10:	2d 55       	subi	r18, 0x5D	; 93
    2b12:	20 83       	st	Z, r18
    2b14:	80 91 3f 38 	lds	r24, 0x383F	; 0x80383f <frameCounter>
    2b18:	80 ff       	sbrs	r24, 0
    2b1a:	03 c0       	rjmp	.+6      	; 0x2b22 <gameAction+0x312>
    2b1c:	60 e0       	ldi	r22, 0x00	; 0
    2b1e:	80 e0       	ldi	r24, 0x00	; 0
    2b20:	02 c0       	rjmp	.+4      	; 0x2b26 <gameAction+0x316>
    2b22:	60 e0       	ldi	r22, 0x00	; 0
    2b24:	80 e8       	ldi	r24, 0x80	; 128
    2b26:	0e 94 19 07 	call	0xe32	; 0xe32 <setRowScroll>
    2b2a:	61 e0       	ldi	r22, 0x01	; 1
    2b2c:	80 e0       	ldi	r24, 0x00	; 0
    2b2e:	0e 94 19 07 	call	0xe32	; 0xe32 <setRowScroll>
    2b32:	80 91 3e 38 	lds	r24, 0x383E	; 0x80383e <bgScroll>
    2b36:	62 e0       	ldi	r22, 0x02	; 2
    2b38:	86 95       	lsr	r24
    2b3a:	0e 94 19 07 	call	0xe32	; 0xe32 <setRowScroll>
    2b3e:	80 91 3e 38 	lds	r24, 0x383E	; 0x80383e <bgScroll>
    2b42:	63 e0       	ldi	r22, 0x03	; 3
    2b44:	86 95       	lsr	r24
    2b46:	0e 94 19 07 	call	0xe32	; 0xe32 <setRowScroll>
    2b4a:	64 e0       	ldi	r22, 0x04	; 4
    2b4c:	80 91 3e 38 	lds	r24, 0x383E	; 0x80383e <bgScroll>
    2b50:	0e 94 19 07 	call	0xe32	; 0xe32 <setRowScroll>
    2b54:	65 e0       	ldi	r22, 0x05	; 5
    2b56:	80 91 3e 38 	lds	r24, 0x383E	; 0x80383e <bgScroll>
    2b5a:	0e 94 19 07 	call	0xe32	; 0xe32 <setRowScroll>
    2b5e:	67 e0       	ldi	r22, 0x07	; 7
    2b60:	80 91 43 38 	lds	r24, 0x3843	; 0x803843 <xWindow>
    2b64:	0e 94 19 07 	call	0xe32	; 0xe32 <setRowScroll>
    2b68:	80 91 43 38 	lds	r24, 0x3843	; 0x803843 <xWindow>
    2b6c:	90 91 44 38 	lds	r25, 0x3844	; 0x803844 <xWindow+0x1>
    2b70:	8f 3f       	cpi	r24, 0xFF	; 255
    2b72:	91 05       	cpc	r25, r1
    2b74:	09 f0       	breq	.+2      	; 0x2b78 <gameAction+0x368>
    2b76:	18 f4       	brcc	.+6      	; 0x2b7e <gameAction+0x36e>
    2b78:	d1 11       	cpse	r29, r1
    2b7a:	0c c0       	rjmp	.+24     	; 0x2b94 <gameAction+0x384>
    2b7c:	28 c0       	rjmp	.+80     	; 0x2bce <gameAction+0x3be>
    2b7e:	9a 95       	dec	r25
    2b80:	80 93 43 38 	sts	0x3843, r24	; 0x803843 <xWindow>
    2b84:	90 93 44 38 	sts	0x3844, r25	; 0x803844 <xWindow+0x1>
    2b88:	80 91 08 38 	lds	r24, 0x3808	; 0x803808 <messageFlash>
    2b8c:	90 91 09 38 	lds	r25, 0x3809	; 0x803809 <messageFlash+0x1>
    2b90:	01 96       	adiw	r24, 0x01	; 1
    2b92:	91 f7       	brne	.-28     	; 0x2b78 <gameAction+0x368>
    2b94:	90 91 71 3d 	lds	r25, 0x3D71	; 0x803d71 <distance>
    2b98:	80 91 59 3e 	lds	r24, 0x3E59	; 0x803e59 <byDistance>
    2b9c:	89 0f       	add	r24, r25
    2b9e:	80 93 71 3d 	sts	0x3D71, r24	; 0x803d71 <distance>
    2ba2:	90 91 5d 3e 	lds	r25, 0x3E5D	; 0x803e5d <distanceGoal>
    2ba6:	89 17       	cp	r24, r25
    2ba8:	90 f0       	brcs	.+36     	; 0x2bce <gameAction+0x3be>
    2baa:	10 92 71 3d 	sts	0x3D71, r1	; 0x803d71 <distance>
    2bae:	81 e0       	ldi	r24, 0x01	; 1
    2bb0:	80 93 0b 38 	sts	0x380B, r24	; 0x80380b <speed>
    2bb4:	80 91 5b 3e 	lds	r24, 0x3E5B	; 0x803e5b <checkPoint>
    2bb8:	91 e0       	ldi	r25, 0x01	; 1
    2bba:	98 0f       	add	r25, r24
    2bbc:	90 93 5b 3e 	sts	0x3E5B, r25	; 0x803e5b <checkPoint>
    2bc0:	8e 5b       	subi	r24, 0xBE	; 190
    2bc2:	80 93 49 3d 	sts	0x3D49, r24	; 0x803d49 <tileMap+0xde>
    2bc6:	10 92 08 38 	sts	0x3808, r1	; 0x803808 <messageFlash>
    2bca:	10 92 09 38 	sts	0x3809, r1	; 0x803809 <messageFlash+0x1>
    2bce:	df 91       	pop	r29
    2bd0:	cf 91       	pop	r28
    2bd2:	1f 91       	pop	r17
    2bd4:	0f 91       	pop	r16
    2bd6:	08 95       	ret

00002bd8 <drawTimeDigit>:
    2bd8:	94 2f       	mov	r25, r20
    2bda:	99 0f       	add	r25, r25
    2bdc:	49 0f       	add	r20, r25
    2bde:	90 e2       	ldi	r25, 0x20	; 32
    2be0:	69 9f       	mul	r22, r25
    2be2:	80 0d       	add	r24, r0
    2be4:	11 24       	eor	r1, r1
    2be6:	93 e0       	ldi	r25, 0x03	; 3
    2be8:	94 0f       	add	r25, r20
    2bea:	84 1b       	sub	r24, r20
    2bec:	50 e2       	ldi	r21, 0x20	; 32
    2bee:	e4 2f       	mov	r30, r20
    2bf0:	f0 e0       	ldi	r31, 0x00	; 0
    2bf2:	ee 0f       	add	r30, r30
    2bf4:	ff 1f       	adc	r31, r31
    2bf6:	ea 5b       	subi	r30, 0xBA	; 186
    2bf8:	f5 44       	sbci	r31, 0x45	; 69
    2bfa:	60 81       	ld	r22, Z
    2bfc:	71 81       	ldd	r23, Z+1	; 0x01
    2bfe:	e8 2f       	mov	r30, r24
    2c00:	e4 0f       	add	r30, r20
    2c02:	f0 e0       	ldi	r31, 0x00	; 0
    2c04:	e5 59       	subi	r30, 0x95	; 149
    2c06:	f3 4c       	sbci	r31, 0xC3	; 195
    2c08:	20 e0       	ldi	r18, 0x00	; 0
    2c0a:	30 e0       	ldi	r19, 0x00	; 0
    2c0c:	db 01       	movw	r26, r22
    2c0e:	02 2e       	mov	r0, r18
    2c10:	02 c0       	rjmp	.+4      	; 0x2c16 <drawTimeDigit+0x3e>
    2c12:	b5 95       	asr	r27
    2c14:	a7 95       	ror	r26
    2c16:	0a 94       	dec	r0
    2c18:	e2 f7       	brpl	.-8      	; 0x2c12 <drawTimeDigit+0x3a>
    2c1a:	a0 ff       	sbrs	r26, 0
    2c1c:	02 c0       	rjmp	.+4      	; 0x2c22 <drawTimeDigit+0x4a>
    2c1e:	10 82       	st	Z, r1
    2c20:	01 c0       	rjmp	.+2      	; 0x2c24 <drawTimeDigit+0x4c>
    2c22:	50 83       	st	Z, r21
    2c24:	2f 5f       	subi	r18, 0xFF	; 255
    2c26:	3f 4f       	sbci	r19, 0xFF	; 255
    2c28:	b0 96       	adiw	r30, 0x20	; 32
    2c2a:	25 30       	cpi	r18, 0x05	; 5
    2c2c:	31 05       	cpc	r19, r1
    2c2e:	71 f7       	brne	.-36     	; 0x2c0c <drawTimeDigit+0x34>
    2c30:	4f 5f       	subi	r20, 0xFF	; 255
    2c32:	49 13       	cpse	r20, r25
    2c34:	dc cf       	rjmp	.-72     	; 0x2bee <drawTimeDigit+0x16>
    2c36:	08 95       	ret

00002c38 <cls>:
    2c38:	40 e0       	ldi	r20, 0x00	; 0
    2c3a:	51 e0       	ldi	r21, 0x01	; 1
    2c3c:	60 e2       	ldi	r22, 0x20	; 32
    2c3e:	70 e0       	ldi	r23, 0x00	; 0
    2c40:	8b e6       	ldi	r24, 0x6B	; 107
    2c42:	9c e3       	ldi	r25, 0x3C	; 60
    2c44:	0c 94 30 1c 	jmp	0x3860	; 0x3860 <memset>

00002c48 <drawTime>:
    2c48:	cf 93       	push	r28
    2c4a:	0e 94 1c 16 	call	0x2c38	; 0x2c38 <cls>
    2c4e:	60 e0       	ldi	r22, 0x00	; 0
    2c50:	80 e0       	ldi	r24, 0x00	; 0
    2c52:	0e 94 00 07 	call	0xe00	; 0xe00 <setWindow>
    2c56:	c0 91 1d 38 	lds	r28, 0x381D	; 0x80381d <hours>
    2c5a:	80 91 1d 38 	lds	r24, 0x381D	; 0x80381d <hours>
    2c5e:	8a 30       	cpi	r24, 0x0A	; 10
    2c60:	40 f0       	brcs	.+16     	; 0x2c72 <drawTime+0x2a>
    2c62:	41 e0       	ldi	r20, 0x01	; 1
    2c64:	50 e0       	ldi	r21, 0x00	; 0
    2c66:	63 e0       	ldi	r22, 0x03	; 3
    2c68:	70 e0       	ldi	r23, 0x00	; 0
    2c6a:	80 e0       	ldi	r24, 0x00	; 0
    2c6c:	90 e0       	ldi	r25, 0x00	; 0
    2c6e:	0e 94 ec 15 	call	0x2bd8	; 0x2bd8 <drawTimeDigit>
    2c72:	8c 2f       	mov	r24, r28
    2c74:	6a e0       	ldi	r22, 0x0A	; 10
    2c76:	0e 94 fc 1b 	call	0x37f8	; 0x37f8 <__udivmodqi4>
    2c7a:	49 2f       	mov	r20, r25
    2c7c:	50 e0       	ldi	r21, 0x00	; 0
    2c7e:	63 e0       	ldi	r22, 0x03	; 3
    2c80:	70 e0       	ldi	r23, 0x00	; 0
    2c82:	83 e0       	ldi	r24, 0x03	; 3
    2c84:	90 e0       	ldi	r25, 0x00	; 0
    2c86:	0e 94 ec 15 	call	0x2bd8	; 0x2bd8 <drawTimeDigit>
    2c8a:	80 91 49 38 	lds	r24, 0x3849	; 0x803849 <seconds>
    2c8e:	80 ff       	sbrs	r24, 0
    2c90:	08 c0       	rjmp	.+16     	; 0x2ca2 <drawTime+0x5a>
    2c92:	4a e0       	ldi	r20, 0x0A	; 10
    2c94:	50 e0       	ldi	r21, 0x00	; 0
    2c96:	63 e0       	ldi	r22, 0x03	; 3
    2c98:	70 e0       	ldi	r23, 0x00	; 0
    2c9a:	87 e0       	ldi	r24, 0x07	; 7
    2c9c:	90 e0       	ldi	r25, 0x00	; 0
    2c9e:	0e 94 ec 15 	call	0x2bd8	; 0x2bd8 <drawTimeDigit>
    2ca2:	c0 91 1c 38 	lds	r28, 0x381C	; 0x80381c <minutes>
    2ca6:	ca 30       	cpi	r28, 0x0A	; 10
    2ca8:	38 f0       	brcs	.+14     	; 0x2cb8 <drawTime+0x70>
    2caa:	8c 2f       	mov	r24, r28
    2cac:	6a e0       	ldi	r22, 0x0A	; 10
    2cae:	0e 94 fc 1b 	call	0x37f8	; 0x37f8 <__udivmodqi4>
    2cb2:	48 2f       	mov	r20, r24
    2cb4:	50 e0       	ldi	r21, 0x00	; 0
    2cb6:	02 c0       	rjmp	.+4      	; 0x2cbc <drawTime+0x74>
    2cb8:	40 e0       	ldi	r20, 0x00	; 0
    2cba:	50 e0       	ldi	r21, 0x00	; 0
    2cbc:	63 e0       	ldi	r22, 0x03	; 3
    2cbe:	70 e0       	ldi	r23, 0x00	; 0
    2cc0:	89 e0       	ldi	r24, 0x09	; 9
    2cc2:	90 e0       	ldi	r25, 0x00	; 0
    2cc4:	0e 94 ec 15 	call	0x2bd8	; 0x2bd8 <drawTimeDigit>
    2cc8:	8c 2f       	mov	r24, r28
    2cca:	6a e0       	ldi	r22, 0x0A	; 10
    2ccc:	0e 94 fc 1b 	call	0x37f8	; 0x37f8 <__udivmodqi4>
    2cd0:	49 2f       	mov	r20, r25
    2cd2:	50 e0       	ldi	r21, 0x00	; 0
    2cd4:	63 e0       	ldi	r22, 0x03	; 3
    2cd6:	70 e0       	ldi	r23, 0x00	; 0
    2cd8:	8d e0       	ldi	r24, 0x0D	; 13
    2cda:	90 e0       	ldi	r25, 0x00	; 0
    2cdc:	0e 94 ec 15 	call	0x2bd8	; 0x2bd8 <drawTimeDigit>
    2ce0:	80 91 3a 38 	lds	r24, 0x383A	; 0x80383a <playerTimer>
    2ce4:	90 91 3b 38 	lds	r25, 0x383B	; 0x80383b <playerTimer+0x1>
    2ce8:	00 97       	sbiw	r24, 0x00	; 0
    2cea:	09 f4       	brne	.+2      	; 0x2cee <drawTime+0xa6>
    2cec:	75 c0       	rjmp	.+234    	; 0x2dd8 <drawTime+0x190>
    2cee:	01 97       	sbiw	r24, 0x01	; 1
    2cf0:	80 93 3a 38 	sts	0x383A, r24	; 0x80383a <playerTimer>
    2cf4:	90 93 3b 38 	sts	0x383B, r25	; 0x80383b <playerTimer+0x1>
    2cf8:	8c e3       	ldi	r24, 0x3C	; 60
    2cfa:	80 93 6b 3c 	sts	0x3C6B, r24	; 0x803c6b <tileMap>
    2cfe:	8e e3       	ldi	r24, 0x3E	; 62
    2d00:	80 93 7a 3c 	sts	0x3C7A, r24	; 0x803c7a <tileMap+0xf>
    2d04:	80 91 45 38 	lds	r24, 0x3845	; 0x803845 <changeTime>
    2d08:	81 30       	cpi	r24, 0x01	; 1
    2d0a:	99 f0       	breq	.+38     	; 0x2d32 <drawTime+0xea>
    2d0c:	38 f0       	brcs	.+14     	; 0x2d1c <drawTime+0xd4>
    2d0e:	82 30       	cpi	r24, 0x02	; 2
    2d10:	b1 f4       	brne	.+44     	; 0x2d3e <drawTime+0xf6>
    2d12:	6f ea       	ldi	r22, 0xAF	; 175
    2d14:	7c e3       	ldi	r23, 0x3C	; 60
    2d16:	8d e0       	ldi	r24, 0x0D	; 13
    2d18:	99 eb       	ldi	r25, 0xB9	; 185
    2d1a:	0f c0       	rjmp	.+30     	; 0x2d3a <drawTime+0xf2>
    2d1c:	6d e8       	ldi	r22, 0x8D	; 141
    2d1e:	7c e3       	ldi	r23, 0x3C	; 60
    2d20:	8c ee       	ldi	r24, 0xEC	; 236
    2d22:	98 eb       	ldi	r25, 0xB8	; 184
    2d24:	0e 94 f0 0e 	call	0x1de0	; 0x1de0 <drawText>
    2d28:	6d e6       	ldi	r22, 0x6D	; 109
    2d2a:	7c e3       	ldi	r23, 0x3C	; 60
    2d2c:	87 ef       	ldi	r24, 0xF7	; 247
    2d2e:	98 eb       	ldi	r25, 0xB8	; 184
    2d30:	04 c0       	rjmp	.+8      	; 0x2d3a <drawTime+0xf2>
    2d32:	6e ea       	ldi	r22, 0xAE	; 174
    2d34:	7c e3       	ldi	r23, 0x3C	; 60
    2d36:	84 e0       	ldi	r24, 0x04	; 4
    2d38:	99 eb       	ldi	r25, 0xB9	; 185
    2d3a:	0e 94 f0 0e 	call	0x1de0	; 0x1de0 <drawText>
    2d3e:	80 91 45 38 	lds	r24, 0x3845	; 0x803845 <changeTime>
    2d42:	88 23       	and	r24, r24
    2d44:	09 f4       	brne	.+2      	; 0x2d48 <drawTime+0x100>
    2d46:	48 c0       	rjmp	.+144    	; 0x2dd8 <drawTime+0x190>
    2d48:	6d e6       	ldi	r22, 0x6D	; 109
    2d4a:	7c e3       	ldi	r23, 0x3C	; 60
    2d4c:	88 e1       	ldi	r24, 0x18	; 24
    2d4e:	99 eb       	ldi	r25, 0xB9	; 185
    2d50:	0e 94 f0 0e 	call	0x1de0	; 0x1de0 <drawText>
    2d54:	90 91 47 38 	lds	r25, 0x3847	; 0x803847 <buttonsPressed>
    2d58:	90 ff       	sbrs	r25, 0
    2d5a:	1d c0       	rjmp	.+58     	; 0x2d96 <drawTime+0x14e>
    2d5c:	2c e2       	ldi	r18, 0x2C	; 44
    2d5e:	31 e0       	ldi	r19, 0x01	; 1
    2d60:	20 93 3a 38 	sts	0x383A, r18	; 0x80383a <playerTimer>
    2d64:	30 93 3b 38 	sts	0x383B, r19	; 0x80383b <playerTimer+0x1>
    2d68:	20 91 45 38 	lds	r18, 0x3845	; 0x803845 <changeTime>
    2d6c:	21 30       	cpi	r18, 0x01	; 1
    2d6e:	51 f4       	brne	.+20     	; 0x2d84 <drawTime+0x13c>
    2d70:	80 91 1d 38 	lds	r24, 0x381D	; 0x80381d <hours>
    2d74:	8f 5f       	subi	r24, 0xFF	; 255
    2d76:	80 93 1d 38 	sts	0x381D, r24	; 0x80381d <hours>
    2d7a:	8d 30       	cpi	r24, 0x0D	; 13
    2d7c:	61 f4       	brne	.+24     	; 0x2d96 <drawTime+0x14e>
    2d7e:	20 93 1d 38 	sts	0x381D, r18	; 0x80381d <hours>
    2d82:	09 c0       	rjmp	.+18     	; 0x2d96 <drawTime+0x14e>
    2d84:	80 91 1c 38 	lds	r24, 0x381C	; 0x80381c <minutes>
    2d88:	8f 5f       	subi	r24, 0xFF	; 255
    2d8a:	80 93 1c 38 	sts	0x381C, r24	; 0x80381c <minutes>
    2d8e:	8c 33       	cpi	r24, 0x3C	; 60
    2d90:	11 f4       	brne	.+4      	; 0x2d96 <drawTime+0x14e>
    2d92:	10 92 1c 38 	sts	0x381C, r1	; 0x80381c <minutes>
    2d96:	91 ff       	sbrs	r25, 1
    2d98:	1f c0       	rjmp	.+62     	; 0x2dd8 <drawTime+0x190>
    2d9a:	8c e2       	ldi	r24, 0x2C	; 44
    2d9c:	91 e0       	ldi	r25, 0x01	; 1
    2d9e:	80 93 3a 38 	sts	0x383A, r24	; 0x80383a <playerTimer>
    2da2:	90 93 3b 38 	sts	0x383B, r25	; 0x80383b <playerTimer+0x1>
    2da6:	80 91 45 38 	lds	r24, 0x3845	; 0x803845 <changeTime>
    2daa:	81 30       	cpi	r24, 0x01	; 1
    2dac:	59 f4       	brne	.+22     	; 0x2dc4 <drawTime+0x17c>
    2dae:	80 91 1d 38 	lds	r24, 0x381D	; 0x80381d <hours>
    2db2:	81 50       	subi	r24, 0x01	; 1
    2db4:	80 93 1d 38 	sts	0x381D, r24	; 0x80381d <hours>
    2db8:	81 11       	cpse	r24, r1
    2dba:	0e c0       	rjmp	.+28     	; 0x2dd8 <drawTime+0x190>
    2dbc:	8c e0       	ldi	r24, 0x0C	; 12
    2dbe:	80 93 1d 38 	sts	0x381D, r24	; 0x80381d <hours>
    2dc2:	0a c0       	rjmp	.+20     	; 0x2dd8 <drawTime+0x190>
    2dc4:	80 91 1c 38 	lds	r24, 0x381C	; 0x80381c <minutes>
    2dc8:	81 50       	subi	r24, 0x01	; 1
    2dca:	80 93 1c 38 	sts	0x381C, r24	; 0x80381c <minutes>
    2dce:	8f 3f       	cpi	r24, 0xFF	; 255
    2dd0:	19 f4       	brne	.+6      	; 0x2dd8 <drawTime+0x190>
    2dd2:	8b e3       	ldi	r24, 0x3B	; 59
    2dd4:	80 93 1c 38 	sts	0x381C, r24	; 0x80381c <minutes>
    2dd8:	cf 91       	pop	r28
    2dda:	08 95       	ret

00002ddc <drawTitle>:
    2ddc:	0e 94 1c 16 	call	0x2c38	; 0x2c38 <cls>
    2de0:	85 e0       	ldi	r24, 0x05	; 5
    2de2:	0e 94 65 0e 	call	0x1cca	; 0x1cca <drawMountains2>
    2de6:	60 e0       	ldi	r22, 0x00	; 0
    2de8:	80 e0       	ldi	r24, 0x00	; 0
    2dea:	0e 94 00 07 	call	0xe00	; 0xe00 <setWindow>
    2dee:	eb e6       	ldi	r30, 0x6B	; 107
    2df0:	fc e3       	ldi	r31, 0x3C	; 60
    2df2:	8c e3       	ldi	r24, 0x3C	; 60
    2df4:	80 83       	st	Z, r24
    2df6:	8e e3       	ldi	r24, 0x3E	; 62
    2df8:	87 87       	std	Z+15, r24	; 0x0f
    2dfa:	6e e6       	ldi	r22, 0x6E	; 110
    2dfc:	7c e3       	ldi	r23, 0x3C	; 60
    2dfe:	81 e2       	ldi	r24, 0x21	; 33
    2e00:	99 eb       	ldi	r25, 0xB9	; 185
    2e02:	0e 94 f0 0e 	call	0x1de0	; 0x1de0 <drawText>
    2e06:	6c ec       	ldi	r22, 0xCC	; 204
    2e08:	7c e3       	ldi	r23, 0x3C	; 60
    2e0a:	8c e2       	ldi	r24, 0x2C	; 44
    2e0c:	99 eb       	ldi	r25, 0xB9	; 185
    2e0e:	0e 94 f0 0e 	call	0x1de0	; 0x1de0 <drawText>
    2e12:	60 e5       	ldi	r22, 0x50	; 80
    2e14:	7d e3       	ldi	r23, 0x3D	; 61
    2e16:	8b e3       	ldi	r24, 0x3B	; 59
    2e18:	99 eb       	ldi	r25, 0xB9	; 185
    2e1a:	0e 94 f0 0e 	call	0x1de0	; 0x1de0 <drawText>
    2e1e:	60 e6       	ldi	r22, 0x60	; 96
    2e20:	7d e3       	ldi	r23, 0x3D	; 61
    2e22:	84 e4       	ldi	r24, 0x44	; 68
    2e24:	99 eb       	ldi	r25, 0xB9	; 185
    2e26:	0e 94 f0 0e 	call	0x1de0	; 0x1de0 <drawText>
    2e2a:	81 e0       	ldi	r24, 0x01	; 1
    2e2c:	80 93 5c 3e 	sts	0x3E5C, r24	; 0x803e5c <isDrawn>
    2e30:	08 95       	ret

00002e32 <drawMoonscape>:
    2e32:	0f 93       	push	r16
    2e34:	1f 93       	push	r17
    2e36:	cf 93       	push	r28
    2e38:	df 93       	push	r29
    2e3a:	0e 94 1c 16 	call	0x2c38	; 0x2c38 <cls>
    2e3e:	9b e0       	ldi	r25, 0x0B	; 11
    2e40:	90 93 6b 3c 	sts	0x3C6B, r25	; 0x803c6b <tileMap>
    2e44:	89 e8       	ldi	r24, 0x89	; 137
    2e46:	80 93 70 3c 	sts	0x3C70, r24	; 0x803c70 <tileMap+0x5>
    2e4a:	26 e8       	ldi	r18, 0x86	; 134
    2e4c:	20 93 72 3c 	sts	0x3C72, r18	; 0x803c72 <tileMap+0x7>
    2e50:	20 93 97 3c 	sts	0x3C97, r18	; 0x803c97 <tileMap+0x2c>
    2e54:	90 93 8d 3c 	sts	0x3C8D, r25	; 0x803c8d <tileMap+0x22>
    2e58:	80 93 91 3c 	sts	0x3C91, r24	; 0x803c91 <tileMap+0x26>
    2e5c:	20 93 94 3c 	sts	0x3C94, r18	; 0x803c94 <tileMap+0x29>
    2e60:	90 93 7a 3c 	sts	0x3C7A, r25	; 0x803c7a <tileMap+0xf>
    2e64:	80 93 89 3c 	sts	0x3C89, r24	; 0x803c89 <tileMap+0x1e>
    2e68:	8c e6       	ldi	r24, 0x6C	; 108
    2e6a:	80 93 76 3c 	sts	0x3C76, r24	; 0x803c76 <tileMap+0xb>
    2e6e:	90 91 74 3d 	lds	r25, 0x3D74	; 0x803d74 <stage>
    2e72:	43 e0       	ldi	r20, 0x03	; 3
    2e74:	6a e1       	ldi	r22, 0x1A	; 26
    2e76:	8e e0       	ldi	r24, 0x0E	; 14
    2e78:	89 1b       	sub	r24, r25
    2e7a:	0e 94 55 0e 	call	0x1caa	; 0x1caa <fillTiles>
    2e7e:	90 91 74 3d 	lds	r25, 0x3D74	; 0x803d74 <stage>
    2e82:	43 e0       	ldi	r20, 0x03	; 3
    2e84:	6d e1       	ldi	r22, 0x1D	; 29
    2e86:	8e e2       	ldi	r24, 0x2E	; 46
    2e88:	89 1b       	sub	r24, r25
    2e8a:	0e 94 55 0e 	call	0x1caa	; 0x1caa <fillTiles>
    2e8e:	82 e0       	ldi	r24, 0x02	; 2
    2e90:	0e 94 65 0e 	call	0x1cca	; 0x1cca <drawMountains2>
    2e94:	80 91 74 3d 	lds	r24, 0x3D74	; 0x803d74 <stage>
    2e98:	80 ff       	sbrs	r24, 0
    2e9a:	13 c0       	rjmp	.+38     	; 0x2ec2 <drawMoonscape+0x90>
    2e9c:	4d e0       	ldi	r20, 0x0D	; 13
    2e9e:	63 e0       	ldi	r22, 0x03	; 3
    2ea0:	80 ea       	ldi	r24, 0xA0	; 160
    2ea2:	0e 94 55 0e 	call	0x1caa	; 0x1caa <fillTiles>
    2ea6:	42 e0       	ldi	r20, 0x02	; 2
    2ea8:	61 e1       	ldi	r22, 0x11	; 17
    2eaa:	80 e8       	ldi	r24, 0x80	; 128
    2eac:	0e 94 55 0e 	call	0x1caa	; 0x1caa <fillTiles>
    2eb0:	42 e0       	ldi	r20, 0x02	; 2
    2eb2:	63 e1       	ldi	r22, 0x13	; 19
    2eb4:	87 e8       	ldi	r24, 0x87	; 135
    2eb6:	0e 94 55 0e 	call	0x1caa	; 0x1caa <fillTiles>
    2eba:	45 e0       	ldi	r20, 0x05	; 5
    2ebc:	65 e1       	ldi	r22, 0x15	; 21
    2ebe:	8b e8       	ldi	r24, 0x8B	; 139
    2ec0:	39 c0       	rjmp	.+114    	; 0x2f34 <drawMoonscape+0x102>
    2ec2:	eb e0       	ldi	r30, 0x0B	; 11
    2ec4:	fd e3       	ldi	r31, 0x3D	; 61
    2ec6:	8b e2       	ldi	r24, 0x2B	; 43
    2ec8:	9d e3       	ldi	r25, 0x3D	; 61
    2eca:	2c e7       	ldi	r18, 0x7C	; 124
    2ecc:	21 93       	st	Z+, r18
    2ece:	8e 17       	cp	r24, r30
    2ed0:	9f 07       	cpc	r25, r31
    2ed2:	e1 f7       	brne	.-8      	; 0x2ecc <drawMoonscape+0x9a>
    2ed4:	43 e0       	ldi	r20, 0x03	; 3
    2ed6:	60 e6       	ldi	r22, 0x60	; 96
    2ed8:	80 e8       	ldi	r24, 0x80	; 128
    2eda:	0e 94 55 0e 	call	0x1caa	; 0x1caa <fillTiles>
    2ede:	43 e0       	ldi	r20, 0x03	; 3
    2ee0:	60 e7       	ldi	r22, 0x70	; 112
    2ee2:	80 ea       	ldi	r24, 0xA0	; 160
    2ee4:	0e 94 55 0e 	call	0x1caa	; 0x1caa <fillTiles>
    2ee8:	42 e0       	ldi	r20, 0x02	; 2
    2eea:	63 e6       	ldi	r22, 0x63	; 99
    2eec:	84 e8       	ldi	r24, 0x84	; 132
    2eee:	0e 94 55 0e 	call	0x1caa	; 0x1caa <fillTiles>
    2ef2:	42 e0       	ldi	r20, 0x02	; 2
    2ef4:	63 e7       	ldi	r22, 0x73	; 115
    2ef6:	84 ea       	ldi	r24, 0xA4	; 164
    2ef8:	0e 94 55 0e 	call	0x1caa	; 0x1caa <fillTiles>
    2efc:	42 e0       	ldi	r20, 0x02	; 2
    2efe:	65 e6       	ldi	r22, 0x65	; 101
    2f00:	87 e8       	ldi	r24, 0x87	; 135
    2f02:	0e 94 55 0e 	call	0x1caa	; 0x1caa <fillTiles>
    2f06:	42 e0       	ldi	r20, 0x02	; 2
    2f08:	65 e7       	ldi	r22, 0x75	; 117
    2f0a:	87 ea       	ldi	r24, 0xA7	; 167
    2f0c:	0e 94 55 0e 	call	0x1caa	; 0x1caa <fillTiles>
    2f10:	43 e0       	ldi	r20, 0x03	; 3
    2f12:	67 e6       	ldi	r22, 0x67	; 103
    2f14:	8a e8       	ldi	r24, 0x8A	; 138
    2f16:	0e 94 55 0e 	call	0x1caa	; 0x1caa <fillTiles>
    2f1a:	43 e0       	ldi	r20, 0x03	; 3
    2f1c:	67 e7       	ldi	r22, 0x77	; 119
    2f1e:	8a ea       	ldi	r24, 0xAA	; 170
    2f20:	0e 94 55 0e 	call	0x1caa	; 0x1caa <fillTiles>
    2f24:	42 e0       	ldi	r20, 0x02	; 2
    2f26:	6a e6       	ldi	r22, 0x6A	; 106
    2f28:	8d e8       	ldi	r24, 0x8D	; 141
    2f2a:	0e 94 55 0e 	call	0x1caa	; 0x1caa <fillTiles>
    2f2e:	42 e0       	ldi	r20, 0x02	; 2
    2f30:	6a e7       	ldi	r22, 0x7A	; 122
    2f32:	8d ea       	ldi	r24, 0xAD	; 173
    2f34:	0e 94 55 0e 	call	0x1caa	; 0x1caa <fillTiles>
    2f38:	eb ee       	ldi	r30, 0xEB	; 235
    2f3a:	fc e3       	ldi	r31, 0x3C	; 60
    2f3c:	81 91       	ld	r24, Z+
    2f3e:	87 87       	std	Z+15, r24	; 0x0f
    2f40:	87 8d       	ldd	r24, Z+31	; 0x1f
    2f42:	87 a7       	std	Z+47, r24	; 0x2f
    2f44:	8c e3       	ldi	r24, 0x3C	; 60
    2f46:	eb 3f       	cpi	r30, 0xFB	; 251
    2f48:	f8 07       	cpc	r31, r24
    2f4a:	c1 f7       	brne	.-16     	; 0x2f3c <drawMoonscape+0x10a>
    2f4c:	cb e4       	ldi	r28, 0x4B	; 75
    2f4e:	dd e3       	ldi	r29, 0x3D	; 61
    2f50:	0b e6       	ldi	r16, 0x6B	; 107
    2f52:	1d e3       	ldi	r17, 0x3D	; 61
    2f54:	0e 94 7d 0a 	call	0x14fa	; 0x14fa <getGround>
    2f58:	89 93       	st	Y+, r24
    2f5a:	0c 17       	cp	r16, r28
    2f5c:	1d 07       	cpc	r17, r29
    2f5e:	d1 f7       	brne	.-12     	; 0x2f54 <drawMoonscape+0x122>
    2f60:	10 92 43 38 	sts	0x3843, r1	; 0x803843 <xWindow>
    2f64:	10 92 44 38 	sts	0x3844, r1	; 0x803844 <xWindow+0x1>
    2f68:	0e 94 15 0b 	call	0x162a	; 0x162a <clearShots>
    2f6c:	0e 94 1e 0b 	call	0x163c	; 0x163c <clearEnemies>
    2f70:	6d e3       	ldi	r22, 0x3D	; 61
    2f72:	7d e3       	ldi	r23, 0x3D	; 61
    2f74:	80 e5       	ldi	r24, 0x50	; 80
    2f76:	99 eb       	ldi	r25, 0xB9	; 185
    2f78:	0e 94 f0 0e 	call	0x1de0	; 0x1de0 <drawText>
    2f7c:	80 91 5b 3e 	lds	r24, 0x3E5B	; 0x803e5b <checkPoint>
    2f80:	8f 5b       	subi	r24, 0xBF	; 191
    2f82:	80 93 49 3d 	sts	0x3D49, r24	; 0x803d49 <tileMap+0xde>
    2f86:	10 92 08 38 	sts	0x3808, r1	; 0x803808 <messageFlash>
    2f8a:	10 92 09 38 	sts	0x3809, r1	; 0x803809 <messageFlash+0x1>
    2f8e:	df 91       	pop	r29
    2f90:	cf 91       	pop	r28
    2f92:	1f 91       	pop	r17
    2f94:	0f 91       	pop	r16
    2f96:	08 95       	ret

00002f98 <drawHighScores>:
    2f98:	0f 93       	push	r16
    2f9a:	1f 93       	push	r17
    2f9c:	cf 93       	push	r28
    2f9e:	df 93       	push	r29
    2fa0:	0e 94 1c 16 	call	0x2c38	; 0x2c38 <cls>
    2fa4:	60 e0       	ldi	r22, 0x00	; 0
    2fa6:	80 e0       	ldi	r24, 0x00	; 0
    2fa8:	0e 94 00 07 	call	0xe00	; 0xe00 <setWindow>
    2fac:	8c e3       	ldi	r24, 0x3C	; 60
    2fae:	80 93 6b 3c 	sts	0x3C6B, r24	; 0x803c6b <tileMap>
    2fb2:	8e e3       	ldi	r24, 0x3E	; 62
    2fb4:	80 93 7a 3c 	sts	0x3C7A, r24	; 0x803c7a <tileMap+0xf>
    2fb8:	6e e6       	ldi	r22, 0x6E	; 110
    2fba:	7c e3       	ldi	r23, 0x3C	; 60
    2fbc:	8f e5       	ldi	r24, 0x5F	; 95
    2fbe:	99 eb       	ldi	r25, 0xB9	; 185
    2fc0:	0e 94 f0 0e 	call	0x1de0	; 0x1de0 <drawText>
    2fc4:	04 e0       	ldi	r16, 0x04	; 4
    2fc6:	14 e1       	ldi	r17, 0x14	; 20
    2fc8:	d1 e3       	ldi	r29, 0x31	; 49
    2fca:	c0 e4       	ldi	r28, 0x40	; 64
    2fcc:	4c 2f       	mov	r20, r28
    2fce:	50 e0       	ldi	r21, 0x00	; 0
    2fd0:	fa 01       	movw	r30, r20
    2fd2:	e5 59       	subi	r30, 0x95	; 149
    2fd4:	f3 4c       	sbci	r31, 0xC3	; 195
    2fd6:	d0 83       	st	Z, r29
    2fd8:	da 01       	movw	r26, r20
    2fda:	a3 59       	subi	r26, 0x93	; 147
    2fdc:	b3 4c       	sbci	r27, 0xC3	; 195
    2fde:	93 ec       	ldi	r25, 0xC3	; 195
    2fe0:	9c 0f       	add	r25, r28
    2fe2:	80 ec       	ldi	r24, 0xC0	; 192
    2fe4:	8c 0f       	add	r24, r28
    2fe6:	e8 2f       	mov	r30, r24
    2fe8:	f0 e0       	ldi	r31, 0x00	; 0
    2fea:	fc 5e       	subi	r31, 0xEC	; 236
    2fec:	20 81       	ld	r18, Z
    2fee:	2d 93       	st	X+, r18
    2ff0:	8f 5f       	subi	r24, 0xFF	; 255
    2ff2:	98 13       	cpse	r25, r24
    2ff4:	f8 cf       	rjmp	.-16     	; 0x2fe6 <drawHighScores+0x4e>
    2ff6:	f8 01       	movw	r30, r16
    2ff8:	60 81       	ld	r22, Z
    2ffa:	71 81       	ldd	r23, Z+1	; 0x01
    2ffc:	82 81       	ldd	r24, Z+2	; 0x02
    2ffe:	93 81       	ldd	r25, Z+3	; 0x03
    3000:	4f 58       	subi	r20, 0x8F	; 143
    3002:	53 4c       	sbci	r21, 0xC3	; 195
    3004:	0e 94 8c 0e 	call	0x1d18	; 0x1d18 <drawDecimal>
    3008:	c0 5e       	subi	r28, 0xE0	; 224
    300a:	df 5f       	subi	r29, 0xFF	; 255
    300c:	00 5e       	subi	r16, 0xE0	; 224
    300e:	1f 4f       	sbci	r17, 0xFF	; 255
    3010:	c1 11       	cpse	r28, r1
    3012:	dc cf       	rjmp	.-72     	; 0x2fcc <drawHighScores+0x34>
    3014:	81 e0       	ldi	r24, 0x01	; 1
    3016:	80 93 5c 3e 	sts	0x3E5C, r24	; 0x803e5c <isDrawn>
    301a:	df 91       	pop	r29
    301c:	cf 91       	pop	r28
    301e:	1f 91       	pop	r17
    3020:	0f 91       	pop	r16
    3022:	08 95       	ret

00003024 <drawNameEntryScreen>:
    3024:	0e 94 1c 16 	call	0x2c38	; 0x2c38 <cls>
    3028:	60 e0       	ldi	r22, 0x00	; 0
    302a:	80 e0       	ldi	r24, 0x00	; 0
    302c:	0e 94 00 07 	call	0xe00	; 0xe00 <setWindow>
    3030:	10 92 43 38 	sts	0x3843, r1	; 0x803843 <xWindow>
    3034:	10 92 44 38 	sts	0x3844, r1	; 0x803844 <xWindow+0x1>
    3038:	43 e0       	ldi	r20, 0x03	; 3
    303a:	50 e0       	ldi	r21, 0x00	; 0
    303c:	6c e7       	ldi	r22, 0x7C	; 124
    303e:	70 e0       	ldi	r23, 0x00	; 0
    3040:	81 e0       	ldi	r24, 0x01	; 1
    3042:	98 e3       	ldi	r25, 0x38	; 56
    3044:	0e 94 30 1c 	call	0x3860	; 0x3860 <memset>
    3048:	0e 94 aa 0a 	call	0x1554	; 0x1554 <findScorePosition>
    304c:	80 91 00 38 	lds	r24, 0x3800	; 0x803800 <__DATA_REGION_ORIGIN__>
    3050:	8f 3f       	cpi	r24, 0xFF	; 255
    3052:	31 f4       	brne	.+12     	; 0x3060 <drawNameEntryScreen+0x3c>
    3054:	88 e0       	ldi	r24, 0x08	; 8
    3056:	80 93 05 38 	sts	0x3805, r24	; 0x803805 <gameState>
    305a:	10 92 5c 3e 	sts	0x3E5C, r1	; 0x803e5c <isDrawn>
    305e:	08 95       	ret
    3060:	6c e6       	ldi	r22, 0x6C	; 108
    3062:	7c e3       	ldi	r23, 0x3C	; 60
    3064:	8a e6       	ldi	r24, 0x6A	; 106
    3066:	99 eb       	ldi	r25, 0xB9	; 185
    3068:	0e 94 f0 0e 	call	0x1de0	; 0x1de0 <drawText>
    306c:	80 91 00 38 	lds	r24, 0x3800	; 0x803800 <__DATA_REGION_ORIGIN__>
    3070:	80 5d       	subi	r24, 0xD0	; 208
    3072:	80 93 79 3c 	sts	0x3C79, r24	; 0x803c79 <tileMap+0xe>
    3076:	60 91 2e 38 	lds	r22, 0x382E	; 0x80382e <score>
    307a:	70 91 2f 38 	lds	r23, 0x382F	; 0x80382f <score+0x1>
    307e:	80 91 30 38 	lds	r24, 0x3830	; 0x803830 <score+0x2>
    3082:	90 91 31 38 	lds	r25, 0x3831	; 0x803831 <score+0x3>
    3086:	4f ec       	ldi	r20, 0xCF	; 207
    3088:	5c e3       	ldi	r21, 0x3C	; 60
    308a:	0e 94 8c 0e 	call	0x1d18	; 0x1d18 <drawDecimal>
    308e:	8d e5       	ldi	r24, 0x5D	; 93
    3090:	80 93 32 3d 	sts	0x3D32, r24	; 0x803d32 <tileMap+0xc7>
    3094:	81 e4       	ldi	r24, 0x41	; 65
    3096:	80 93 13 38 	sts	0x3813, r24	; 0x803813 <bugX>
    309a:	10 92 12 38 	sts	0x3812, r1	; 0x803812 <bugY>
    309e:	6b e4       	ldi	r22, 0x4B	; 75
    30a0:	7d e3       	ldi	r23, 0x3D	; 61
    30a2:	87 e7       	ldi	r24, 0x77	; 119
    30a4:	99 eb       	ldi	r25, 0xB9	; 185
    30a6:	0e 94 f0 0e 	call	0x1de0	; 0x1de0 <drawText>
    30aa:	10 92 3a 38 	sts	0x383A, r1	; 0x80383a <playerTimer>
    30ae:	10 92 3b 38 	sts	0x383B, r1	; 0x80383b <playerTimer+0x1>
    30b2:	81 e0       	ldi	r24, 0x01	; 1
    30b4:	80 93 5c 3e 	sts	0x3E5C, r24	; 0x803e5c <isDrawn>
    30b8:	08 95       	ret

000030ba <eepromWrite>:
    30ba:	db 01       	movw	r26, r22
    30bc:	90 91 02 10 	lds	r25, 0x1002	; 0x801002 <jumpVelocity+0x7f557a>
    30c0:	91 fd       	sbrc	r25, 1
    30c2:	fc cf       	rjmp	.-8      	; 0x30bc <eepromWrite+0x2>
    30c4:	e8 2f       	mov	r30, r24
    30c6:	f0 e0       	ldi	r31, 0x00	; 0
    30c8:	fc 5e       	subi	r31, 0xEC	; 236
    30ca:	9c 91       	ld	r25, X
    30cc:	90 83       	st	Z, r25
    30ce:	e1 e0       	ldi	r30, 0x01	; 1
    30d0:	e8 0f       	add	r30, r24
    30d2:	f0 e0       	ldi	r31, 0x00	; 0
    30d4:	fc 5e       	subi	r31, 0xEC	; 236
    30d6:	11 96       	adiw	r26, 0x01	; 1
    30d8:	9c 91       	ld	r25, X
    30da:	11 97       	sbiw	r26, 0x01	; 1
    30dc:	90 83       	st	Z, r25
    30de:	e2 e0       	ldi	r30, 0x02	; 2
    30e0:	e8 0f       	add	r30, r24
    30e2:	f0 e0       	ldi	r31, 0x00	; 0
    30e4:	fc 5e       	subi	r31, 0xEC	; 236
    30e6:	12 96       	adiw	r26, 0x02	; 2
    30e8:	9c 91       	ld	r25, X
    30ea:	90 83       	st	Z, r25
    30ec:	8d 5f       	subi	r24, 0xFD	; 253
    30ee:	90 e0       	ldi	r25, 0x00	; 0
    30f0:	fc 01       	movw	r30, r24
    30f2:	ef 5f       	subi	r30, 0xFF	; 255
    30f4:	fb 4e       	sbci	r31, 0xEB	; 235
    30f6:	20 83       	st	Z, r18
    30f8:	31 83       	std	Z+1, r19	; 0x01
    30fa:	32 96       	adiw	r30, 0x02	; 2
    30fc:	ca 01       	movw	r24, r20
    30fe:	aa 27       	eor	r26, r26
    3100:	bb 27       	eor	r27, r27
    3102:	80 83       	st	Z, r24
    3104:	91 83       	std	Z+1, r25	; 0x01
    3106:	8d e9       	ldi	r24, 0x9D	; 157
    3108:	84 bf       	out	0x34, r24	; 52
    310a:	83 e0       	ldi	r24, 0x03	; 3
    310c:	80 93 00 10 	sts	0x1000, r24	; 0x801000 <jumpVelocity+0x7f5578>
    3110:	08 95       	ret

00003112 <updateHighScores>:
    3112:	0f 93       	push	r16
    3114:	1f 93       	push	r17
    3116:	cf 93       	push	r28
    3118:	80 91 00 38 	lds	r24, 0x3800	; 0x803800 <__DATA_REGION_ORIGIN__>
    311c:	81 50       	subi	r24, 0x01	; 1
    311e:	80 93 00 38 	sts	0x3800, r24	; 0x803800 <__DATA_REGION_ORIGIN__>
    3122:	85 30       	cpi	r24, 0x05	; 5
    3124:	20 f4       	brcc	.+8      	; 0x312e <updateHighScores+0x1c>
    3126:	c0 e8       	ldi	r28, 0x80	; 128
    3128:	04 e0       	ldi	r16, 0x04	; 4
    312a:	10 e0       	ldi	r17, 0x00	; 0
    312c:	1a c0       	rjmp	.+52     	; 0x3162 <updateHighScores+0x50>
    312e:	20 91 2e 38 	lds	r18, 0x382E	; 0x80382e <score>
    3132:	30 91 2f 38 	lds	r19, 0x382F	; 0x80382f <score+0x1>
    3136:	40 91 30 38 	lds	r20, 0x3830	; 0x803830 <score+0x2>
    313a:	50 91 31 38 	lds	r21, 0x3831	; 0x803831 <score+0x3>
    313e:	80 91 00 38 	lds	r24, 0x3800	; 0x803800 <__DATA_REGION_ORIGIN__>
    3142:	61 e0       	ldi	r22, 0x01	; 1
    3144:	78 e3       	ldi	r23, 0x38	; 56
    3146:	82 95       	swap	r24
    3148:	88 0f       	add	r24, r24
    314a:	80 7e       	andi	r24, 0xE0	; 224
    314c:	0e 94 5d 18 	call	0x30ba	; 0x30ba <eepromWrite>
    3150:	8a e0       	ldi	r24, 0x0A	; 10
    3152:	80 93 05 38 	sts	0x3805, r24	; 0x803805 <gameState>
    3156:	10 92 5c 3e 	sts	0x3E5C, r1	; 0x803e5c <isDrawn>
    315a:	cf 91       	pop	r28
    315c:	1f 91       	pop	r17
    315e:	0f 91       	pop	r16
    3160:	08 95       	ret
    3162:	80 91 00 38 	lds	r24, 0x3800	; 0x803800 <__DATA_REGION_ORIGIN__>
    3166:	90 e0       	ldi	r25, 0x00	; 0
    3168:	08 17       	cp	r16, r24
    316a:	19 07       	cpc	r17, r25
    316c:	04 f3       	brlt	.-64     	; 0x312e <updateHighScores+0x1c>
    316e:	ec 2f       	mov	r30, r28
    3170:	f0 e0       	ldi	r31, 0x00	; 0
    3172:	fc 5e       	subi	r31, 0xEC	; 236
    3174:	80 81       	ld	r24, Z
    3176:	80 93 6b 3d 	sts	0x3D6B, r24	; 0x803d6b <nameShift>
    317a:	e1 e0       	ldi	r30, 0x01	; 1
    317c:	ec 0f       	add	r30, r28
    317e:	f0 e0       	ldi	r31, 0x00	; 0
    3180:	fc 5e       	subi	r31, 0xEC	; 236
    3182:	80 81       	ld	r24, Z
    3184:	80 93 6c 3d 	sts	0x3D6C, r24	; 0x803d6c <nameShift+0x1>
    3188:	e2 e0       	ldi	r30, 0x02	; 2
    318a:	ec 0f       	add	r30, r28
    318c:	f0 e0       	ldi	r31, 0x00	; 0
    318e:	fc 5e       	subi	r31, 0xEC	; 236
    3190:	80 81       	ld	r24, Z
    3192:	80 93 6d 3d 	sts	0x3D6D, r24	; 0x803d6d <nameShift+0x2>
    3196:	e4 e0       	ldi	r30, 0x04	; 4
    3198:	ec 0f       	add	r30, r28
    319a:	f0 e0       	ldi	r31, 0x00	; 0
    319c:	fc 5e       	subi	r31, 0xEC	; 236
    319e:	20 81       	ld	r18, Z
    31a0:	31 81       	ldd	r19, Z+1	; 0x01
    31a2:	42 81       	ldd	r20, Z+2	; 0x02
    31a4:	53 81       	ldd	r21, Z+3	; 0x03
    31a6:	6b e6       	ldi	r22, 0x6B	; 107
    31a8:	7d e3       	ldi	r23, 0x3D	; 61
    31aa:	80 e2       	ldi	r24, 0x20	; 32
    31ac:	8c 0f       	add	r24, r28
    31ae:	0e 94 5d 18 	call	0x30ba	; 0x30ba <eepromWrite>
    31b2:	01 50       	subi	r16, 0x01	; 1
    31b4:	11 09       	sbc	r17, r1
    31b6:	c0 52       	subi	r28, 0x20	; 32
    31b8:	d4 cf       	rjmp	.-88     	; 0x3162 <updateHighScores+0x50>

000031ba <writeDefaultHighScores>:
    31ba:	cf 92       	push	r12
    31bc:	df 92       	push	r13
    31be:	ef 92       	push	r14
    31c0:	ff 92       	push	r15
    31c2:	cf 93       	push	r28
    31c4:	81 e4       	ldi	r24, 0x41	; 65
    31c6:	80 93 01 38 	sts	0x3801, r24	; 0x803801 <name>
    31ca:	82 e4       	ldi	r24, 0x42	; 66
    31cc:	80 93 02 38 	sts	0x3802, r24	; 0x803802 <name+0x1>
    31d0:	83 e4       	ldi	r24, 0x43	; 67
    31d2:	80 93 03 38 	sts	0x3803, r24	; 0x803803 <name+0x2>
    31d6:	c0 e0       	ldi	r28, 0x00	; 0
    31d8:	80 e9       	ldi	r24, 0x90	; 144
    31da:	c8 2e       	mov	r12, r24
    31dc:	8f e5       	ldi	r24, 0x5F	; 95
    31de:	d8 2e       	mov	r13, r24
    31e0:	ee 24       	eor	r14, r14
    31e2:	e3 94       	inc	r14
    31e4:	f1 2c       	mov	r15, r1
    31e6:	a7 01       	movw	r20, r14
    31e8:	96 01       	movw	r18, r12
    31ea:	61 e0       	ldi	r22, 0x01	; 1
    31ec:	78 e3       	ldi	r23, 0x38	; 56
    31ee:	8c 2f       	mov	r24, r28
    31f0:	0e 94 5d 18 	call	0x30ba	; 0x30ba <eepromWrite>
    31f4:	80 e1       	ldi	r24, 0x10	; 16
    31f6:	c8 1a       	sub	r12, r24
    31f8:	87 e2       	ldi	r24, 0x27	; 39
    31fa:	d8 0a       	sbc	r13, r24
    31fc:	e1 08       	sbc	r14, r1
    31fe:	f1 08       	sbc	r15, r1
    3200:	c0 5e       	subi	r28, 0xE0	; 224
    3202:	c0 3e       	cpi	r28, 0xE0	; 224
    3204:	81 f7       	brne	.-32     	; 0x31e6 <writeDefaultHighScores+0x2c>
    3206:	cf 91       	pop	r28
    3208:	ff 90       	pop	r15
    320a:	ef 90       	pop	r14
    320c:	df 90       	pop	r13
    320e:	cf 90       	pop	r12
    3210:	08 95       	ret

00003212 <gameSetup>:
    3212:	80 91 00 14 	lds	r24, 0x1400	; 0x801400 <jumpVelocity+0x7f5978>
    3216:	80 54       	subi	r24, 0x40	; 64
    3218:	8b 31       	cpi	r24, 0x1B	; 27
    321a:	10 f0       	brcs	.+4      	; 0x3220 <gameSetup+0xe>
    321c:	0e 94 dd 18 	call	0x31ba	; 0x31ba <writeDefaultHighScores>
    3220:	80 e0       	ldi	r24, 0x00	; 0
    3222:	0c 94 23 08 	jmp	0x1046	; 0x1046 <setScrollDirection>

00003226 <drawOptions>:
    3226:	0e 94 1c 16 	call	0x2c38	; 0x2c38 <cls>
    322a:	60 e0       	ldi	r22, 0x00	; 0
    322c:	80 e0       	ldi	r24, 0x00	; 0
    322e:	0e 94 00 07 	call	0xe00	; 0xe00 <setWindow>
    3232:	8c e3       	ldi	r24, 0x3C	; 60
    3234:	80 93 6b 3c 	sts	0x3C6B, r24	; 0x803c6b <tileMap>
    3238:	8e e3       	ldi	r24, 0x3E	; 62
    323a:	80 93 7a 3c 	sts	0x3C7A, r24	; 0x803c7a <tileMap+0xf>
    323e:	60 e7       	ldi	r22, 0x70	; 112
    3240:	7c e3       	ldi	r23, 0x3C	; 60
    3242:	88 e8       	ldi	r24, 0x88	; 136
    3244:	99 eb       	ldi	r25, 0xB9	; 185
    3246:	0e 94 f0 0e 	call	0x1de0	; 0x1de0 <drawText>
    324a:	6b ea       	ldi	r22, 0xAB	; 171
    324c:	7c e3       	ldi	r23, 0x3C	; 60
    324e:	80 e9       	ldi	r24, 0x90	; 144
    3250:	99 eb       	ldi	r25, 0xB9	; 185
    3252:	0e 94 f0 0e 	call	0x1de0	; 0x1de0 <drawText>
    3256:	6b ec       	ldi	r22, 0xCB	; 203
    3258:	7c e3       	ldi	r23, 0x3C	; 60
    325a:	8a e9       	ldi	r24, 0x9A	; 154
    325c:	99 eb       	ldi	r25, 0xB9	; 185
    325e:	0e 94 f0 0e 	call	0x1de0	; 0x1de0 <drawText>
    3262:	6b e0       	ldi	r22, 0x0B	; 11
    3264:	7d e3       	ldi	r23, 0x3D	; 61
    3266:	89 ea       	ldi	r24, 0xA9	; 169
    3268:	99 eb       	ldi	r25, 0xB9	; 185
    326a:	0e 94 f0 0e 	call	0x1de0	; 0x1de0 <drawText>
    326e:	60 e3       	ldi	r22, 0x30	; 48
    3270:	7d e3       	ldi	r23, 0x3D	; 61
    3272:	86 eb       	ldi	r24, 0xB6	; 182
    3274:	99 eb       	ldi	r25, 0xB9	; 185
    3276:	0e 94 f0 0e 	call	0x1de0	; 0x1de0 <drawText>
    327a:	80 91 72 3d 	lds	r24, 0x3D72	; 0x803d72 <gamePad>
    327e:	82 74       	andi	r24, 0x42	; 66
    3280:	82 34       	cpi	r24, 0x42	; 66
    3282:	11 f4       	brne	.+4      	; 0x3288 <drawOptions+0x62>
    3284:	0e 94 dd 18 	call	0x31ba	; 0x31ba <writeDefaultHighScores>
    3288:	80 91 72 3d 	lds	r24, 0x3D72	; 0x803d72 <gamePad>
    328c:	86 ff       	sbrs	r24, 6
    328e:	03 c0       	rjmp	.+6      	; 0x3296 <drawOptions+0x70>
    3290:	87 fd       	sbrc	r24, 7
    3292:	0c 94 74 0a 	jmp	0x14e8	; 0x14e8 <gotoSleep>
    3296:	08 95       	ret

00003298 <gameFrame>:
    3298:	0e 94 b8 05 	call	0xb70	; 0xb70 <getButtons>
    329c:	80 93 72 3d 	sts	0x3D72, r24	; 0x803d72 <gamePad>
    32a0:	40 91 62 3c 	lds	r20, 0x3C62	; 0x803c62 <buttonRepeatMask>
    32a4:	30 91 6e 3d 	lds	r19, 0x3D6E	; 0x803d6e <buttonRepeatFlag>
    32a8:	e5 e1       	ldi	r30, 0x15	; 21
    32aa:	f8 e3       	ldi	r31, 0x38	; 56
    32ac:	90 e0       	ldi	r25, 0x00	; 0
    32ae:	21 91       	ld	r18, Z+
    32b0:	58 2f       	mov	r21, r24
    32b2:	52 23       	and	r21, r18
    32b4:	59 f0       	breq	.+22     	; 0x32cc <gameFrame+0x34>
    32b6:	52 2f       	mov	r21, r18
    32b8:	54 23       	and	r21, r20
    32ba:	11 f0       	breq	.+4      	; 0x32c0 <gameFrame+0x28>
    32bc:	92 2b       	or	r25, r18
    32be:	07 c0       	rjmp	.+14     	; 0x32ce <gameFrame+0x36>
    32c0:	52 2f       	mov	r21, r18
    32c2:	53 23       	and	r21, r19
    32c4:	21 f0       	breq	.+8      	; 0x32ce <gameFrame+0x36>
    32c6:	92 2b       	or	r25, r18
    32c8:	30 e0       	ldi	r19, 0x00	; 0
    32ca:	01 c0       	rjmp	.+2      	; 0x32ce <gameFrame+0x36>
    32cc:	32 2b       	or	r19, r18
    32ce:	28 e3       	ldi	r18, 0x38	; 56
    32d0:	ec 31       	cpi	r30, 0x1C	; 28
    32d2:	f2 07       	cpc	r31, r18
    32d4:	61 f7       	brne	.-40     	; 0x32ae <gameFrame+0x16>
    32d6:	90 93 47 38 	sts	0x3847, r25	; 0x803847 <buttonsPressed>
    32da:	30 93 6e 3d 	sts	0x3D6E, r19	; 0x803d6e <buttonRepeatFlag>
    32de:	95 ff       	sbrs	r25, 5
    32e0:	13 c0       	rjmp	.+38     	; 0x3308 <gameFrame+0x70>
    32e2:	80 91 05 38 	lds	r24, 0x3805	; 0x803805 <gameState>
    32e6:	87 ff       	sbrs	r24, 7
    32e8:	0f c0       	rjmp	.+30     	; 0x3308 <gameFrame+0x70>
    32ea:	80 39       	cpi	r24, 0x90	; 144
    32ec:	21 f4       	brne	.+8      	; 0x32f6 <gameFrame+0x5e>
    32ee:	80 e8       	ldi	r24, 0x80	; 128
    32f0:	80 93 05 38 	sts	0x3805, r24	; 0x803805 <gameState>
    32f4:	09 c0       	rjmp	.+18     	; 0x3308 <gameFrame+0x70>
    32f6:	80 e9       	ldi	r24, 0x90	; 144
    32f8:	80 93 05 38 	sts	0x3805, r24	; 0x803805 <gameState>
    32fc:	20 e2       	ldi	r18, 0x20	; 32
    32fe:	30 e0       	ldi	r19, 0x00	; 0
    3300:	20 93 3f 38 	sts	0x383F, r18	; 0x80383f <frameCounter>
    3304:	30 93 40 38 	sts	0x3840, r19	; 0x803840 <frameCounter+0x1>
    3308:	93 ff       	sbrs	r25, 3
    330a:	12 c0       	rjmp	.+36     	; 0x3330 <gameFrame+0x98>
    330c:	80 91 05 38 	lds	r24, 0x3805	; 0x803805 <gameState>
    3310:	83 ff       	sbrs	r24, 3
    3312:	0e c0       	rjmp	.+28     	; 0x3330 <gameFrame+0x98>
    3314:	2c e2       	ldi	r18, 0x2C	; 44
    3316:	31 e0       	ldi	r19, 0x01	; 1
    3318:	20 93 3a 38 	sts	0x383A, r18	; 0x80383a <playerTimer>
    331c:	30 93 3b 38 	sts	0x383B, r19	; 0x80383b <playerTimer+0x1>
    3320:	10 92 5c 3e 	sts	0x3E5C, r1	; 0x803e5c <isDrawn>
    3324:	8f 5f       	subi	r24, 0xFF	; 255
    3326:	8c 30       	cpi	r24, 0x0C	; 12
    3328:	09 f4       	brne	.+2      	; 0x332c <gameFrame+0x94>
    332a:	88 e0       	ldi	r24, 0x08	; 8
    332c:	80 93 05 38 	sts	0x3805, r24	; 0x803805 <gameState>
    3330:	92 ff       	sbrs	r25, 2
    3332:	12 c0       	rjmp	.+36     	; 0x3358 <gameFrame+0xc0>
    3334:	80 91 05 38 	lds	r24, 0x3805	; 0x803805 <gameState>
    3338:	83 ff       	sbrs	r24, 3
    333a:	0e c0       	rjmp	.+28     	; 0x3358 <gameFrame+0xc0>
    333c:	10 92 5c 3e 	sts	0x3E5C, r1	; 0x803e5c <isDrawn>
    3340:	2c e2       	ldi	r18, 0x2C	; 44
    3342:	31 e0       	ldi	r19, 0x01	; 1
    3344:	20 93 3a 38 	sts	0x383A, r18	; 0x80383a <playerTimer>
    3348:	30 93 3b 38 	sts	0x383B, r19	; 0x80383b <playerTimer+0x1>
    334c:	81 50       	subi	r24, 0x01	; 1
    334e:	87 30       	cpi	r24, 0x07	; 7
    3350:	09 f4       	brne	.+2      	; 0x3354 <gameFrame+0xbc>
    3352:	8b e0       	ldi	r24, 0x0B	; 11
    3354:	80 93 05 38 	sts	0x3805, r24	; 0x803805 <gameState>
    3358:	80 91 05 38 	lds	r24, 0x3805	; 0x803805 <gameState>
    335c:	89 30       	cpi	r24, 0x09	; 9
    335e:	09 f4       	brne	.+2      	; 0x3362 <gameFrame+0xca>
    3360:	7a c0       	rjmp	.+244    	; 0x3456 <gameFrame+0x1be>
    3362:	70 f4       	brcc	.+28     	; 0x3380 <gameFrame+0xe8>
    3364:	86 30       	cpi	r24, 0x06	; 6
    3366:	09 f4       	brne	.+2      	; 0x336a <gameFrame+0xd2>
    3368:	65 c0       	rjmp	.+202    	; 0x3434 <gameFrame+0x19c>
    336a:	20 f4       	brcc	.+8      	; 0x3374 <gameFrame+0xdc>
    336c:	85 30       	cpi	r24, 0x05	; 5
    336e:	09 f4       	brne	.+2      	; 0x3372 <gameFrame+0xda>
    3370:	a9 c0       	rjmp	.+338    	; 0x34c4 <gameFrame+0x22c>
    3372:	08 95       	ret
    3374:	87 30       	cpi	r24, 0x07	; 7
    3376:	09 f4       	brne	.+2      	; 0x337a <gameFrame+0xe2>
    3378:	48 c0       	rjmp	.+144    	; 0x340a <gameFrame+0x172>
    337a:	88 30       	cpi	r24, 0x08	; 8
    337c:	69 f0       	breq	.+26     	; 0x3398 <gameFrame+0x100>
    337e:	08 95       	ret
    3380:	8b 30       	cpi	r24, 0x0B	; 11
    3382:	09 f4       	brne	.+2      	; 0x3386 <gameFrame+0xee>
    3384:	9b c0       	rjmp	.+310    	; 0x34bc <gameFrame+0x224>
    3386:	08 f4       	brcc	.+2      	; 0x338a <gameFrame+0xf2>
    3388:	91 c0       	rjmp	.+290    	; 0x34ac <gameFrame+0x214>
    338a:	80 38       	cpi	r24, 0x80	; 128
    338c:	09 f4       	brne	.+2      	; 0x3390 <gameFrame+0xf8>
    338e:	50 c0       	rjmp	.+160    	; 0x3430 <gameFrame+0x198>
    3390:	80 39       	cpi	r24, 0x90	; 144
    3392:	09 f4       	brne	.+2      	; 0x3396 <gameFrame+0xfe>
    3394:	4a c0       	rjmp	.+148    	; 0x342a <gameFrame+0x192>
    3396:	08 95       	ret
    3398:	80 91 5c 3e 	lds	r24, 0x3E5C	; 0x803e5c <isDrawn>
    339c:	81 11       	cpse	r24, r1
    339e:	02 c0       	rjmp	.+4      	; 0x33a4 <gameFrame+0x10c>
    33a0:	0e 94 ee 16 	call	0x2ddc	; 0x2ddc <drawTitle>
    33a4:	0e 94 c8 08 	call	0x1190	; 0x1190 <sendTiles>
    33a8:	80 91 3f 38 	lds	r24, 0x383F	; 0x80383f <frameCounter>
    33ac:	90 91 40 38 	lds	r25, 0x3840	; 0x803840 <frameCounter+0x1>
    33b0:	01 96       	adiw	r24, 0x01	; 1
    33b2:	80 93 3f 38 	sts	0x383F, r24	; 0x80383f <frameCounter>
    33b6:	90 93 40 38 	sts	0x3840, r25	; 0x803840 <frameCounter+0x1>
    33ba:	80 ff       	sbrs	r24, 0
    33bc:	09 c0       	rjmp	.+18     	; 0x33d0 <gameFrame+0x138>
    33be:	80 91 43 38 	lds	r24, 0x3843	; 0x803843 <xWindow>
    33c2:	90 91 44 38 	lds	r25, 0x3844	; 0x803844 <xWindow+0x1>
    33c6:	01 96       	adiw	r24, 0x01	; 1
    33c8:	80 93 43 38 	sts	0x3843, r24	; 0x803843 <xWindow>
    33cc:	90 93 44 38 	sts	0x3844, r25	; 0x803844 <xWindow+0x1>
    33d0:	80 91 43 38 	lds	r24, 0x3843	; 0x803843 <xWindow>
    33d4:	90 91 44 38 	lds	r25, 0x3844	; 0x803844 <xWindow+0x1>
    33d8:	96 95       	lsr	r25
    33da:	87 95       	ror	r24
    33dc:	65 e0       	ldi	r22, 0x05	; 5
    33de:	0e 94 19 07 	call	0xe32	; 0xe32 <setRowScroll>
    33e2:	80 91 43 38 	lds	r24, 0x3843	; 0x803843 <xWindow>
    33e6:	90 91 44 38 	lds	r25, 0x3844	; 0x803844 <xWindow+0x1>
    33ea:	96 95       	lsr	r25
    33ec:	87 95       	ror	r24
    33ee:	66 e0       	ldi	r22, 0x06	; 6
    33f0:	0e 94 19 07 	call	0xe32	; 0xe32 <setRowScroll>
    33f4:	67 e0       	ldi	r22, 0x07	; 7
    33f6:	80 91 43 38 	lds	r24, 0x3843	; 0x803843 <xWindow>
    33fa:	0e 94 19 07 	call	0xe32	; 0xe32 <setRowScroll>
    33fe:	80 91 47 38 	lds	r24, 0x3847	; 0x803847 <buttonsPressed>
    3402:	87 ff       	sbrs	r24, 7
    3404:	d7 c0       	rjmp	.+430    	; 0x35b4 <gameFrame+0x31c>
    3406:	0c 94 45 0e 	jmp	0x1c8a	; 0x1c8a <startNewGame>
    340a:	81 e0       	ldi	r24, 0x01	; 1
    340c:	0e 94 f8 0e 	call	0x1df0	; 0x1df0 <gameStatus>
    3410:	80 91 3f 38 	lds	r24, 0x383F	; 0x80383f <frameCounter>
    3414:	90 91 40 38 	lds	r25, 0x3840	; 0x803840 <frameCounter+0x1>
    3418:	88 37       	cpi	r24, 0x78	; 120
    341a:	91 05       	cpc	r25, r1
    341c:	09 f0       	breq	.+2      	; 0x3420 <gameFrame+0x188>
    341e:	ca c0       	rjmp	.+404    	; 0x35b4 <gameFrame+0x31c>
    3420:	80 e8       	ldi	r24, 0x80	; 128
    3422:	80 93 05 38 	sts	0x3805, r24	; 0x803805 <gameState>
    3426:	0c 94 19 17 	jmp	0x2e32	; 0x2e32 <drawMoonscape>
    342a:	80 e0       	ldi	r24, 0x00	; 0
    342c:	0c 94 f8 0e 	jmp	0x1df0	; 0x1df0 <gameStatus>
    3430:	0c 94 08 14 	jmp	0x2810	; 0x2810 <gameAction>
    3434:	82 e0       	ldi	r24, 0x02	; 2
    3436:	0e 94 f8 0e 	call	0x1df0	; 0x1df0 <gameStatus>
    343a:	80 91 3f 38 	lds	r24, 0x383F	; 0x80383f <frameCounter>
    343e:	90 91 40 38 	lds	r25, 0x3840	; 0x803840 <frameCounter+0x1>
    3442:	84 3b       	cpi	r24, 0xB4	; 180
    3444:	91 05       	cpc	r25, r1
    3446:	09 f0       	breq	.+2      	; 0x344a <gameFrame+0x1b2>
    3448:	b5 c0       	rjmp	.+362    	; 0x35b4 <gameFrame+0x31c>
    344a:	85 e0       	ldi	r24, 0x05	; 5
    344c:	80 93 05 38 	sts	0x3805, r24	; 0x803805 <gameState>
    3450:	10 92 5c 3e 	sts	0x3E5C, r1	; 0x803e5c <isDrawn>
    3454:	08 95       	ret
    3456:	0e 94 c8 08 	call	0x1190	; 0x1190 <sendTiles>
    345a:	0e 94 24 16 	call	0x2c48	; 0x2c48 <drawTime>
    345e:	90 91 47 38 	lds	r25, 0x3847	; 0x803847 <buttonsPressed>
    3462:	96 ff       	sbrs	r25, 6
    3464:	10 c0       	rjmp	.+32     	; 0x3486 <gameFrame+0x1ee>
    3466:	2c e2       	ldi	r18, 0x2C	; 44
    3468:	31 e0       	ldi	r19, 0x01	; 1
    346a:	20 93 3a 38 	sts	0x383A, r18	; 0x80383a <playerTimer>
    346e:	30 93 3b 38 	sts	0x383B, r19	; 0x80383b <playerTimer+0x1>
    3472:	80 91 45 38 	lds	r24, 0x3845	; 0x803845 <changeTime>
    3476:	8f 5f       	subi	r24, 0xFF	; 255
    3478:	83 30       	cpi	r24, 0x03	; 3
    347a:	19 f0       	breq	.+6      	; 0x3482 <gameFrame+0x1ea>
    347c:	80 93 45 38 	sts	0x3845, r24	; 0x803845 <changeTime>
    3480:	02 c0       	rjmp	.+4      	; 0x3486 <gameFrame+0x1ee>
    3482:	10 92 45 38 	sts	0x3845, r1	; 0x803845 <changeTime>
    3486:	97 ff       	sbrs	r25, 7
    3488:	95 c0       	rjmp	.+298    	; 0x35b4 <gameFrame+0x31c>
    348a:	8c e2       	ldi	r24, 0x2C	; 44
    348c:	91 e0       	ldi	r25, 0x01	; 1
    348e:	80 93 3a 38 	sts	0x383A, r24	; 0x80383a <playerTimer>
    3492:	90 93 3b 38 	sts	0x383B, r25	; 0x80383b <playerTimer+0x1>
    3496:	10 92 21 08 	sts	0x0821, r1	; 0x800821 <jumpVelocity+0x7f4d99>
    349a:	8f ef       	ldi	r24, 0xFF	; 255
    349c:	0e 94 3e 08 	call	0x107c	; 0x107c <setRotate>
    34a0:	80 93 46 38 	sts	0x3846, r24	; 0x803846 <sideOfMoon>
    34a4:	80 e8       	ldi	r24, 0x80	; 128
    34a6:	80 93 21 08 	sts	0x0821, r24	; 0x800821 <jumpVelocity+0x7f4d99>
    34aa:	08 95       	ret
    34ac:	80 91 5c 3e 	lds	r24, 0x3E5C	; 0x803e5c <isDrawn>
    34b0:	81 11       	cpse	r24, r1
    34b2:	02 c0       	rjmp	.+4      	; 0x34b8 <gameFrame+0x220>
    34b4:	0e 94 cc 17 	call	0x2f98	; 0x2f98 <drawHighScores>
    34b8:	0c 94 c8 08 	jmp	0x1190	; 0x1190 <sendTiles>
    34bc:	0e 94 c8 08 	call	0x1190	; 0x1190 <sendTiles>
    34c0:	0c 94 13 19 	jmp	0x3226	; 0x3226 <drawOptions>
    34c4:	80 91 5c 3e 	lds	r24, 0x3E5C	; 0x803e5c <isDrawn>
    34c8:	81 11       	cpse	r24, r1
    34ca:	02 c0       	rjmp	.+4      	; 0x34d0 <gameFrame+0x238>
    34cc:	0e 94 12 18 	call	0x3024	; 0x3024 <drawNameEntryScreen>
    34d0:	0e 94 90 0a 	call	0x1520	; 0x1520 <drawCharacterRow>
    34d4:	20 91 12 3d 	lds	r18, 0x3D12	; 0x803d12 <tileMap+0xa7>
    34d8:	80 91 01 38 	lds	r24, 0x3801	; 0x803801 <name>
    34dc:	80 93 cb 3c 	sts	0x3CCB, r24	; 0x803ccb <tileMap+0x60>
    34e0:	80 91 02 38 	lds	r24, 0x3802	; 0x803802 <name+0x1>
    34e4:	80 93 cc 3c 	sts	0x3CCC, r24	; 0x803ccc <tileMap+0x61>
    34e8:	80 91 03 38 	lds	r24, 0x3803	; 0x803803 <name+0x2>
    34ec:	80 93 cd 3c 	sts	0x3CCD, r24	; 0x803ccd <tileMap+0x62>
    34f0:	80 91 3a 38 	lds	r24, 0x383A	; 0x80383a <playerTimer>
    34f4:	90 91 3b 38 	lds	r25, 0x383B	; 0x80383b <playerTimer+0x1>
    34f8:	00 97       	sbiw	r24, 0x00	; 0
    34fa:	61 f0       	breq	.+24     	; 0x3514 <gameFrame+0x27c>
    34fc:	01 96       	adiw	r24, 0x01	; 1
    34fe:	80 93 3a 38 	sts	0x383A, r24	; 0x80383a <playerTimer>
    3502:	90 93 3b 38 	sts	0x383B, r25	; 0x80383b <playerTimer+0x1>
    3506:	8a 35       	cpi	r24, 0x5A	; 90
    3508:	91 05       	cpc	r25, r1
    350a:	09 f0       	breq	.+2      	; 0x350e <gameFrame+0x276>
    350c:	48 c0       	rjmp	.+144    	; 0x359e <gameFrame+0x306>
    350e:	0e 94 89 18 	call	0x3112	; 0x3112 <updateHighScores>
    3512:	45 c0       	rjmp	.+138    	; 0x359e <gameFrame+0x306>
    3514:	80 91 3f 38 	lds	r24, 0x383F	; 0x80383f <frameCounter>
    3518:	e0 91 12 38 	lds	r30, 0x3812	; 0x803812 <bugY>
    351c:	ae 2f       	mov	r26, r30
    351e:	b0 e0       	ldi	r27, 0x00	; 0
    3520:	af 5f       	subi	r26, 0xFF	; 255
    3522:	b7 4c       	sbci	r27, 0xC7	; 199
    3524:	83 ff       	sbrs	r24, 3
    3526:	03 c0       	rjmp	.+6      	; 0x352e <gameFrame+0x296>
    3528:	8c e7       	ldi	r24, 0x7C	; 124
    352a:	8c 93       	st	X, r24
    352c:	01 c0       	rjmp	.+2      	; 0x3530 <gameFrame+0x298>
    352e:	2c 93       	st	X, r18
    3530:	90 91 47 38 	lds	r25, 0x3847	; 0x803847 <buttonsPressed>
    3534:	96 ff       	sbrs	r25, 6
    3536:	0b c0       	rjmp	.+22     	; 0x354e <gameFrame+0x2b6>
    3538:	ee 23       	and	r30, r30
    353a:	49 f0       	breq	.+18     	; 0x354e <gameFrame+0x2b6>
    353c:	8f ef       	ldi	r24, 0xFF	; 255
    353e:	8e 0f       	add	r24, r30
    3540:	80 93 12 38 	sts	0x3812, r24	; 0x803812 <bugY>
    3544:	f0 e0       	ldi	r31, 0x00	; 0
    3546:	ef 5f       	subi	r30, 0xFF	; 255
    3548:	f7 4c       	sbci	r31, 0xC7	; 199
    354a:	8c e7       	ldi	r24, 0x7C	; 124
    354c:	80 83       	st	Z, r24
    354e:	97 ff       	sbrs	r25, 7
    3550:	12 c0       	rjmp	.+36     	; 0x3576 <gameFrame+0x2de>
    3552:	80 91 12 38 	lds	r24, 0x3812	; 0x803812 <bugY>
    3556:	e8 2f       	mov	r30, r24
    3558:	f0 e0       	ldi	r31, 0x00	; 0
    355a:	ef 5f       	subi	r30, 0xFF	; 255
    355c:	f7 4c       	sbci	r31, 0xC7	; 199
    355e:	20 83       	st	Z, r18
    3560:	8f 5f       	subi	r24, 0xFF	; 255
    3562:	80 93 12 38 	sts	0x3812, r24	; 0x803812 <bugY>
    3566:	83 30       	cpi	r24, 0x03	; 3
    3568:	31 f4       	brne	.+12     	; 0x3576 <gameFrame+0x2de>
    356a:	21 e0       	ldi	r18, 0x01	; 1
    356c:	30 e0       	ldi	r19, 0x00	; 0
    356e:	20 93 3a 38 	sts	0x383A, r18	; 0x80383a <playerTimer>
    3572:	30 93 3b 38 	sts	0x383B, r19	; 0x80383b <playerTimer+0x1>
    3576:	93 ff       	sbrs	r25, 3
    3578:	08 c0       	rjmp	.+16     	; 0x358a <gameFrame+0x2f2>
    357a:	80 91 13 38 	lds	r24, 0x3813	; 0x803813 <bugX>
    357e:	8f 5f       	subi	r24, 0xFF	; 255
    3580:	8b 35       	cpi	r24, 0x5B	; 91
    3582:	08 f0       	brcs	.+2      	; 0x3586 <gameFrame+0x2ee>
    3584:	81 e4       	ldi	r24, 0x41	; 65
    3586:	80 93 13 38 	sts	0x3813, r24	; 0x803813 <bugX>
    358a:	92 ff       	sbrs	r25, 2
    358c:	08 c0       	rjmp	.+16     	; 0x359e <gameFrame+0x306>
    358e:	80 91 13 38 	lds	r24, 0x3813	; 0x803813 <bugX>
    3592:	81 50       	subi	r24, 0x01	; 1
    3594:	81 34       	cpi	r24, 0x41	; 65
    3596:	08 f4       	brcc	.+2      	; 0x359a <gameFrame+0x302>
    3598:	8a e5       	ldi	r24, 0x5A	; 90
    359a:	80 93 13 38 	sts	0x3813, r24	; 0x803813 <bugX>
    359e:	0e 94 c8 08 	call	0x1190	; 0x1190 <sendTiles>
    35a2:	80 91 3f 38 	lds	r24, 0x383F	; 0x80383f <frameCounter>
    35a6:	90 91 40 38 	lds	r25, 0x3840	; 0x803840 <frameCounter+0x1>
    35aa:	01 96       	adiw	r24, 0x01	; 1
    35ac:	80 93 3f 38 	sts	0x383F, r24	; 0x80383f <frameCounter>
    35b0:	90 93 40 38 	sts	0x3840, r25	; 0x803840 <frameCounter+0x1>
    35b4:	08 95       	ret

000035b6 <systemLoop>:
    35b6:	80 91 4c 38 	lds	r24, 0x384C	; 0x80384c <sleepState>
    35ba:	88 23       	and	r24, r24
    35bc:	11 f0       	breq	.+4      	; 0x35c2 <systemLoop+0xc>
    35be:	88 95       	sleep
    35c0:	fa cf       	rjmp	.-12     	; 0x35b6 <systemLoop>
    35c2:	80 91 4b 38 	lds	r24, 0x384B	; 0x80384b <frameFlag>
    35c6:	80 31       	cpi	r24, 0x10	; 16
    35c8:	b1 f7       	brne	.-20     	; 0x35b6 <systemLoop>
    35ca:	10 92 4b 38 	sts	0x384B, r1	; 0x80384b <frameFlag>
    35ce:	81 e0       	ldi	r24, 0x01	; 1
    35d0:	0e 94 ff 05 	call	0xbfe	; 0xbfe <ledState>
    35d4:	0e 94 4c 19 	call	0x3298	; 0x3298 <gameFrame>
    35d8:	80 e0       	ldi	r24, 0x00	; 0
    35da:	0e 94 ff 05 	call	0xbfe	; 0xbfe <ledState>
    35de:	eb cf       	rjmp	.-42     	; 0x35b6 <systemLoop>

000035e0 <__vector_13>:
    35e0:	1f 92       	push	r1
    35e2:	0f 92       	push	r0
    35e4:	0f b6       	in	r0, 0x3f	; 63
    35e6:	0f 92       	push	r0
    35e8:	11 24       	eor	r1, r1
    35ea:	2f 93       	push	r18
    35ec:	3f 93       	push	r19
    35ee:	4f 93       	push	r20
    35f0:	5f 93       	push	r21
    35f2:	6f 93       	push	r22
    35f4:	7f 93       	push	r23
    35f6:	8f 93       	push	r24
    35f8:	9f 93       	push	r25
    35fa:	af 93       	push	r26
    35fc:	bf 93       	push	r27
    35fe:	ef 93       	push	r30
    3600:	ff 93       	push	r31
    3602:	80 91 4b 38 	lds	r24, 0x384B	; 0x80384b <frameFlag>
    3606:	8f 5f       	subi	r24, 0xFF	; 255
    3608:	80 93 4b 38 	sts	0x384B, r24	; 0x80384b <frameFlag>
    360c:	0e 94 c1 05 	call	0xb82	; 0xb82 <toneLogic>
    3610:	81 e0       	ldi	r24, 0x01	; 1
    3612:	80 93 46 0a 	sts	0x0A46, r24	; 0x800a46 <jumpVelocity+0x7f4fbe>
    3616:	ff 91       	pop	r31
    3618:	ef 91       	pop	r30
    361a:	bf 91       	pop	r27
    361c:	af 91       	pop	r26
    361e:	9f 91       	pop	r25
    3620:	8f 91       	pop	r24
    3622:	7f 91       	pop	r23
    3624:	6f 91       	pop	r22
    3626:	5f 91       	pop	r21
    3628:	4f 91       	pop	r20
    362a:	3f 91       	pop	r19
    362c:	2f 91       	pop	r18
    362e:	0f 90       	pop	r0
    3630:	0f be       	out	0x3f, r0	; 63
    3632:	0f 90       	pop	r0
    3634:	1f 90       	pop	r1
    3636:	18 95       	reti

00003638 <__vector_3>:
    3638:	1f 92       	push	r1
    363a:	0f 92       	push	r0
    363c:	0f b6       	in	r0, 0x3f	; 63
    363e:	0f 92       	push	r0
    3640:	11 24       	eor	r1, r1
    3642:	2f 93       	push	r18
    3644:	3f 93       	push	r19
    3646:	4f 93       	push	r20
    3648:	5f 93       	push	r21
    364a:	6f 93       	push	r22
    364c:	7f 93       	push	r23
    364e:	8f 93       	push	r24
    3650:	9f 93       	push	r25
    3652:	af 93       	push	r26
    3654:	bf 93       	push	r27
    3656:	ef 93       	push	r30
    3658:	ff 93       	push	r31
    365a:	80 91 4c 38 	lds	r24, 0x384C	; 0x80384c <sleepState>
    365e:	88 23       	and	r24, r24
    3660:	61 f0       	breq	.+24     	; 0x367a <__vector_3+0x42>
    3662:	10 92 4c 38 	sts	0x384C, r1	; 0x80384c <sleepState>
    3666:	81 e0       	ldi	r24, 0x01	; 1
    3668:	0e 94 ad 08 	call	0x115a	; 0x115a <displayOnOff>
    366c:	80 91 05 38 	lds	r24, 0x3805	; 0x803805 <gameState>
    3670:	80 39       	cpi	r24, 0x90	; 144
    3672:	19 f4       	brne	.+6      	; 0x367a <__vector_3+0x42>
    3674:	80 e8       	ldi	r24, 0x80	; 128
    3676:	80 93 05 38 	sts	0x3805, r24	; 0x803805 <gameState>
    367a:	80 e2       	ldi	r24, 0x20	; 32
    367c:	80 93 09 04 	sts	0x0409, r24	; 0x800409 <jumpVelocity+0x7f4981>
    3680:	ff 91       	pop	r31
    3682:	ef 91       	pop	r30
    3684:	bf 91       	pop	r27
    3686:	af 91       	pop	r26
    3688:	9f 91       	pop	r25
    368a:	8f 91       	pop	r24
    368c:	7f 91       	pop	r23
    368e:	6f 91       	pop	r22
    3690:	5f 91       	pop	r21
    3692:	4f 91       	pop	r20
    3694:	3f 91       	pop	r19
    3696:	2f 91       	pop	r18
    3698:	0f 90       	pop	r0
    369a:	0f be       	out	0x3f, r0	; 63
    369c:	0f 90       	pop	r0
    369e:	1f 90       	pop	r1
    36a0:	18 95       	reti

000036a2 <__vector_7>:
    36a2:	1f 92       	push	r1
    36a4:	0f 92       	push	r0
    36a6:	0f b6       	in	r0, 0x3f	; 63
    36a8:	0f 92       	push	r0
    36aa:	11 24       	eor	r1, r1
    36ac:	8f 93       	push	r24
    36ae:	80 91 49 38 	lds	r24, 0x3849	; 0x803849 <seconds>
    36b2:	8f 5f       	subi	r24, 0xFF	; 255
    36b4:	80 93 49 38 	sts	0x3849, r24	; 0x803849 <seconds>
    36b8:	8c 33       	cpi	r24, 0x3C	; 60
    36ba:	b9 f4       	brne	.+46     	; 0x36ea <__vector_7+0x48>
    36bc:	10 92 49 38 	sts	0x3849, r1	; 0x803849 <seconds>
    36c0:	80 91 1c 38 	lds	r24, 0x381C	; 0x80381c <minutes>
    36c4:	8f 5f       	subi	r24, 0xFF	; 255
    36c6:	80 93 1c 38 	sts	0x381C, r24	; 0x80381c <minutes>
    36ca:	8c 33       	cpi	r24, 0x3C	; 60
    36cc:	71 f4       	brne	.+28     	; 0x36ea <__vector_7+0x48>
    36ce:	10 92 1c 38 	sts	0x381C, r1	; 0x80381c <minutes>
    36d2:	80 91 1d 38 	lds	r24, 0x381D	; 0x80381d <hours>
    36d6:	8f 5f       	subi	r24, 0xFF	; 255
    36d8:	80 93 1d 38 	sts	0x381D, r24	; 0x80381d <hours>
    36dc:	80 91 1d 38 	lds	r24, 0x381D	; 0x80381d <hours>
    36e0:	8d 30       	cpi	r24, 0x0D	; 13
    36e2:	19 f4       	brne	.+6      	; 0x36ea <__vector_7+0x48>
    36e4:	81 e0       	ldi	r24, 0x01	; 1
    36e6:	80 93 1d 38 	sts	0x381D, r24	; 0x80381d <hours>
    36ea:	80 91 4c 38 	lds	r24, 0x384C	; 0x80384c <sleepState>
    36ee:	81 11       	cpse	r24, r1
    36f0:	03 c0       	rjmp	.+6      	; 0x36f8 <__vector_7+0x56>
    36f2:	81 e0       	ldi	r24, 0x01	; 1
    36f4:	80 93 4a 38 	sts	0x384A, r24	; 0x80384a <secFlag>
    36f8:	81 e0       	ldi	r24, 0x01	; 1
    36fa:	80 93 53 01 	sts	0x0153, r24	; 0x800153 <jumpVelocity+0x7f46cb>
    36fe:	8f 91       	pop	r24
    3700:	0f 90       	pop	r0
    3702:	0f be       	out	0x3f, r0	; 63
    3704:	0f 90       	pop	r0
    3706:	1f 90       	pop	r1
    3708:	18 95       	reti

0000370a <main>:
    370a:	cf 93       	push	r28
    370c:	88 ed       	ldi	r24, 0xD8	; 216
    370e:	84 bf       	out	0x34, r24	; 52
    3710:	10 92 61 00 	sts	0x0061, r1	; 0x800061 <jumpVelocity+0x7f45d9>
    3714:	80 91 63 00 	lds	r24, 0x0063	; 0x800063 <jumpVelocity+0x7f45db>
    3718:	84 ff       	sbrs	r24, 4
    371a:	fc cf       	rjmp	.-8      	; 0x3714 <main+0xa>
    371c:	88 ed       	ldi	r24, 0xD8	; 216
    371e:	84 bf       	out	0x34, r24	; 52
    3720:	81 e0       	ldi	r24, 0x01	; 1
    3722:	80 93 7c 00 	sts	0x007C, r24	; 0x80007c <jumpVelocity+0x7f45f4>
    3726:	80 91 41 01 	lds	r24, 0x0141	; 0x800141 <jumpVelocity+0x7f46b9>
    372a:	81 11       	cpse	r24, r1
    372c:	fc cf       	rjmp	.-8      	; 0x3726 <main+0x1c>
    372e:	80 e8       	ldi	r24, 0x80	; 128
    3730:	80 93 40 01 	sts	0x0140, r24	; 0x800140 <jumpVelocity+0x7f46b8>
    3734:	82 e0       	ldi	r24, 0x02	; 2
    3736:	80 93 47 01 	sts	0x0147, r24	; 0x800147 <jumpVelocity+0x7f46bf>
    373a:	80 91 51 01 	lds	r24, 0x0151	; 0x800151 <jumpVelocity+0x7f46c9>
    373e:	81 11       	cpse	r24, r1
    3740:	fc cf       	rjmp	.-8      	; 0x373a <main+0x30>
    3742:	81 e7       	ldi	r24, 0x71	; 113
    3744:	80 93 50 01 	sts	0x0150, r24	; 0x800150 <jumpVelocity+0x7f46c8>
    3748:	c1 e0       	ldi	r28, 0x01	; 1
    374a:	c0 93 52 01 	sts	0x0152, r28	; 0x800152 <jumpVelocity+0x7f46ca>
    374e:	8a e1       	ldi	r24, 0x1A	; 26
    3750:	80 93 00 04 	sts	0x0400, r24	; 0x800400 <jumpVelocity+0x7f4978>
    3754:	83 e3       	ldi	r24, 0x33	; 51
    3756:	80 93 20 04 	sts	0x0420, r24	; 0x800420 <jumpVelocity+0x7f4998>
    375a:	10 92 40 04 	sts	0x0440, r1	; 0x800440 <jumpVelocity+0x7f49b8>
    375e:	88 e8       	ldi	r24, 0x88	; 136
    3760:	80 93 50 04 	sts	0x0450, r24	; 0x800450 <jumpVelocity+0x7f49c8>
    3764:	80 93 51 04 	sts	0x0451, r24	; 0x800451 <jumpVelocity+0x7f49c9>
    3768:	80 93 52 04 	sts	0x0452, r24	; 0x800452 <jumpVelocity+0x7f49ca>
    376c:	80 93 53 04 	sts	0x0453, r24	; 0x800453 <jumpVelocity+0x7f49cb>
    3770:	99 e8       	ldi	r25, 0x89	; 137
    3772:	90 93 15 04 	sts	0x0415, r25	; 0x800415 <jumpVelocity+0x7f498d>
    3776:	80 93 16 04 	sts	0x0416, r24	; 0x800416 <jumpVelocity+0x7f498e>
    377a:	80 93 17 04 	sts	0x0417, r24	; 0x800417 <jumpVelocity+0x7f498f>
    377e:	81 e3       	ldi	r24, 0x31	; 49
    3780:	80 93 20 08 	sts	0x0820, r24	; 0x800820 <jumpVelocity+0x7f4d98>
    3784:	80 e0       	ldi	r24, 0x00	; 0
    3786:	90 e0       	ldi	r25, 0x00	; 0
    3788:	0e 94 5a 08 	call	0x10b4	; 0x10b4 <displayInit>
    378c:	80 e8       	ldi	r24, 0x80	; 128
    378e:	80 93 21 08 	sts	0x0821, r24	; 0x800821 <jumpVelocity+0x7f4d99>
    3792:	c0 93 45 0a 	sts	0x0A45, r28	; 0x800a45 <jumpVelocity+0x7f4fbd>
    3796:	80 e1       	ldi	r24, 0x10	; 16
    3798:	97 e2       	ldi	r25, 0x27	; 39
    379a:	80 93 4c 0a 	sts	0x0A4C, r24	; 0x800a4c <jumpVelocity+0x7f4fc4>
    379e:	90 93 4d 0a 	sts	0x0A4D, r25	; 0x800a4d <jumpVelocity+0x7f4fc5>
    37a2:	83 e0       	ldi	r24, 0x03	; 3
    37a4:	80 93 40 0a 	sts	0x0A40, r24	; 0x800a40 <jumpVelocity+0x7f4fb8>
    37a8:	81 e4       	ldi	r24, 0x41	; 65
    37aa:	80 93 01 0a 	sts	0x0A01, r24	; 0x800a01 <jumpVelocity+0x7f4f79>
    37ae:	10 92 28 0a 	sts	0x0A28, r1	; 0x800a28 <jumpVelocity+0x7f4fa0>
    37b2:	10 92 29 0a 	sts	0x0A29, r1	; 0x800a29 <jumpVelocity+0x7f4fa1>
    37b6:	88 e0       	ldi	r24, 0x08	; 8
    37b8:	80 93 00 0a 	sts	0x0A00, r24	; 0x800a00 <jumpVelocity+0x7f4f78>
    37bc:	84 e0       	ldi	r24, 0x04	; 4
    37be:	80 93 02 02 	sts	0x0202, r24	; 0x800202 <jumpVelocity+0x7f477a>
    37c2:	c0 93 00 06 	sts	0x0600, r28	; 0x800600 <jumpVelocity+0x7f4b78>
    37c6:	83 e1       	ldi	r24, 0x13	; 19
    37c8:	80 93 02 06 	sts	0x0602, r24	; 0x800602 <jumpVelocity+0x7f4b7a>
    37cc:	92 e0       	ldi	r25, 0x02	; 2
    37ce:	90 93 06 06 	sts	0x0606, r25	; 0x800606 <jumpVelocity+0x7f4b7e>
    37d2:	c0 93 40 06 	sts	0x0640, r28	; 0x800640 <jumpVelocity+0x7f4bb8>
    37d6:	80 93 42 06 	sts	0x0642, r24	; 0x800642 <jumpVelocity+0x7f4bba>
    37da:	86 e0       	ldi	r24, 0x06	; 6
    37dc:	80 93 46 06 	sts	0x0646, r24	; 0x800646 <jumpVelocity+0x7f4bbe>
    37e0:	85 e0       	ldi	r24, 0x05	; 5
    37e2:	80 93 50 00 	sts	0x0050, r24	; 0x800050 <jumpVelocity+0x7f45c8>
    37e6:	78 94       	sei
    37e8:	0e 94 09 19 	call	0x3212	; 0x3212 <gameSetup>
    37ec:	0e 94 db 1a 	call	0x35b6	; 0x35b6 <systemLoop>
    37f0:	80 e0       	ldi	r24, 0x00	; 0
    37f2:	90 e0       	ldi	r25, 0x00	; 0
    37f4:	cf 91       	pop	r28
    37f6:	08 95       	ret

000037f8 <__udivmodqi4>:
    37f8:	99 1b       	sub	r25, r25
    37fa:	79 e0       	ldi	r23, 0x09	; 9
    37fc:	04 c0       	rjmp	.+8      	; 0x3806 <__udivmodqi4_ep>

000037fe <__udivmodqi4_loop>:
    37fe:	99 1f       	adc	r25, r25
    3800:	96 17       	cp	r25, r22
    3802:	08 f0       	brcs	.+2      	; 0x3806 <__udivmodqi4_ep>
    3804:	96 1b       	sub	r25, r22

00003806 <__udivmodqi4_ep>:
    3806:	88 1f       	adc	r24, r24
    3808:	7a 95       	dec	r23
    380a:	c9 f7       	brne	.-14     	; 0x37fe <__udivmodqi4_loop>
    380c:	80 95       	com	r24
    380e:	08 95       	ret

00003810 <__udivmodsi4>:
    3810:	a1 e2       	ldi	r26, 0x21	; 33
    3812:	1a 2e       	mov	r1, r26
    3814:	aa 1b       	sub	r26, r26
    3816:	bb 1b       	sub	r27, r27
    3818:	fd 01       	movw	r30, r26
    381a:	0d c0       	rjmp	.+26     	; 0x3836 <__udivmodsi4_ep>

0000381c <__udivmodsi4_loop>:
    381c:	aa 1f       	adc	r26, r26
    381e:	bb 1f       	adc	r27, r27
    3820:	ee 1f       	adc	r30, r30
    3822:	ff 1f       	adc	r31, r31
    3824:	a2 17       	cp	r26, r18
    3826:	b3 07       	cpc	r27, r19
    3828:	e4 07       	cpc	r30, r20
    382a:	f5 07       	cpc	r31, r21
    382c:	20 f0       	brcs	.+8      	; 0x3836 <__udivmodsi4_ep>
    382e:	a2 1b       	sub	r26, r18
    3830:	b3 0b       	sbc	r27, r19
    3832:	e4 0b       	sbc	r30, r20
    3834:	f5 0b       	sbc	r31, r21

00003836 <__udivmodsi4_ep>:
    3836:	66 1f       	adc	r22, r22
    3838:	77 1f       	adc	r23, r23
    383a:	88 1f       	adc	r24, r24
    383c:	99 1f       	adc	r25, r25
    383e:	1a 94       	dec	r1
    3840:	69 f7       	brne	.-38     	; 0x381c <__udivmodsi4_loop>
    3842:	60 95       	com	r22
    3844:	70 95       	com	r23
    3846:	80 95       	com	r24
    3848:	90 95       	com	r25
    384a:	9b 01       	movw	r18, r22
    384c:	ac 01       	movw	r20, r24
    384e:	bd 01       	movw	r22, r26
    3850:	cf 01       	movw	r24, r30
    3852:	08 95       	ret

00003854 <__tablejump2__>:
    3854:	ee 0f       	add	r30, r30
    3856:	ff 1f       	adc	r31, r31
    3858:	05 90       	lpm	r0, Z+
    385a:	f4 91       	lpm	r31, Z
    385c:	e0 2d       	mov	r30, r0
    385e:	09 94       	ijmp

00003860 <memset>:
    3860:	dc 01       	movw	r26, r24
    3862:	01 c0       	rjmp	.+2      	; 0x3866 <memset+0x6>
    3864:	6d 93       	st	X+, r22
    3866:	41 50       	subi	r20, 0x01	; 1
    3868:	50 40       	sbci	r21, 0x00	; 0
    386a:	e0 f7       	brcc	.-8      	; 0x3864 <memset+0x4>
    386c:	08 95       	ret

0000386e <_exit>:
    386e:	f8 94       	cli

00003870 <__stop_program>:
    3870:	ff cf       	rjmp	.-2      	; 0x3870 <__stop_program>
