
MGC Test App.elf:     file format elf32-avr

Sections:
Idx Name          Size      VMA       LMA       File off  Algn
  0 .data         0000000a  00803800  000010f8  0000118c  2**0
                  CONTENTS, ALLOC, LOAD, DATA
  1 .text         000010f8  00000000  00000000  00000094  2**1
                  CONTENTS, ALLOC, LOAD, READONLY, CODE
  2 .bss          00000528  0080380a  0080380a  00001196  2**0
                  ALLOC
  3 .comment      00000030  00000000  00000000  00001196  2**0
                  CONTENTS, READONLY
  4 .note.gnu.avr.deviceinfo 00000040  00000000  00000000  000011c8  2**2
                  CONTENTS, READONLY
  5 .debug_info   000019ed  00000000  00000000  00001208  2**0
                  CONTENTS, READONLY, DEBUGGING
  6 .debug_abbrev 00001888  00000000  00000000  00002bf5  2**0
                  CONTENTS, READONLY, DEBUGGING
  7 .debug_line   00000151  00000000  00000000  0000447d  2**0
                  CONTENTS, READONLY, DEBUGGING
  8 .debug_str    00000acf  00000000  00000000  000045ce  2**0
                  CONTENTS, READONLY, DEBUGGING

Disassembly of section .text:

00000000 <__vectors>:
       0:	0c 94 92 02 	jmp	0x524	; 0x524 <__ctors_end>
       4:	0c 94 af 02 	jmp	0x55e	; 0x55e <__bad_interrupt>
       8:	0c 94 af 02 	jmp	0x55e	; 0x55e <__bad_interrupt>
       c:	0c 94 a2 07 	jmp	0xf44	; 0xf44 <__vector_3>
      10:	0c 94 af 02 	jmp	0x55e	; 0x55e <__bad_interrupt>
      14:	0c 94 af 02 	jmp	0x55e	; 0x55e <__bad_interrupt>
      18:	0c 94 af 02 	jmp	0x55e	; 0x55e <__bad_interrupt>
      1c:	0c 94 d0 07 	jmp	0xfa0	; 0xfa0 <__vector_7>
      20:	0c 94 af 02 	jmp	0x55e	; 0x55e <__bad_interrupt>
      24:	0c 94 af 02 	jmp	0x55e	; 0x55e <__bad_interrupt>
      28:	0c 94 af 02 	jmp	0x55e	; 0x55e <__bad_interrupt>
      2c:	0c 94 af 02 	jmp	0x55e	; 0x55e <__bad_interrupt>
      30:	0c 94 af 02 	jmp	0x55e	; 0x55e <__bad_interrupt>
      34:	0c 94 76 07 	jmp	0xeec	; 0xeec <__vector_13>
      38:	0c 94 af 02 	jmp	0x55e	; 0x55e <__bad_interrupt>
      3c:	0c 94 af 02 	jmp	0x55e	; 0x55e <__bad_interrupt>
      40:	0c 94 af 02 	jmp	0x55e	; 0x55e <__bad_interrupt>
      44:	0c 94 af 02 	jmp	0x55e	; 0x55e <__bad_interrupt>
      48:	0c 94 af 02 	jmp	0x55e	; 0x55e <__bad_interrupt>
      4c:	0c 94 af 02 	jmp	0x55e	; 0x55e <__bad_interrupt>
      50:	0c 94 af 02 	jmp	0x55e	; 0x55e <__bad_interrupt>
      54:	0c 94 af 02 	jmp	0x55e	; 0x55e <__bad_interrupt>
      58:	0c 94 af 02 	jmp	0x55e	; 0x55e <__bad_interrupt>
      5c:	0c 94 af 02 	jmp	0x55e	; 0x55e <__bad_interrupt>
      60:	0c 94 af 02 	jmp	0x55e	; 0x55e <__bad_interrupt>
      64:	0c 94 af 02 	jmp	0x55e	; 0x55e <__bad_interrupt>
      68:	0c 94 af 02 	jmp	0x55e	; 0x55e <__bad_interrupt>
      6c:	0c 94 af 02 	jmp	0x55e	; 0x55e <__bad_interrupt>
      70:	0c 94 af 02 	jmp	0x55e	; 0x55e <__bad_interrupt>
      74:	0c 94 af 02 	jmp	0x55e	; 0x55e <__bad_interrupt>
      78:	0c 94 af 02 	jmp	0x55e	; 0x55e <__bad_interrupt>

0000007c <__trampolines_end>:
      7c:	00 40       	sbci	r16, 0x00	; 0
      7e:	40 40       	sbci	r20, 0x00	; 0
      80:	58 7c       	andi	r21, 0xC8	; 200
      82:	7c 7e       	andi	r23, 0xEC	; 236
      84:	7e 7a       	andi	r23, 0xAE	; 174
      86:	76 7c       	andi	r23, 0xC6	; 198
      88:	78 7a       	andi	r23, 0xA8	; 168
      8a:	7c 78       	andi	r23, 0x8C	; 140
      8c:	7e 7f       	andi	r23, 0xFE	; 254
      8e:	7f 7f       	andi	r23, 0xFF	; 255
      90:	7f 7d       	andi	r23, 0xDF	; 223
      92:	63 3e       	cpi	r22, 0xE3	; 227
      94:	00 40       	sbci	r16, 0x00	; 0
      96:	00 40       	sbci	r16, 0x00	; 0
      98:	00 40       	sbci	r16, 0x00	; 0
      9a:	40 40       	sbci	r20, 0x00	; 0
      9c:	40 60       	ori	r20, 0x00	; 0
      9e:	60 70       	andi	r22, 0x00	; 0
      a0:	74 74       	andi	r23, 0x44	; 68
      a2:	7c 7e       	andi	r23, 0xEC	; 236
      a4:	7e 7e       	andi	r23, 0xEE	; 238
      a6:	7e 7a       	andi	r23, 0xAE	; 174
      a8:	74 48       	sbci	r23, 0x84	; 132
      aa:	30 00       	.word	0x0030	; ????
      ac:	00 20       	and	r0, r0
      ae:	20 20       	and	r2, r0
      b0:	20 30       	cpi	r18, 0x00	; 0
      b2:	34 30       	cpi	r19, 0x04	; 4
      b4:	34 34       	cpi	r19, 0x44	; 68
      b6:	3e 3e       	cpi	r19, 0xEE	; 238
      b8:	3e 2a       	or	r3, r30
      ba:	34 18       	sub	r3, r4
      bc:	00 10       	cpse	r0, r0
      be:	00 10       	cpse	r0, r0
      c0:	10 18       	sub	r1, r0
      c2:	18 1c       	adc	r1, r8
      c4:	1c 1c       	adc	r1, r12
      c6:	1c 1c       	adc	r1, r12
      c8:	14 1c       	adc	r1, r4
      ca:	0c 08       	sbc	r0, r12
      cc:	00 10       	cpse	r0, r0
      ce:	00 10       	cpse	r0, r0
      d0:	10 18       	sub	r1, r0
      d2:	10 10       	cpse	r1, r0
      d4:	10 10       	cpse	r1, r0
      d6:	18 18       	sub	r1, r8
      d8:	18 14       	cp	r1, r8
      da:	18 10       	cpse	r1, r8
      dc:	1f ef       	ldi	r17, 0xFF	; 255
      de:	f7 fb       	bst	r31, 7
      e0:	3e df       	rcall	.-388    	; 0xffffff5e <__eeprom_end+0xff7eff5e>
      e2:	ff ff       	.word	0xffff	; ????
      e4:	7b b7       	in	r23, 0x3b	; 59
      e6:	cf fe       	.word	0xfecf	; ????
      e8:	7f 8f       	std	Y+31, r23	; 0x1f
      ea:	77 ff       	sbrs	r23, 7
      ec:	3f df       	rcall	.-386    	; 0xffffff6c <__eeprom_end+0xff7eff6c>
      ee:	ef f7       	brid	.-6      	; 0xea <__trampolines_end+0x6e>
      f0:	b7 f6       	brid	.-84     	; 0x9e <__trampolines_end+0x22>
      f2:	7b df       	rcall	.-266    	; 0xffffffea <__eeprom_end+0xff7effea>
      f4:	ff ff       	.word	0xffff	; ????
      f6:	ff ff       	.word	0xffff	; ????
      f8:	ff ff       	.word	0xffff	; ????
      fa:	ff ff       	.word	0xffff	; ????
      fc:	d4 d4       	rcall	.+2472   	; 0xaa6 <displayInit+0x8a>
      fe:	e8 e8       	ldi	r30, 0x88	; 136
     100:	f4 f4       	brge	.+60     	; 0x13e <__EEPROM_REGION_LENGTH__+0x3e>
     102:	ea ea       	ldi	r30, 0xAA	; 170
     104:	80 c0       	rjmp	.+256    	; 0x206 <debrisTop+0xa>
     106:	a0 90 a8 88 	lds	r10, 0x88A8	; 0x8088a8 <__bss_end+0x4b76>
     10a:	94 83       	std	Z+4, r25	; 0x04
     10c:	84 80       	ldd	r8, Z+4	; 0x04
     10e:	80 80       	ld	r8, Z
     110:	80 80       	ld	r8, Z
     112:	80 80       	ld	r8, Z
     114:	80 88       	ldd	r8, Z+16	; 0x10
     116:	80 81       	ld	r24, Z
     118:	84 88       	ldd	r8, Z+20	; 0x14
     11a:	90 a2       	std	Z+32, r9	; 0x20
     11c:	a1 82       	std	Z+1, r10	; 0x01
     11e:	8c 90       	ld	r8, X
     120:	90 a0       	ldd	r9, Z+32	; 0x20
     122:	a0 c0       	rjmp	.+320    	; 0x264 <debris+0x46>
     124:	80 e0       	ldi	r24, 0x00	; 0
     126:	9c a3       	std	Y+36, r25	; 0x24
     128:	84 80       	ldd	r8, Z+4	; 0x04
     12a:	80 81       	ld	r24, Z
     12c:	86 80       	ldd	r8, Z+6	; 0x06
     12e:	80 80       	ld	r8, Z
     130:	81 80       	ldd	r8, Z+1	; 0x01
     132:	81 83       	std	Z+1, r24	; 0x01
     134:	8f 91       	pop	r24
     136:	81 83       	std	Z+1, r24	; 0x01
     138:	8f 97       	sbiw	r24, 0x2f	; 47
     13a:	82 82       	std	Z+2, r8	; 0x02
     13c:	84 a8       	ldd	r8, Z+52	; 0x34
     13e:	90 a0       	ldd	r9, Z+32	; 0x20
     140:	c0 c0       	rjmp	.+384    	; 0x2c2 <ship+0x52>
     142:	c0 80       	ld	r12, Z
     144:	80 60       	ori	r24, 0x00	; 0
     146:	90 3e       	cpi	r25, 0xE0	; 224
     148:	67 fb       	bst	r22, 7
     14a:	7f 3f       	cpi	r23, 0xFF	; 255
     14c:	3f 7f       	andi	r19, 0xFF	; 255
     14e:	ff fe       	.word	0xfeff	; ????
     150:	78 f0       	brcs	.+30     	; 0x170 <__EEPROM_REGION_LENGTH__+0x70>
     152:	40 80       	ld	r4, Z
     154:	00 00       	nop
     156:	00 00       	nop
     158:	00 fc       	sbrc	r0, 0
     15a:	b8 f0       	brcs	.+46     	; 0x18a <__EEPROM_REGION_LENGTH__+0x8a>
     15c:	c0 c0       	rjmp	.+384    	; 0x2de <ship+0x6e>
     15e:	80 00       	.word	0x0080	; ????
     160:	00 00       	nop
     162:	00 00       	nop
     164:	00 00       	nop
     166:	00 e0       	ldi	r16, 0x00	; 0
     168:	3e 7f       	andi	r19, 0xFE	; 254
     16a:	fb fe       	.word	0xfefb	; ????
     16c:	3e 1c       	adc	r3, r14
     16e:	38 60       	ori	r19, 0x08	; 8
     170:	40 80       	ld	r4, Z
     172:	80 80       	ld	r8, Z
     174:	c0 f0       	brcs	.+48     	; 0x1a6 <__EEPROM_REGION_LENGTH__+0xa6>
     176:	b8 f0       	brcs	.+46     	; 0x1a6 <__EEPROM_REGION_LENGTH__+0xa6>
     178:	c0 00       	.word	0x00c0	; ????
     17a:	00 00       	nop
     17c:	01 07       	cpc	r16, r17
     17e:	17 1f       	adc	r17, r23
     180:	3f 3f       	cpi	r19, 0xFF	; 255
     182:	2f 37       	cpi	r18, 0x7F	; 127
     184:	1f 1f       	adc	r17, r31
     186:	0f 0b       	sbc	r16, r31
     188:	0b 0f       	add	r16, r27
     18a:	0f 07       	cpc	r16, r31
     18c:	0f 0f       	add	r16, r31
     18e:	4f 5f       	subi	r20, 0xFF	; 255
     190:	7f 3f       	cpi	r23, 0xFF	; 255
     192:	3f 3f       	cpi	r19, 0xFF	; 255
     194:	3f 2f       	mov	r19, r31
     196:	2f 2f       	mov	r18, r31
     198:	37 1f       	adc	r19, r23
     19a:	07 0f       	add	r16, r23
     19c:	0f 0f       	add	r16, r31
     19e:	0f 0f       	add	r16, r31
     1a0:	0f 4f       	sbci	r16, 0xFF	; 255
     1a2:	5f 5f       	subi	r21, 0xFF	; 255
     1a4:	5f 5f       	subi	r21, 0xFF	; 255
     1a6:	7f 3f       	cpi	r23, 0xFF	; 255
     1a8:	3f 2f       	mov	r19, r31
     1aa:	2f 37       	cpi	r18, 0x7F	; 127
     1ac:	1b 0f       	add	r17, r27
     1ae:	07 07       	cpc	r16, r23
     1b0:	07 07       	cpc	r16, r23
     1b2:	17 17       	cp	r17, r23
     1b4:	1f 1f       	adc	r17, r31
     1b6:	0b 0d       	add	r16, r11
     1b8:	07 03       	mulsu	r16, r23
     1ba:	03 01       	movw	r0, r6
	...

000001fc <debrisTop>:
     1fc:	10 08 00 00 80 c0 e0 e0 f0 f8 fc fc fc fc fc fc     ................
     20c:	b8 90 00 00 00 00 80 40 20 20 10 28 04 84 44 44     .......@  .(..DD
     21c:	a8 90                                               ..

0000021e <debris>:
     21e:	28 08 80 c0 e0 e0 f0 f8 fc fc fe ff ff 7f 7f 7f     (...............
     22e:	7f ff ff f7 e7 cf 8f 0f 1f 1f 3f 3f 7e 7e fc fc     ..........??~~..
     23e:	f8 f8 f0 f0 e0 e0 c0 c0 80 80 00 00 80 40 20 20     .............@  
     24e:	50 08 04 04 8a 41 41 20 31 28 58 b4 62 c3 84 04     P....AA 1(X.b...
     25e:	04 08 09 11 12 22 24 44 48 88 90 10 20 20 40 40     ....."$DH...  @@
     26e:	80 80                                               ..

00000270 <ship>:
     270:	18 10 04 1e fe fe fe fe fe fc fc fc fc f8 f8 f8     ................
     280:	f0 f0 e0 e0 c0 c0 c0 80 80 00 10 39 3f 3f 3f 1f     ...........9???.
     290:	1f 1f 0f 0f 0f 0f 0f 07 03 03 03 03 03 03 03 03     ................
     2a0:	03 01 00 04 1c f4 f4 b4 fc 88 88 88 98 90 90 90     ................
     2b0:	a0 e0 c0 c0 00 80 80 00 00 00 00 10 19 1d 1d 0d     ................
     2c0:	0d 0d 05 05 05 05 05 01 01 01 00 00 01 01 01 01     ................
     2d0:	01 00 12 7f ff ff ff fe fe fc fc fc fc fc fc f8     ................
     2e0:	f0 e0 e0 c0 c0 c0 c0 80 80 00 40 e2 ff ff ff 7f     ..........@.....
     2f0:	7f 7f 3f 3f 3f 3f 3f 1f 07 07 07 07 07 07 07 03     ..?????.........
     300:	03 01 00 12 72 d6 d6 d4 f4 28 28 28 28 28 28 60     ....r....((((((`
     310:	40 c0 c0 80 00 80 80 00 00 00 00 40 62 7b 7b 3a     @..........@b{{:
     320:	3b 3a 1a 1a 1a 1a 1a 02 02 03 03 01 02 03 03 01     ;:..............
     330:	01 00 04 0e fe fe fe fc fc fc f8 f8 f8 f8 f0 f0     ................
     340:	e0 e0 c0 c0 c0 c0 c0 80 80 00 20 79 7f 7f 7f 3f     .......... y...?
     350:	3f 1f 1f 1f 1f 1f 1f 0f 07 07 07 07 07 07 07 03     ?...............
     360:	03 01 00 04 0c 3c 7c 78 78 78 70 70 70 70 60 00     .....<|xxxpppp`.
     370:	80 80 00 00 80 80 80 00 00 00 00 20 31 3b 3b 1b     ........... 1;;.
     380:	1b 0b 0b 0b 0b 0b 0b 03 03 03 03 03 03 03 03 01     ................
     390:	01 00                                               ..

00000392 <beastTree>:
     392:	28 28 00 80 f8 fc fc fc fc fe ff ff ff ff ff ff     ((..............
     3a2:	ff ff ff ff ff ff ff fe fe fe ff ff fe fe fc f8     ................
     3b2:	e0 c0 80 00 00 00 00 00 00 00 00 07 0f ff ff ff     ................
     3c2:	ff ff ff ff ff ff ff ff ff ff ff ff ff ff ff ff     ................
     3d2:	ff ff ff ff ff ff ff ff ff 7f 7f 7f 06 00 00 00     ................
     3e2:	00 00 00 00 0f 0f ff ff ff ff ff ff ff ff ff ff     ................
     3f2:	ff ff ff ff 7f ff ff ff ff ff ff e3 81 00 00 00     ................
     402:	e0 f8 f0 c0 80 c0 80 00 00 00 00 00 00 00 03 03     ................
     412:	03 07 1f 1f ff ff 1f 1f 0f 07 c1 c0 f0 f1 f1 e7     ................
     422:	6f ff ff ff ff fc fe ff df 8f cf e3 c1 01 00 00     o...............
	...
     43e:	07 07 00 00 00 00 00 0c 8c d8 d8 f0 f8 ff ff ff     ................
     44e:	ff ff ff ff ff ff ff ff e3 c0 c0 80 00 00 00 00     ................
     45e:	00 10 b8 50 a8 a8 54 54 aa aa 44 04 0a 8a 14 14     ...P..TT..D.....
     46e:	aa 88 50 fc a8 a8 54 54 14 28 88 40 40 80 00 00     ..P...TT.(.@@...
	...
     486:	06 0b f5 55 aa aa 15 45 2a ae 5d 5d ba ea d4 50     ...U...E*.]]...P
     496:	b0 e2 d5 55 be e2 55 55 d1 aa 2a 10 55 2a 0a 7d     ...U..UU..*.U*.}
     4a6:	04 00 00 00 00 00 00 00 00 06 0d f5 2a 6a 40 14     ............*j@.
     4b6:	aa a0 45 55 aa aa 55 d7 6e 7a f7 dd 8a 0f 1d 63     ..EU..U.nz.....c
     4c6:	81 00 00 00 00 c0 30 c0 00 00 80 00 00 00 00 00     ......0.........
     4d6:	00 00 00 03 00 00 07 15 0a fa 11 18 0a 06 01 80     ................
     4e6:	80 a0 a1 e1 46 48 f0 00 03 04 08 24 d2 09 0c 82     ....FH.....$....
     4f6:	c1 01 00 00 00 00 80 80 80 80 80 80 80 80 80 80     ................
     506:	80 87 80 80 80 80 80 80 88 88 90 90 60 30 18 07     ............`0..
     516:	00 8c 72 82 8c 71 01 3c 63 40 80 80 80 80           ..r..q.<c@....

00000524 <__ctors_end>:
     524:	11 24       	eor	r1, r1
     526:	1f be       	out	0x3f, r1	; 63
     528:	cf ef       	ldi	r28, 0xFF	; 255
     52a:	cd bf       	out	0x3d, r28	; 61
     52c:	df e3       	ldi	r29, 0x3F	; 63
     52e:	de bf       	out	0x3e, r29	; 62

00000530 <__do_copy_data>:
     530:	18 e3       	ldi	r17, 0x38	; 56
     532:	a0 e0       	ldi	r26, 0x00	; 0
     534:	b8 e3       	ldi	r27, 0x38	; 56
     536:	e8 ef       	ldi	r30, 0xF8	; 248
     538:	f0 e1       	ldi	r31, 0x10	; 16
     53a:	02 c0       	rjmp	.+4      	; 0x540 <__do_copy_data+0x10>
     53c:	05 90       	lpm	r0, Z+
     53e:	0d 92       	st	X+, r0
     540:	aa 30       	cpi	r26, 0x0A	; 10
     542:	b1 07       	cpc	r27, r17
     544:	d9 f7       	brne	.-10     	; 0x53c <__do_copy_data+0xc>

00000546 <__do_clear_bss>:
     546:	2d e3       	ldi	r18, 0x3D	; 61
     548:	aa e0       	ldi	r26, 0x0A	; 10
     54a:	b8 e3       	ldi	r27, 0x38	; 56
     54c:	01 c0       	rjmp	.+2      	; 0x550 <.do_clear_bss_start>

0000054e <.do_clear_bss_loop>:
     54e:	1d 92       	st	X+, r1

00000550 <.do_clear_bss_start>:
     550:	a2 33       	cpi	r26, 0x32	; 50
     552:	b2 07       	cpc	r27, r18
     554:	e1 f7       	brne	.-8      	; 0x54e <.do_clear_bss_loop>
     556:	0e 94 0d 08 	call	0x101a	; 0x101a <main>
     55a:	0c 94 7a 08 	jmp	0x10f4	; 0x10f4 <_exit>

0000055e <__bad_interrupt>:
     55e:	0c 94 00 00 	jmp	0	; 0x0 <__vectors>

00000562 <screenLoad>:
     562:	80 91 0a 38 	lds	r24, 0x380A	; 0x80380a <__data_end>
     566:	81 11       	cpse	r24, r1
     568:	1b c0       	rjmp	.+54     	; 0x5a0 <screenLoad+0x3e>
     56a:	81 e0       	ldi	r24, 0x01	; 1
     56c:	80 93 26 04 	sts	0x0426, r24	; 0x800426 <__RODATA_PM_OFFSET__+0x7f8426>
     570:	e1 e3       	ldi	r30, 0x31	; 49
     572:	f8 e3       	ldi	r31, 0x38	; 56
     574:	80 81       	ld	r24, Z
     576:	80 93 24 08 	sts	0x0824, r24	; 0x800824 <__RODATA_PM_OFFSET__+0x7f8824>
     57a:	80 91 23 08 	lds	r24, 0x0823	; 0x800823 <__RODATA_PM_OFFSET__+0x7f8823>
     57e:	85 ff       	sbrs	r24, 5
     580:	fc cf       	rjmp	.-8      	; 0x57a <screenLoad+0x18>
     582:	81 81       	ldd	r24, Z+1	; 0x01
     584:	80 93 24 08 	sts	0x0824, r24	; 0x800824 <__RODATA_PM_OFFSET__+0x7f8824>
     588:	80 91 23 08 	lds	r24, 0x0823	; 0x800823 <__RODATA_PM_OFFSET__+0x7f8823>
     58c:	85 ff       	sbrs	r24, 5
     58e:	fc cf       	rjmp	.-8      	; 0x588 <screenLoad+0x26>
     590:	32 96       	adiw	r30, 0x02	; 2
     592:	8c e3       	ldi	r24, 0x3C	; 60
     594:	e1 33       	cpi	r30, 0x31	; 49
     596:	f8 07       	cpc	r31, r24
     598:	69 f7       	brne	.-38     	; 0x574 <screenLoad+0x12>
     59a:	81 e0       	ldi	r24, 0x01	; 1
     59c:	80 93 25 04 	sts	0x0425, r24	; 0x800425 <__RODATA_PM_OFFSET__+0x7f8425>
     5a0:	90 91 48 04 	lds	r25, 0x0448	; 0x800448 <__RODATA_PM_OFFSET__+0x7f8448>
     5a4:	20 91 08 04 	lds	r18, 0x0408	; 0x800408 <__RODATA_PM_OFFSET__+0x7f8408>
     5a8:	20 7e       	andi	r18, 0xE0	; 224
     5aa:	89 2f       	mov	r24, r25
     5ac:	8f 70       	andi	r24, 0x0F	; 15
     5ae:	82 2b       	or	r24, r18
     5b0:	08 95       	ret

000005b2 <toneLogic>:
     5b2:	80 91 0b 38 	lds	r24, 0x380B	; 0x80380b <toneTimer>
     5b6:	90 91 0c 38 	lds	r25, 0x380C	; 0x80380c <toneTimer+0x1>
     5ba:	00 97       	sbiw	r24, 0x00	; 0
     5bc:	61 f0       	breq	.+24     	; 0x5d6 <toneLogic+0x24>
     5be:	01 97       	sbiw	r24, 0x01	; 1
     5c0:	80 93 0b 38 	sts	0x380B, r24	; 0x80380b <toneTimer>
     5c4:	90 93 0c 38 	sts	0x380C, r25	; 0x80380c <toneTimer+0x1>
     5c8:	89 2b       	or	r24, r25
     5ca:	29 f4       	brne	.+10     	; 0x5d6 <toneLogic+0x24>
     5cc:	80 91 00 0a 	lds	r24, 0x0A00	; 0x800a00 <__RODATA_PM_OFFSET__+0x7f8a00>
     5d0:	8e 7f       	andi	r24, 0xFE	; 254
     5d2:	80 93 00 0a 	sts	0x0A00, r24	; 0x800a00 <__RODATA_PM_OFFSET__+0x7f8a00>
     5d6:	08 95       	ret

000005d8 <tone>:
     5d8:	e0 e0       	ldi	r30, 0x00	; 0
     5da:	fa e0       	ldi	r31, 0x0A	; 10
     5dc:	80 a7       	std	Z+40, r24	; 0x28
     5de:	91 a7       	std	Z+41, r25	; 0x29
     5e0:	80 81       	ld	r24, Z
     5e2:	81 60       	ori	r24, 0x01	; 1
     5e4:	80 83       	st	Z, r24
     5e6:	60 93 0b 38 	sts	0x380B, r22	; 0x80380b <toneTimer>
     5ea:	70 93 0c 38 	sts	0x380C, r23	; 0x80380c <toneTimer+0x1>
     5ee:	08 95       	ret

000005f0 <ledState>:
     5f0:	88 23       	and	r24, r24
     5f2:	21 f0       	breq	.+8      	; 0x5fc <ledState+0xc>
     5f4:	80 e1       	ldi	r24, 0x10	; 16
     5f6:	80 93 25 04 	sts	0x0425, r24	; 0x800425 <__RODATA_PM_OFFSET__+0x7f8425>
     5fa:	08 95       	ret
     5fc:	80 e1       	ldi	r24, 0x10	; 16
     5fe:	80 93 26 04 	sts	0x0426, r24	; 0x800426 <__RODATA_PM_OFFSET__+0x7f8426>
     602:	08 95       	ret

00000604 <drawTiles>:
     604:	7f 92       	push	r7
     606:	8f 92       	push	r8
     608:	9f 92       	push	r9
     60a:	af 92       	push	r10
     60c:	bf 92       	push	r11
     60e:	cf 92       	push	r12
     610:	df 92       	push	r13
     612:	ef 92       	push	r14
     614:	ff 92       	push	r15
     616:	0f 93       	push	r16
     618:	1f 93       	push	r17
     61a:	cf 93       	push	r28
     61c:	df 93       	push	r29
     61e:	ec 01       	movw	r28, r24
     620:	81 e0       	ldi	r24, 0x01	; 1
     622:	80 93 26 04 	sts	0x0426, r24	; 0x800426 <__RODATA_PM_OFFSET__+0x7f8426>
     626:	80 91 0f 38 	lds	r24, 0x380F	; 0x80380f <scrollDirection>
     62a:	88 23       	and	r24, r24
     62c:	09 f4       	brne	.+2      	; 0x630 <drawTiles+0x2c>
     62e:	85 c0       	rjmp	.+266    	; 0x73a <drawTiles+0x136>
     630:	80 90 0d 38 	lds	r8, 0x380D	; 0x80380d <winYfine>
     634:	58 e0       	ldi	r21, 0x08	; 8
     636:	58 19       	sub	r21, r8
     638:	90 91 0e 38 	lds	r25, 0x380E	; 0x80380e <winY>
     63c:	92 95       	swap	r25
     63e:	90 7f       	andi	r25, 0xF0	; 240
     640:	21 e2       	ldi	r18, 0x21	; 33
     642:	e2 2e       	mov	r14, r18
     644:	28 e3       	ldi	r18, 0x38	; 56
     646:	f2 2e       	mov	r15, r18
     648:	30 e8       	ldi	r19, 0x80	; 128
     64a:	73 2e       	mov	r7, r19
     64c:	79 0e       	add	r7, r25
     64e:	a1 2c       	mov	r10, r1
     650:	b1 2c       	mov	r11, r1
     652:	d7 01       	movw	r26, r14
     654:	4d 91       	ld	r20, X+
     656:	7d 01       	movw	r14, r26
     658:	db 01       	movw	r26, r22
     65a:	a9 0f       	add	r26, r25
     65c:	b1 1d       	adc	r27, r1
     65e:	8c 91       	ld	r24, X
     660:	f4 2f       	mov	r31, r20
     662:	e8 e0       	ldi	r30, 0x08	; 8
     664:	8e 9f       	mul	r24, r30
     666:	f0 0d       	add	r31, r0
     668:	11 24       	eor	r1, r1
     66a:	8f 2f       	mov	r24, r31
     66c:	24 2f       	mov	r18, r20
     66e:	30 e0       	ldi	r19, 0x00	; 0
     670:	90 3f       	cpi	r25, 0xF0	; 240
     672:	41 f4       	brne	.+16     	; 0x684 <drawTiles+0x80>
     674:	fb 01       	movw	r30, r22
     676:	10 81       	ld	r17, Z
     678:	f8 e0       	ldi	r31, 0x08	; 8
     67a:	1f 9f       	mul	r17, r31
     67c:	20 0d       	add	r18, r0
     67e:	31 1d       	adc	r19, r1
     680:	11 24       	eor	r1, r1
     682:	08 c0       	rjmp	.+16     	; 0x694 <drawTiles+0x90>
     684:	50 96       	adiw	r26, 0x10	; 16
     686:	1c 91       	ld	r17, X
     688:	50 97       	sbiw	r26, 0x10	; 16
     68a:	e8 e0       	ldi	r30, 0x08	; 8
     68c:	1e 9f       	mul	r17, r30
     68e:	20 0d       	add	r18, r0
     690:	31 1d       	adc	r19, r1
     692:	11 24       	eor	r1, r1
     694:	85 01       	movw	r16, r10
     696:	0f 5c       	subi	r16, 0xCF	; 207
     698:	17 4c       	sbci	r17, 0xC7	; 199
     69a:	91 2c       	mov	r9, r1
     69c:	6d 01       	movw	r12, r26
     69e:	f0 e1       	ldi	r31, 0x10	; 16
     6a0:	cf 0e       	add	r12, r31
     6a2:	d1 1c       	adc	r13, r1
     6a4:	f8 01       	movw	r30, r16
     6a6:	e1 53       	subi	r30, 0x31	; 49
     6a8:	f8 43       	sbci	r31, 0x38	; 56
     6aa:	5f 01       	movw	r10, r30
     6ac:	f0 e8       	ldi	r31, 0x80	; 128
     6ae:	9f 16       	cp	r9, r31
     6b0:	81 f1       	breq	.+96     	; 0x712 <drawTiles+0x10e>
     6b2:	fe 01       	movw	r30, r28
     6b4:	e8 0f       	add	r30, r24
     6b6:	f1 1d       	adc	r31, r1
     6b8:	a4 90       	lpm	r10, Z
     6ba:	fe 01       	movw	r30, r28
     6bc:	e2 0f       	add	r30, r18
     6be:	f3 1f       	adc	r31, r19
     6c0:	e4 91       	lpm	r30, Z
     6c2:	b1 2c       	mov	r11, r1
     6c4:	08 2c       	mov	r0, r8
     6c6:	02 c0       	rjmp	.+4      	; 0x6cc <drawTiles+0xc8>
     6c8:	b5 94       	asr	r11
     6ca:	a7 94       	ror	r10
     6cc:	0a 94       	dec	r0
     6ce:	e2 f7       	brpl	.-8      	; 0x6c8 <drawTiles+0xc4>
     6d0:	05 2e       	mov	r0, r21
     6d2:	01 c0       	rjmp	.+2      	; 0x6d6 <drawTiles+0xd2>
     6d4:	ee 0f       	add	r30, r30
     6d6:	0a 94       	dec	r0
     6d8:	ea f7       	brpl	.-6      	; 0x6d4 <drawTiles+0xd0>
     6da:	ae 2a       	or	r10, r30
     6dc:	f8 01       	movw	r30, r16
     6de:	a1 92       	st	Z+, r10
     6e0:	8f 01       	movw	r16, r30
     6e2:	4f 5f       	subi	r20, 0xFF	; 255
     6e4:	48 30       	cpi	r20, 0x08	; 8
     6e6:	21 f0       	breq	.+8      	; 0x6f0 <drawTiles+0xec>
     6e8:	8f 5f       	subi	r24, 0xFF	; 255
     6ea:	2f 5f       	subi	r18, 0xFF	; 255
     6ec:	3f 4f       	sbci	r19, 0xFF	; 255
     6ee:	0f c0       	rjmp	.+30     	; 0x70e <drawTiles+0x10a>
     6f0:	8c 91       	ld	r24, X
     6f2:	88 0f       	add	r24, r24
     6f4:	88 0f       	add	r24, r24
     6f6:	88 0f       	add	r24, r24
     6f8:	90 3f       	cpi	r25, 0xF0	; 240
     6fa:	11 f4       	brne	.+4      	; 0x700 <drawTiles+0xfc>
     6fc:	fb 01       	movw	r30, r22
     6fe:	01 c0       	rjmp	.+2      	; 0x702 <drawTiles+0xfe>
     700:	f6 01       	movw	r30, r12
     702:	20 81       	ld	r18, Z
     704:	f8 e0       	ldi	r31, 0x08	; 8
     706:	2f 9f       	mul	r18, r31
     708:	90 01       	movw	r18, r0
     70a:	11 24       	eor	r1, r1
     70c:	40 e0       	ldi	r20, 0x00	; 0
     70e:	93 94       	inc	r9
     710:	c9 cf       	rjmp	.-110    	; 0x6a4 <drawTiles+0xa0>
     712:	90 5f       	subi	r25, 0xF0	; 240
     714:	97 11       	cpse	r25, r7
     716:	9d cf       	rjmp	.-198    	; 0x652 <drawTiles+0x4e>
     718:	81 e0       	ldi	r24, 0x01	; 1
     71a:	80 93 25 04 	sts	0x0425, r24	; 0x800425 <__RODATA_PM_OFFSET__+0x7f8425>
     71e:	df 91       	pop	r29
     720:	cf 91       	pop	r28
     722:	1f 91       	pop	r17
     724:	0f 91       	pop	r16
     726:	ff 90       	pop	r15
     728:	ef 90       	pop	r14
     72a:	df 90       	pop	r13
     72c:	cf 90       	pop	r12
     72e:	bf 90       	pop	r11
     730:	af 90       	pop	r10
     732:	9f 90       	pop	r9
     734:	8f 90       	pop	r8
     736:	7f 90       	pop	r7
     738:	08 95       	ret
     73a:	a1 e2       	ldi	r26, 0x21	; 33
     73c:	b8 e3       	ldi	r27, 0x38	; 56
     73e:	09 e2       	ldi	r16, 0x29	; 41
     740:	18 e3       	ldi	r17, 0x38	; 56
     742:	89 e2       	ldi	r24, 0x29	; 41
     744:	c8 2e       	mov	r12, r24
     746:	88 e3       	ldi	r24, 0x38	; 56
     748:	d8 2e       	mov	r13, r24
     74a:	b1 2c       	mov	r11, r1
     74c:	81 2c       	mov	r8, r1
     74e:	91 2c       	mov	r9, r1
     750:	8d 91       	ld	r24, X+
     752:	f8 01       	movw	r30, r16
     754:	91 91       	ld	r25, Z+
     756:	8f 01       	movw	r16, r30
     758:	7b 01       	movw	r14, r22
     75a:	eb 0c       	add	r14, r11
     75c:	f1 1c       	adc	r15, r1
     75e:	97 01       	movw	r18, r14
     760:	29 0f       	add	r18, r25
     762:	31 1d       	adc	r19, r1
     764:	f9 01       	movw	r30, r18
     766:	40 81       	ld	r20, Z
     768:	28 2f       	mov	r18, r24
     76a:	30 e0       	ldi	r19, 0x00	; 0
     76c:	f8 e0       	ldi	r31, 0x08	; 8
     76e:	4f 9f       	mul	r20, r31
     770:	20 0d       	add	r18, r0
     772:	31 1d       	adc	r19, r1
     774:	11 24       	eor	r1, r1
     776:	a4 01       	movw	r20, r8
     778:	4f 5c       	subi	r20, 0xCF	; 207
     77a:	57 4c       	sbci	r21, 0xC7	; 199
     77c:	a1 2c       	mov	r10, r1
     77e:	fa 01       	movw	r30, r20
     780:	e1 53       	subi	r30, 0x31	; 49
     782:	f8 43       	sbci	r31, 0x38	; 56
     784:	4f 01       	movw	r8, r30
     786:	f0 e8       	ldi	r31, 0x80	; 128
     788:	af 16       	cp	r10, r31
     78a:	e1 f0       	breq	.+56     	; 0x7c4 <drawTiles+0x1c0>
     78c:	fe 01       	movw	r30, r28
     78e:	e2 0f       	add	r30, r18
     790:	f3 1f       	adc	r31, r19
     792:	94 90       	lpm	r9, Z
     794:	fa 01       	movw	r30, r20
     796:	91 92       	st	Z+, r9
     798:	af 01       	movw	r20, r30
     79a:	8f 5f       	subi	r24, 0xFF	; 255
     79c:	88 30       	cpi	r24, 0x08	; 8
     79e:	19 f0       	breq	.+6      	; 0x7a6 <drawTiles+0x1a2>
     7a0:	2f 5f       	subi	r18, 0xFF	; 255
     7a2:	3f 4f       	sbci	r19, 0xFF	; 255
     7a4:	0d c0       	rjmp	.+26     	; 0x7c0 <drawTiles+0x1bc>
     7a6:	9f 5f       	subi	r25, 0xFF	; 255
     7a8:	90 32       	cpi	r25, 0x20	; 32
     7aa:	08 f0       	brcs	.+2      	; 0x7ae <drawTiles+0x1aa>
     7ac:	90 e0       	ldi	r25, 0x00	; 0
     7ae:	f7 01       	movw	r30, r14
     7b0:	e9 0f       	add	r30, r25
     7b2:	f1 1d       	adc	r31, r1
     7b4:	20 81       	ld	r18, Z
     7b6:	f8 e0       	ldi	r31, 0x08	; 8
     7b8:	2f 9f       	mul	r18, r31
     7ba:	90 01       	movw	r18, r0
     7bc:	11 24       	eor	r1, r1
     7be:	80 e0       	ldi	r24, 0x00	; 0
     7c0:	a3 94       	inc	r10
     7c2:	dd cf       	rjmp	.-70     	; 0x77e <drawTiles+0x17a>
     7c4:	20 e2       	ldi	r18, 0x20	; 32
     7c6:	b2 0e       	add	r11, r18
     7c8:	ca 16       	cp	r12, r26
     7ca:	db 06       	cpc	r13, r27
     7cc:	09 f0       	breq	.+2      	; 0x7d0 <drawTiles+0x1cc>
     7ce:	c0 cf       	rjmp	.-128    	; 0x750 <drawTiles+0x14c>
     7d0:	a3 cf       	rjmp	.-186    	; 0x718 <drawTiles+0x114>

000007d2 <setRowScroll>:
     7d2:	70 e0       	ldi	r23, 0x00	; 0
     7d4:	fb 01       	movw	r30, r22
     7d6:	e7 5d       	subi	r30, 0xD7	; 215
     7d8:	f7 4c       	sbci	r31, 0xC7	; 199
     7da:	98 2f       	mov	r25, r24
     7dc:	96 95       	lsr	r25
     7de:	96 95       	lsr	r25
     7e0:	96 95       	lsr	r25
     7e2:	90 83       	st	Z, r25
     7e4:	fb 01       	movw	r30, r22
     7e6:	ef 5d       	subi	r30, 0xDF	; 223
     7e8:	f7 4c       	sbci	r31, 0xC7	; 199
     7ea:	87 70       	andi	r24, 0x07	; 7
     7ec:	80 83       	st	Z, r24
     7ee:	08 95       	ret

000007f0 <drawSprite>:
     7f0:	2f 92       	push	r2
     7f2:	3f 92       	push	r3
     7f4:	4f 92       	push	r4
     7f6:	5f 92       	push	r5
     7f8:	6f 92       	push	r6
     7fa:	7f 92       	push	r7
     7fc:	8f 92       	push	r8
     7fe:	9f 92       	push	r9
     800:	af 92       	push	r10
     802:	bf 92       	push	r11
     804:	cf 92       	push	r12
     806:	df 92       	push	r13
     808:	ef 92       	push	r14
     80a:	ff 92       	push	r15
     80c:	0f 93       	push	r16
     80e:	1f 93       	push	r17
     810:	cf 93       	push	r28
     812:	df 93       	push	r29
     814:	cd b7       	in	r28, 0x3d	; 61
     816:	de b7       	in	r29, 0x3e	; 62
     818:	28 97       	sbiw	r28, 0x08	; 8
     81a:	cd bf       	out	0x3d, r28	; 61
     81c:	de bf       	out	0x3e, r29	; 62
     81e:	fc 01       	movw	r30, r24
     820:	54 91       	lpm	r21, Z
     822:	32 96       	adiw	r30, 0x02	; 2
     824:	e9 83       	std	Y+1, r30	; 0x01
     826:	fa 83       	std	Y+2, r31	; 0x02
     828:	31 97       	sbiw	r30, 0x01	; 1
     82a:	84 91       	lpm	r24, Z
     82c:	86 95       	lsr	r24
     82e:	86 95       	lsr	r24
     830:	86 95       	lsr	r24
     832:	a8 2e       	mov	r10, r24
     834:	b1 2c       	mov	r11, r1
     836:	58 9f       	mul	r21, r24
     838:	c0 01       	movw	r24, r0
     83a:	11 24       	eor	r1, r1
     83c:	f4 2f       	mov	r31, r20
     83e:	f7 70       	andi	r31, 0x07	; 7
     840:	5f 2e       	mov	r5, r31
     842:	38 e0       	ldi	r19, 0x08	; 8
     844:	43 2e       	mov	r4, r19
     846:	4f 1a       	sub	r4, r31
     848:	45 95       	asr	r20
     84a:	45 95       	asr	r20
     84c:	45 95       	asr	r20
     84e:	a6 2f       	mov	r26, r22
     850:	06 2e       	mov	r0, r22
     852:	00 0c       	add	r0, r0
     854:	bb 0b       	sbc	r27, r27
     856:	30 e8       	ldi	r19, 0x80	; 128
     858:	43 03       	mulsu	r20, r19
     85a:	a0 0d       	add	r26, r0
     85c:	b1 1d       	adc	r27, r1
     85e:	11 24       	eor	r1, r1
     860:	e2 2f       	mov	r30, r18
     862:	f0 e0       	ldi	r31, 0x00	; 0
     864:	ee 0f       	add	r30, r30
     866:	ff 1f       	adc	r31, r31
     868:	e8 9f       	mul	r30, r24
     86a:	90 01       	movw	r18, r0
     86c:	e9 9f       	mul	r30, r25
     86e:	30 0d       	add	r19, r0
     870:	f8 9f       	mul	r31, r24
     872:	30 0d       	add	r19, r0
     874:	11 24       	eor	r1, r1
     876:	e9 80       	ldd	r14, Y+1	; 0x01
     878:	fa 80       	ldd	r15, Y+2	; 0x02
     87a:	2e 0d       	add	r18, r14
     87c:	3f 1d       	adc	r19, r15
     87e:	45 2f       	mov	r20, r21
     880:	50 e0       	ldi	r21, 0x00	; 0
     882:	0f 3f       	cpi	r16, 0xFF	; 255
     884:	11 f4       	brne	.+4      	; 0x88a <__DATA_REGION_LENGTH__+0x8a>
     886:	24 0f       	add	r18, r20
     888:	35 1f       	adc	r19, r21
     88a:	71 e0       	ldi	r23, 0x01	; 1
     88c:	51 10       	cpse	r5, r1
     88e:	01 c0       	rjmp	.+2      	; 0x892 <__DATA_REGION_LENGTH__+0x92>
     890:	70 e0       	ldi	r23, 0x00	; 0
     892:	7a 01       	movw	r14, r20
     894:	ee 0c       	add	r14, r14
     896:	ff 1c       	adc	r15, r15
     898:	f7 01       	movw	r30, r14
     89a:	31 97       	sbiw	r30, 0x01	; 1
     89c:	e9 83       	std	Y+1, r30	; 0x01
     89e:	fa 83       	std	Y+2, r31	; 0x02
     8a0:	1f 82       	std	Y+7, r1	; 0x07
     8a2:	18 86       	std	Y+8, r1	; 0x08
     8a4:	75 01       	movw	r14, r10
     8a6:	e7 0e       	add	r14, r23
     8a8:	f1 1c       	adc	r15, r1
     8aa:	ed 82       	std	Y+5, r14	; 0x05
     8ac:	fe 82       	std	Y+6, r15	; 0x06
     8ae:	3c 01       	movw	r6, r24
     8b0:	64 1a       	sub	r6, r20
     8b2:	75 0a       	sbc	r7, r21
     8b4:	80 2e       	mov	r8, r16
     8b6:	00 2e       	mov	r0, r16
     8b8:	00 0c       	add	r0, r0
     8ba:	99 08       	sbc	r9, r9
     8bc:	ef 80       	ldd	r14, Y+7	; 0x07
     8be:	f8 84       	ldd	r15, Y+8	; 0x08
     8c0:	ed 81       	ldd	r30, Y+5	; 0x05
     8c2:	fe 81       	ldd	r31, Y+6	; 0x06
     8c4:	ee 16       	cp	r14, r30
     8c6:	ff 06       	cpc	r15, r31
     8c8:	0c f0       	brlt	.+2      	; 0x8cc <__DATA_REGION_LENGTH__+0xcc>
     8ca:	77 c0       	rjmp	.+238    	; 0x9ba <__DATA_REGION_LENGTH__+0x1ba>
     8cc:	fd 01       	movw	r30, r26
     8ce:	ef 5c       	subi	r30, 0xCF	; 207
     8d0:	f7 4c       	sbci	r31, 0xC7	; 199
     8d2:	6f 01       	movw	r12, r30
     8d4:	7d 01       	movw	r14, r26
     8d6:	36 2e       	mov	r3, r22
     8d8:	fa 01       	movw	r30, r20
     8da:	ea 0f       	add	r30, r26
     8dc:	fb 1f       	adc	r31, r27
     8de:	eb 83       	std	Y+3, r30	; 0x03
     8e0:	fc 83       	std	Y+4, r31	; 0x04
     8e2:	eb 81       	ldd	r30, Y+3	; 0x03
     8e4:	fc 81       	ldd	r31, Y+4	; 0x04
     8e6:	ee 16       	cp	r14, r30
     8e8:	ff 06       	cpc	r15, r31
     8ea:	0c f0       	brlt	.+2      	; 0x8ee <__DATA_REGION_LENGTH__+0xee>
     8ec:	58 c0       	rjmp	.+176    	; 0x99e <__DATA_REGION_LENGTH__+0x19e>
     8ee:	f7 01       	movw	r30, r14
     8f0:	ee 27       	eor	r30, r30
     8f2:	fc 7f       	andi	r31, 0xFC	; 252
     8f4:	ef 2b       	or	r30, r31
     8f6:	09 f0       	breq	.+2      	; 0x8fa <__DATA_REGION_LENGTH__+0xfa>
     8f8:	48 c0       	rjmp	.+144    	; 0x98a <__DATA_REGION_LENGTH__+0x18a>
     8fa:	37 fc       	sbrc	r3, 7
     8fc:	46 c0       	rjmp	.+140    	; 0x98a <__DATA_REGION_LENGTH__+0x18a>
     8fe:	55 20       	and	r5, r5
     900:	09 f4       	brne	.+2      	; 0x904 <__DATA_REGION_LENGTH__+0x104>
     902:	38 c0       	rjmp	.+112    	; 0x974 <__DATA_REGION_LENGTH__+0x174>
     904:	ef 81       	ldd	r30, Y+7	; 0x07
     906:	f8 85       	ldd	r31, Y+8	; 0x08
     908:	ef 2b       	or	r30, r31
     90a:	c9 f0       	breq	.+50     	; 0x93e <__DATA_REGION_LENGTH__+0x13e>
     90c:	f9 01       	movw	r30, r18
     90e:	e4 1b       	sub	r30, r20
     910:	f5 0b       	sbc	r31, r21
     912:	e4 91       	lpm	r30, Z
     914:	f0 e0       	ldi	r31, 0x00	; 0
     916:	04 2c       	mov	r0, r4
     918:	02 c0       	rjmp	.+4      	; 0x91e <__DATA_REGION_LENGTH__+0x11e>
     91a:	f5 95       	asr	r31
     91c:	e7 95       	ror	r30
     91e:	0a 94       	dec	r0
     920:	e2 f7       	brpl	.-8      	; 0x91a <__DATA_REGION_LENGTH__+0x11a>
     922:	1e 2f       	mov	r17, r30
     924:	f9 01       	movw	r30, r18
     926:	e6 0d       	add	r30, r6
     928:	f7 1d       	adc	r31, r7
     92a:	e4 91       	lpm	r30, Z
     92c:	f0 e0       	ldi	r31, 0x00	; 0
     92e:	04 2c       	mov	r0, r4
     930:	02 c0       	rjmp	.+4      	; 0x936 <__DATA_REGION_LENGTH__+0x136>
     932:	f5 95       	asr	r31
     934:	e7 95       	ror	r30
     936:	0a 94       	dec	r0
     938:	e2 f7       	brpl	.-8      	; 0x932 <__DATA_REGION_LENGTH__+0x132>
     93a:	7e 2f       	mov	r23, r30
     93c:	02 c0       	rjmp	.+4      	; 0x942 <__DATA_REGION_LENGTH__+0x142>
     93e:	70 e0       	ldi	r23, 0x00	; 0
     940:	10 e0       	ldi	r17, 0x00	; 0
     942:	ef 81       	ldd	r30, Y+7	; 0x07
     944:	f8 85       	ldd	r31, Y+8	; 0x08
     946:	ea 15       	cp	r30, r10
     948:	fb 05       	cpc	r31, r11
     94a:	cc f4       	brge	.+50     	; 0x97e <__DATA_REGION_LENGTH__+0x17e>
     94c:	f9 01       	movw	r30, r18
     94e:	24 90       	lpm	r2, Z
     950:	e2 2d       	mov	r30, r2
     952:	05 2c       	mov	r0, r5
     954:	01 c0       	rjmp	.+2      	; 0x958 <__DATA_REGION_LENGTH__+0x158>
     956:	ee 0f       	add	r30, r30
     958:	0a 94       	dec	r0
     95a:	ea f7       	brpl	.-6      	; 0x956 <__DATA_REGION_LENGTH__+0x156>
     95c:	1e 2b       	or	r17, r30
     95e:	f9 01       	movw	r30, r18
     960:	e8 0f       	add	r30, r24
     962:	f9 1f       	adc	r31, r25
     964:	e4 91       	lpm	r30, Z
     966:	05 2c       	mov	r0, r5
     968:	01 c0       	rjmp	.+2      	; 0x96c <__DATA_REGION_LENGTH__+0x16c>
     96a:	ee 0f       	add	r30, r30
     96c:	0a 94       	dec	r0
     96e:	ea f7       	brpl	.-6      	; 0x96a <__DATA_REGION_LENGTH__+0x16a>
     970:	7e 2b       	or	r23, r30
     972:	05 c0       	rjmp	.+10     	; 0x97e <__DATA_REGION_LENGTH__+0x17e>
     974:	f9 01       	movw	r30, r18
     976:	14 91       	lpm	r17, Z
     978:	e8 0f       	add	r30, r24
     97a:	f9 1f       	adc	r31, r25
     97c:	74 91       	lpm	r23, Z
     97e:	10 95       	com	r17
     980:	f6 01       	movw	r30, r12
     982:	20 80       	ld	r2, Z
     984:	12 21       	and	r17, r2
     986:	71 2b       	or	r23, r17
     988:	70 83       	st	Z, r23
     98a:	28 0d       	add	r18, r8
     98c:	39 1d       	adc	r19, r9
     98e:	33 94       	inc	r3
     990:	ff ef       	ldi	r31, 0xFF	; 255
     992:	ef 1a       	sub	r14, r31
     994:	ff 0a       	sbc	r15, r31
     996:	7f ef       	ldi	r23, 0xFF	; 255
     998:	c7 1a       	sub	r12, r23
     99a:	d7 0a       	sbc	r13, r23
     99c:	a2 cf       	rjmp	.-188    	; 0x8e2 <__DATA_REGION_LENGTH__+0xe2>
     99e:	a0 58       	subi	r26, 0x80	; 128
     9a0:	bf 4f       	sbci	r27, 0xFF	; 255
     9a2:	0f 3f       	cpi	r16, 0xFF	; 255
     9a4:	21 f4       	brne	.+8      	; 0x9ae <__DATA_REGION_LENGTH__+0x1ae>
     9a6:	e9 80       	ldd	r14, Y+1	; 0x01
     9a8:	fa 80       	ldd	r15, Y+2	; 0x02
     9aa:	2e 0d       	add	r18, r14
     9ac:	3f 1d       	adc	r19, r15
     9ae:	ef 81       	ldd	r30, Y+7	; 0x07
     9b0:	f8 85       	ldd	r31, Y+8	; 0x08
     9b2:	31 96       	adiw	r30, 0x01	; 1
     9b4:	ef 83       	std	Y+7, r30	; 0x07
     9b6:	f8 87       	std	Y+8, r31	; 0x08
     9b8:	81 cf       	rjmp	.-254    	; 0x8bc <__DATA_REGION_LENGTH__+0xbc>
     9ba:	28 96       	adiw	r28, 0x08	; 8
     9bc:	cd bf       	out	0x3d, r28	; 61
     9be:	de bf       	out	0x3e, r29	; 62
     9c0:	df 91       	pop	r29
     9c2:	cf 91       	pop	r28
     9c4:	1f 91       	pop	r17
     9c6:	0f 91       	pop	r16
     9c8:	ff 90       	pop	r15
     9ca:	ef 90       	pop	r14
     9cc:	df 90       	pop	r13
     9ce:	cf 90       	pop	r12
     9d0:	bf 90       	pop	r11
     9d2:	af 90       	pop	r10
     9d4:	9f 90       	pop	r9
     9d6:	8f 90       	pop	r8
     9d8:	7f 90       	pop	r7
     9da:	6f 90       	pop	r6
     9dc:	5f 90       	pop	r5
     9de:	4f 90       	pop	r4
     9e0:	3f 90       	pop	r3
     9e2:	2f 90       	pop	r2
     9e4:	08 95       	ret

000009e6 <setScrollDirection>:
     9e6:	80 93 0f 38 	sts	0x380F, r24	; 0x80380f <scrollDirection>
     9ea:	08 95       	ret

000009ec <sendSPI>:
     9ec:	80 93 24 08 	sts	0x0824, r24	; 0x800824 <__RODATA_PM_OFFSET__+0x7f8824>
     9f0:	80 91 23 08 	lds	r24, 0x0823	; 0x800823 <__RODATA_PM_OFFSET__+0x7f8823>
     9f4:	87 ff       	sbrs	r24, 7
     9f6:	fc cf       	rjmp	.-8      	; 0x9f0 <sendSPI+0x4>
     9f8:	08 95       	ret

000009fa <writecommand>:
     9fa:	cf 93       	push	r28
     9fc:	df 93       	push	r29
     9fe:	e6 e2       	ldi	r30, 0x26	; 38
     a00:	f4 e0       	ldi	r31, 0x04	; 4
     a02:	c2 e0       	ldi	r28, 0x02	; 2
     a04:	c0 83       	st	Z, r28
     a06:	d1 e0       	ldi	r29, 0x01	; 1
     a08:	d0 83       	st	Z, r29
     a0a:	0e 94 f6 04 	call	0x9ec	; 0x9ec <sendSPI>
     a0e:	e5 e2       	ldi	r30, 0x25	; 37
     a10:	f4 e0       	ldi	r31, 0x04	; 4
     a12:	d0 83       	st	Z, r29
     a14:	c0 83       	st	Z, r28
     a16:	df 91       	pop	r29
     a18:	cf 91       	pop	r28
     a1a:	08 95       	ret

00000a1c <displayInit>:
     a1c:	81 e0       	ldi	r24, 0x01	; 1
     a1e:	80 93 26 04 	sts	0x0426, r24	; 0x800426 <__RODATA_PM_OFFSET__+0x7f8426>
     a22:	90 e1       	ldi	r25, 0x10	; 16
     a24:	90 93 06 04 	sts	0x0406, r25	; 0x800406 <__RODATA_PM_OFFSET__+0x7f8406>
     a28:	90 93 05 04 	sts	0x0405, r25	; 0x800405 <__RODATA_PM_OFFSET__+0x7f8405>
     a2c:	80 93 25 04 	sts	0x0425, r24	; 0x800425 <__RODATA_PM_OFFSET__+0x7f8425>
     a30:	8e ea       	ldi	r24, 0xAE	; 174
     a32:	0e 94 fd 04 	call	0x9fa	; 0x9fa <writecommand>
     a36:	85 ed       	ldi	r24, 0xD5	; 213
     a38:	0e 94 fd 04 	call	0x9fa	; 0x9fa <writecommand>
     a3c:	80 e8       	ldi	r24, 0x80	; 128
     a3e:	0e 94 fd 04 	call	0x9fa	; 0x9fa <writecommand>
     a42:	88 ea       	ldi	r24, 0xA8	; 168
     a44:	0e 94 fd 04 	call	0x9fa	; 0x9fa <writecommand>
     a48:	8f e3       	ldi	r24, 0x3F	; 63
     a4a:	0e 94 fd 04 	call	0x9fa	; 0x9fa <writecommand>
     a4e:	83 ed       	ldi	r24, 0xD3	; 211
     a50:	0e 94 fd 04 	call	0x9fa	; 0x9fa <writecommand>
     a54:	80 e0       	ldi	r24, 0x00	; 0
     a56:	0e 94 fd 04 	call	0x9fa	; 0x9fa <writecommand>
     a5a:	80 e4       	ldi	r24, 0x40	; 64
     a5c:	0e 94 fd 04 	call	0x9fa	; 0x9fa <writecommand>
     a60:	8d e8       	ldi	r24, 0x8D	; 141
     a62:	0e 94 fd 04 	call	0x9fa	; 0x9fa <writecommand>
     a66:	84 e1       	ldi	r24, 0x14	; 20
     a68:	0e 94 fd 04 	call	0x9fa	; 0x9fa <writecommand>
     a6c:	80 e2       	ldi	r24, 0x20	; 32
     a6e:	0e 94 fd 04 	call	0x9fa	; 0x9fa <writecommand>
     a72:	80 e0       	ldi	r24, 0x00	; 0
     a74:	0e 94 fd 04 	call	0x9fa	; 0x9fa <writecommand>
     a78:	81 ea       	ldi	r24, 0xA1	; 161
     a7a:	0e 94 fd 04 	call	0x9fa	; 0x9fa <writecommand>
     a7e:	88 ec       	ldi	r24, 0xC8	; 200
     a80:	0e 94 fd 04 	call	0x9fa	; 0x9fa <writecommand>
     a84:	8a ed       	ldi	r24, 0xDA	; 218
     a86:	0e 94 fd 04 	call	0x9fa	; 0x9fa <writecommand>
     a8a:	82 e1       	ldi	r24, 0x12	; 18
     a8c:	0e 94 fd 04 	call	0x9fa	; 0x9fa <writecommand>
     a90:	81 e8       	ldi	r24, 0x81	; 129
     a92:	0e 94 fd 04 	call	0x9fa	; 0x9fa <writecommand>
     a96:	8f e8       	ldi	r24, 0x8F	; 143
     a98:	0e 94 fd 04 	call	0x9fa	; 0x9fa <writecommand>
     a9c:	89 ed       	ldi	r24, 0xD9	; 217
     a9e:	0e 94 fd 04 	call	0x9fa	; 0x9fa <writecommand>
     aa2:	81 ef       	ldi	r24, 0xF1	; 241
     aa4:	0e 94 fd 04 	call	0x9fa	; 0x9fa <writecommand>
     aa8:	8b ed       	ldi	r24, 0xDB	; 219
     aaa:	0e 94 fd 04 	call	0x9fa	; 0x9fa <writecommand>
     aae:	80 e4       	ldi	r24, 0x40	; 64
     ab0:	0e 94 fd 04 	call	0x9fa	; 0x9fa <writecommand>
     ab4:	84 ea       	ldi	r24, 0xA4	; 164
     ab6:	0e 94 fd 04 	call	0x9fa	; 0x9fa <writecommand>
     aba:	86 ea       	ldi	r24, 0xA6	; 166
     abc:	0e 94 fd 04 	call	0x9fa	; 0x9fa <writecommand>
     ac0:	8f ea       	ldi	r24, 0xAF	; 175
     ac2:	0c 94 fd 04 	jmp	0x9fa	; 0x9fa <writecommand>

00000ac6 <displayOnOff>:
     ac6:	10 92 21 08 	sts	0x0821, r1	; 0x800821 <__RODATA_PM_OFFSET__+0x7f8821>
     aca:	88 23       	and	r24, r24
     acc:	29 f0       	breq	.+10     	; 0xad8 <displayOnOff+0x12>
     ace:	0e 94 0e 05 	call	0xa1c	; 0xa1c <displayInit>
     ad2:	10 92 0a 38 	sts	0x380A, r1	; 0x80380a <__data_end>
     ad6:	06 c0       	rjmp	.+12     	; 0xae4 <displayOnOff+0x1e>
     ad8:	8e ea       	ldi	r24, 0xAE	; 174
     ada:	0e 94 fd 04 	call	0x9fa	; 0x9fa <writecommand>
     ade:	81 e0       	ldi	r24, 0x01	; 1
     ae0:	80 93 0a 38 	sts	0x380A, r24	; 0x80380a <__data_end>
     ae4:	80 e8       	ldi	r24, 0x80	; 128
     ae6:	80 93 21 08 	sts	0x0821, r24	; 0x800821 <__RODATA_PM_OFFSET__+0x7f8821>
     aea:	08 95       	ret

00000aec <gotoSleep>:
     aec:	81 e0       	ldi	r24, 0x01	; 1
     aee:	80 93 1e 38 	sts	0x381E, r24	; 0x80381e <sleepState>
     af2:	80 e0       	ldi	r24, 0x00	; 0
     af4:	0e 94 63 05 	call	0xac6	; 0xac6 <displayOnOff>
     af8:	80 e0       	ldi	r24, 0x00	; 0
     afa:	0c 94 f8 02 	jmp	0x5f0	; 0x5f0 <ledState>

00000afe <gameFrame>:
     afe:	0f 93       	push	r16
     b00:	0e 94 b1 02 	call	0x562	; 0x562 <screenLoad>
     b04:	80 93 31 3d 	sts	0x3D31, r24	; 0x803d31 <gamePad>
     b08:	61 e3       	ldi	r22, 0x31	; 49
     b0a:	7c e3       	ldi	r23, 0x3C	; 60
     b0c:	8c e7       	ldi	r24, 0x7C	; 124
     b0e:	90 e0       	ldi	r25, 0x00	; 0
     b10:	0e 94 02 03 	call	0x604	; 0x604 <drawTiles>
     b14:	00 91 05 38 	lds	r16, 0x3805	; 0x803805 <treeFlip>
     b18:	20 e0       	ldi	r18, 0x00	; 0
     b1a:	48 e0       	ldi	r20, 0x08	; 8
     b1c:	60 91 06 38 	lds	r22, 0x3806	; 0x803806 <beastTreeX>
     b20:	82 e9       	ldi	r24, 0x92	; 146
     b22:	93 e0       	ldi	r25, 0x03	; 3
     b24:	0e 94 f8 03 	call	0x7f0	; 0x7f0 <drawSprite>
     b28:	00 91 02 38 	lds	r16, 0x3802	; 0x803802 <shipDir>
     b2c:	20 91 14 38 	lds	r18, 0x3814	; 0x803814 <shipFrame>
     b30:	40 91 03 38 	lds	r20, 0x3803	; 0x803803 <y>
     b34:	64 e1       	ldi	r22, 0x14	; 20
     b36:	80 e7       	ldi	r24, 0x70	; 112
     b38:	92 e0       	ldi	r25, 0x02	; 2
     b3a:	0e 94 f8 03 	call	0x7f0	; 0x7f0 <drawSprite>
     b3e:	01 e0       	ldi	r16, 0x01	; 1
     b40:	20 e0       	ldi	r18, 0x00	; 0
     b42:	48 e3       	ldi	r20, 0x38	; 56
     b44:	60 91 15 38 	lds	r22, 0x3815	; 0x803815 <debrisX>
     b48:	8e e1       	ldi	r24, 0x1E	; 30
     b4a:	92 e0       	ldi	r25, 0x02	; 2
     b4c:	0e 94 f8 03 	call	0x7f0	; 0x7f0 <drawSprite>
     b50:	60 91 15 38 	lds	r22, 0x3815	; 0x803815 <debrisX>
     b54:	68 5f       	subi	r22, 0xF8	; 248
     b56:	20 e0       	ldi	r18, 0x00	; 0
     b58:	40 e3       	ldi	r20, 0x30	; 48
     b5a:	8c ef       	ldi	r24, 0xFC	; 252
     b5c:	91 e0       	ldi	r25, 0x01	; 1
     b5e:	0e 94 f8 03 	call	0x7f0	; 0x7f0 <drawSprite>
     b62:	10 92 14 38 	sts	0x3814, r1	; 0x803814 <shipFrame>
     b66:	80 91 31 3d 	lds	r24, 0x3D31	; 0x803d31 <gamePad>
     b6a:	86 fd       	sbrc	r24, 6
     b6c:	0e 94 76 05 	call	0xaec	; 0xaec <gotoSleep>
     b70:	20 91 31 3d 	lds	r18, 0x3D31	; 0x803d31 <gamePad>
     b74:	20 ff       	sbrs	r18, 0
     b76:	0f c0       	rjmp	.+30     	; 0xb96 <gameFrame+0x98>
     b78:	80 91 03 38 	lds	r24, 0x3803	; 0x803803 <y>
     b7c:	90 91 04 38 	lds	r25, 0x3804	; 0x803804 <y+0x1>
     b80:	18 16       	cp	r1, r24
     b82:	19 06       	cpc	r1, r25
     b84:	44 f4       	brge	.+16     	; 0xb96 <gameFrame+0x98>
     b86:	01 97       	sbiw	r24, 0x01	; 1
     b88:	80 93 03 38 	sts	0x3803, r24	; 0x803803 <y>
     b8c:	90 93 04 38 	sts	0x3804, r25	; 0x803804 <y+0x1>
     b90:	82 e0       	ldi	r24, 0x02	; 2
     b92:	80 93 14 38 	sts	0x3814, r24	; 0x803814 <shipFrame>
     b96:	21 ff       	sbrs	r18, 1
     b98:	0f c0       	rjmp	.+30     	; 0xbb8 <gameFrame+0xba>
     b9a:	80 91 03 38 	lds	r24, 0x3803	; 0x803803 <y>
     b9e:	90 91 04 38 	lds	r25, 0x3804	; 0x803804 <y+0x1>
     ba2:	80 33       	cpi	r24, 0x30	; 48
     ba4:	91 05       	cpc	r25, r1
     ba6:	44 f4       	brge	.+16     	; 0xbb8 <gameFrame+0xba>
     ba8:	01 96       	adiw	r24, 0x01	; 1
     baa:	80 93 03 38 	sts	0x3803, r24	; 0x803803 <y>
     bae:	90 93 04 38 	sts	0x3804, r25	; 0x803804 <y+0x1>
     bb2:	81 e0       	ldi	r24, 0x01	; 1
     bb4:	80 93 14 38 	sts	0x3814, r24	; 0x803814 <shipFrame>
     bb8:	22 ff       	sbrs	r18, 2
     bba:	49 c0       	rjmp	.+146    	; 0xc4e <gameFrame+0x150>
     bbc:	8f ef       	ldi	r24, 0xFF	; 255
     bbe:	80 93 02 38 	sts	0x3802, r24	; 0x803802 <shipDir>
     bc2:	80 91 17 38 	lds	r24, 0x3817	; 0x803817 <x>
     bc6:	90 91 18 38 	lds	r25, 0x3818	; 0x803818 <x+0x1>
     bca:	01 97       	sbiw	r24, 0x01	; 1
     bcc:	80 93 17 38 	sts	0x3817, r24	; 0x803817 <x>
     bd0:	90 93 18 38 	sts	0x3818, r25	; 0x803818 <x+0x1>
     bd4:	80 91 10 38 	lds	r24, 0x3810	; 0x803810 <xx>
     bd8:	90 91 11 38 	lds	r25, 0x3811	; 0x803811 <xx+0x1>
     bdc:	03 97       	sbiw	r24, 0x03	; 3
     bde:	80 93 10 38 	sts	0x3810, r24	; 0x803810 <xx>
     be2:	90 93 11 38 	sts	0x3811, r25	; 0x803811 <xx+0x1>
     be6:	80 91 00 38 	lds	r24, 0x3800	; 0x803800 <__DATA_REGION_ORIGIN__>
     bea:	90 91 01 38 	lds	r25, 0x3801	; 0x803801 <__DATA_REGION_ORIGIN__+0x1>
     bee:	01 96       	adiw	r24, 0x01	; 1
     bf0:	80 93 00 38 	sts	0x3800, r24	; 0x803800 <__DATA_REGION_ORIGIN__>
     bf4:	90 93 01 38 	sts	0x3801, r25	; 0x803801 <__DATA_REGION_ORIGIN__+0x1>
     bf8:	80 91 06 38 	lds	r24, 0x3806	; 0x803806 <beastTreeX>
     bfc:	90 91 07 38 	lds	r25, 0x3807	; 0x803807 <beastTreeX+0x1>
     c00:	01 96       	adiw	r24, 0x01	; 1
     c02:	80 38       	cpi	r24, 0x80	; 128
     c04:	91 05       	cpc	r25, r1
     c06:	11 f4       	brne	.+4      	; 0xc0c <gameFrame+0x10e>
     c08:	88 ed       	ldi	r24, 0xD8	; 216
     c0a:	9f ef       	ldi	r25, 0xFF	; 255
     c0c:	80 93 06 38 	sts	0x3806, r24	; 0x803806 <beastTreeX>
     c10:	90 93 07 38 	sts	0x3807, r25	; 0x803807 <beastTreeX+0x1>
     c14:	80 91 12 38 	lds	r24, 0x3812	; 0x803812 <clouds>
     c18:	90 91 13 38 	lds	r25, 0x3813	; 0x803813 <clouds+0x1>
     c1c:	01 97       	sbiw	r24, 0x01	; 1
     c1e:	80 93 12 38 	sts	0x3812, r24	; 0x803812 <clouds>
     c22:	90 93 13 38 	sts	0x3813, r25	; 0x803813 <clouds+0x1>
     c26:	80 91 15 38 	lds	r24, 0x3815	; 0x803815 <debrisX>
     c2a:	90 91 16 38 	lds	r25, 0x3816	; 0x803816 <debrisX+0x1>
     c2e:	04 96       	adiw	r24, 0x04	; 4
     c30:	80 38       	cpi	r24, 0x80	; 128
     c32:	91 05       	cpc	r25, r1
     c34:	14 f0       	brlt	.+4      	; 0xc3a <gameFrame+0x13c>
     c36:	88 ed       	ldi	r24, 0xD8	; 216
     c38:	9f ef       	ldi	r25, 0xFF	; 255
     c3a:	80 93 15 38 	sts	0x3815, r24	; 0x803815 <debrisX>
     c3e:	90 93 16 38 	sts	0x3816, r25	; 0x803816 <debrisX+0x1>
     c42:	68 ec       	ldi	r22, 0xC8	; 200
     c44:	70 e0       	ldi	r23, 0x00	; 0
     c46:	88 e5       	ldi	r24, 0x58	; 88
     c48:	92 e0       	ldi	r25, 0x02	; 2
     c4a:	0e 94 ec 02 	call	0x5d8	; 0x5d8 <tone>
     c4e:	80 91 31 3d 	lds	r24, 0x3D31	; 0x803d31 <gamePad>
     c52:	83 ff       	sbrs	r24, 3
     c54:	51 c0       	rjmp	.+162    	; 0xcf8 <gameFrame+0x1fa>
     c56:	21 e0       	ldi	r18, 0x01	; 1
     c58:	20 93 02 38 	sts	0x3802, r18	; 0x803802 <shipDir>
     c5c:	80 91 17 38 	lds	r24, 0x3817	; 0x803817 <x>
     c60:	90 91 18 38 	lds	r25, 0x3818	; 0x803818 <x+0x1>
     c64:	01 96       	adiw	r24, 0x01	; 1
     c66:	80 93 17 38 	sts	0x3817, r24	; 0x803817 <x>
     c6a:	90 93 18 38 	sts	0x3818, r25	; 0x803818 <x+0x1>
     c6e:	80 91 12 38 	lds	r24, 0x3812	; 0x803812 <clouds>
     c72:	90 91 13 38 	lds	r25, 0x3813	; 0x803813 <clouds+0x1>
     c76:	02 96       	adiw	r24, 0x02	; 2
     c78:	80 93 12 38 	sts	0x3812, r24	; 0x803812 <clouds>
     c7c:	90 93 13 38 	sts	0x3813, r25	; 0x803813 <clouds+0x1>
     c80:	80 91 00 38 	lds	r24, 0x3800	; 0x803800 <__DATA_REGION_ORIGIN__>
     c84:	90 91 01 38 	lds	r25, 0x3801	; 0x803801 <__DATA_REGION_ORIGIN__+0x1>
     c88:	01 97       	sbiw	r24, 0x01	; 1
     c8a:	80 93 00 38 	sts	0x3800, r24	; 0x803800 <__DATA_REGION_ORIGIN__>
     c8e:	90 93 01 38 	sts	0x3801, r25	; 0x803801 <__DATA_REGION_ORIGIN__+0x1>
     c92:	80 91 06 38 	lds	r24, 0x3806	; 0x803806 <beastTreeX>
     c96:	90 91 07 38 	lds	r25, 0x3807	; 0x803807 <beastTreeX+0x1>
     c9a:	01 97       	sbiw	r24, 0x01	; 1
     c9c:	88 3d       	cpi	r24, 0xD8	; 216
     c9e:	3f ef       	ldi	r19, 0xFF	; 255
     ca0:	93 07       	cpc	r25, r19
     ca2:	29 f0       	breq	.+10     	; 0xcae <gameFrame+0x1b0>
     ca4:	80 93 06 38 	sts	0x3806, r24	; 0x803806 <beastTreeX>
     ca8:	90 93 07 38 	sts	0x3807, r25	; 0x803807 <beastTreeX+0x1>
     cac:	10 c0       	rjmp	.+32     	; 0xcce <gameFrame+0x1d0>
     cae:	80 e8       	ldi	r24, 0x80	; 128
     cb0:	90 e0       	ldi	r25, 0x00	; 0
     cb2:	80 93 06 38 	sts	0x3806, r24	; 0x803806 <beastTreeX>
     cb6:	90 93 07 38 	sts	0x3807, r25	; 0x803807 <beastTreeX+0x1>
     cba:	80 91 05 38 	lds	r24, 0x3805	; 0x803805 <treeFlip>
     cbe:	81 30       	cpi	r24, 0x01	; 1
     cc0:	21 f4       	brne	.+8      	; 0xcca <gameFrame+0x1cc>
     cc2:	8f ef       	ldi	r24, 0xFF	; 255
     cc4:	80 93 05 38 	sts	0x3805, r24	; 0x803805 <treeFlip>
     cc8:	02 c0       	rjmp	.+4      	; 0xcce <gameFrame+0x1d0>
     cca:	20 93 05 38 	sts	0x3805, r18	; 0x803805 <treeFlip>
     cce:	80 91 15 38 	lds	r24, 0x3815	; 0x803815 <debrisX>
     cd2:	90 91 16 38 	lds	r25, 0x3816	; 0x803816 <debrisX+0x1>
     cd6:	04 97       	sbiw	r24, 0x04	; 4
     cd8:	88 3d       	cpi	r24, 0xD8	; 216
     cda:	2f ef       	ldi	r18, 0xFF	; 255
     cdc:	92 07       	cpc	r25, r18
     cde:	14 f4       	brge	.+4      	; 0xce4 <gameFrame+0x1e6>
     ce0:	8f e7       	ldi	r24, 0x7F	; 127
     ce2:	90 e0       	ldi	r25, 0x00	; 0
     ce4:	80 93 15 38 	sts	0x3815, r24	; 0x803815 <debrisX>
     ce8:	90 93 16 38 	sts	0x3816, r25	; 0x803816 <debrisX+0x1>
     cec:	64 e1       	ldi	r22, 0x14	; 20
     cee:	70 e0       	ldi	r23, 0x00	; 0
     cf0:	80 eb       	ldi	r24, 0xB0	; 176
     cf2:	94 e0       	ldi	r25, 0x04	; 4
     cf4:	0e 94 ec 02 	call	0x5d8	; 0x5d8 <tone>
     cf8:	80 91 31 3d 	lds	r24, 0x3D31	; 0x803d31 <gamePad>
     cfc:	85 ff       	sbrs	r24, 5
     cfe:	03 c0       	rjmp	.+6      	; 0xd06 <gameFrame+0x208>
     d00:	94 e0       	ldi	r25, 0x04	; 4
     d02:	90 93 19 38 	sts	0x3819, r25	; 0x803819 <heroFrame>
     d06:	87 ff       	sbrs	r24, 7
     d08:	03 c0       	rjmp	.+6      	; 0xd10 <gameFrame+0x212>
     d0a:	95 e0       	ldi	r25, 0x05	; 5
     d0c:	90 93 19 38 	sts	0x3819, r25	; 0x803819 <heroFrame>
     d10:	86 ff       	sbrs	r24, 6
     d12:	03 c0       	rjmp	.+6      	; 0xd1a <gameFrame+0x21c>
     d14:	86 e0       	ldi	r24, 0x06	; 6
     d16:	80 93 19 38 	sts	0x3819, r24	; 0x803819 <heroFrame>
     d1a:	80 91 12 38 	lds	r24, 0x3812	; 0x803812 <clouds>
     d1e:	90 91 13 38 	lds	r25, 0x3813	; 0x803813 <clouds+0x1>
     d22:	01 97       	sbiw	r24, 0x01	; 1
     d24:	80 93 12 38 	sts	0x3812, r24	; 0x803812 <clouds>
     d28:	90 93 13 38 	sts	0x3813, r25	; 0x803813 <clouds+0x1>
     d2c:	96 95       	lsr	r25
     d2e:	87 95       	ror	r24
     d30:	60 e0       	ldi	r22, 0x00	; 0
     d32:	0e 94 e9 03 	call	0x7d2	; 0x7d2 <setRowScroll>
     d36:	80 91 12 38 	lds	r24, 0x3812	; 0x803812 <clouds>
     d3a:	90 91 13 38 	lds	r25, 0x3813	; 0x803813 <clouds+0x1>
     d3e:	96 95       	lsr	r25
     d40:	87 95       	ror	r24
     d42:	96 95       	lsr	r25
     d44:	87 95       	ror	r24
     d46:	61 e0       	ldi	r22, 0x01	; 1
     d48:	0e 94 e9 03 	call	0x7d2	; 0x7d2 <setRowScroll>
     d4c:	80 91 12 38 	lds	r24, 0x3812	; 0x803812 <clouds>
     d50:	90 91 13 38 	lds	r25, 0x3813	; 0x803813 <clouds+0x1>
     d54:	43 e0       	ldi	r20, 0x03	; 3
     d56:	96 95       	lsr	r25
     d58:	87 95       	ror	r24
     d5a:	4a 95       	dec	r20
     d5c:	e1 f7       	brne	.-8      	; 0xd56 <gameFrame+0x258>
     d5e:	62 e0       	ldi	r22, 0x02	; 2
     d60:	0e 94 e9 03 	call	0x7d2	; 0x7d2 <setRowScroll>
     d64:	80 91 17 38 	lds	r24, 0x3817	; 0x803817 <x>
     d68:	90 91 18 38 	lds	r25, 0x3818	; 0x803818 <x+0x1>
     d6c:	95 95       	asr	r25
     d6e:	87 95       	ror	r24
     d70:	63 e0       	ldi	r22, 0x03	; 3
     d72:	0e 94 e9 03 	call	0x7d2	; 0x7d2 <setRowScroll>
     d76:	80 91 17 38 	lds	r24, 0x3817	; 0x803817 <x>
     d7a:	90 91 18 38 	lds	r25, 0x3818	; 0x803818 <x+0x1>
     d7e:	95 95       	asr	r25
     d80:	87 95       	ror	r24
     d82:	64 e0       	ldi	r22, 0x04	; 4
     d84:	0e 94 e9 03 	call	0x7d2	; 0x7d2 <setRowScroll>
     d88:	80 91 17 38 	lds	r24, 0x3817	; 0x803817 <x>
     d8c:	90 91 18 38 	lds	r25, 0x3818	; 0x803818 <x+0x1>
     d90:	95 95       	asr	r25
     d92:	87 95       	ror	r24
     d94:	65 e0       	ldi	r22, 0x05	; 5
     d96:	0e 94 e9 03 	call	0x7d2	; 0x7d2 <setRowScroll>
     d9a:	66 e0       	ldi	r22, 0x06	; 6
     d9c:	80 91 17 38 	lds	r24, 0x3817	; 0x803817 <x>
     da0:	0e 94 e9 03 	call	0x7d2	; 0x7d2 <setRowScroll>
     da4:	80 91 17 38 	lds	r24, 0x3817	; 0x803817 <x>
     da8:	67 e0       	ldi	r22, 0x07	; 7
     daa:	88 0f       	add	r24, r24
     dac:	0e 94 e9 03 	call	0x7d2	; 0x7d2 <setRowScroll>
     db0:	80 e0       	ldi	r24, 0x00	; 0
     db2:	0f 91       	pop	r16
     db4:	0c 94 f8 02 	jmp	0x5f0	; 0x5f0 <ledState>

00000db8 <systemLoop>:
     db8:	80 91 1e 38 	lds	r24, 0x381E	; 0x80381e <sleepState>
     dbc:	88 23       	and	r24, r24
     dbe:	11 f0       	breq	.+4      	; 0xdc4 <systemLoop+0xc>
     dc0:	88 95       	sleep
     dc2:	fa cf       	rjmp	.-12     	; 0xdb8 <systemLoop>
     dc4:	80 91 1d 38 	lds	r24, 0x381D	; 0x80381d <frameFlag>
     dc8:	84 31       	cpi	r24, 0x14	; 20
     dca:	b1 f7       	brne	.-20     	; 0xdb8 <systemLoop>
     dcc:	10 92 1d 38 	sts	0x381D, r1	; 0x80381d <frameFlag>
     dd0:	81 e0       	ldi	r24, 0x01	; 1
     dd2:	0e 94 f8 02 	call	0x5f0	; 0x5f0 <ledState>
     dd6:	0e 94 7f 05 	call	0xafe	; 0xafe <gameFrame>
     dda:	80 e0       	ldi	r24, 0x00	; 0
     ddc:	0e 94 f8 02 	call	0x5f0	; 0x5f0 <ledState>
     de0:	eb cf       	rjmp	.-42     	; 0xdb8 <systemLoop>

00000de2 <fillTiles>:
     de2:	90 e0       	ldi	r25, 0x00	; 0
     de4:	fc 01       	movw	r30, r24
     de6:	ef 5c       	subi	r30, 0xCF	; 207
     de8:	f3 4c       	sbci	r31, 0xC3	; 195
     dea:	84 0f       	add	r24, r20
     dec:	91 1d       	adc	r25, r1
     dee:	9f 01       	movw	r18, r30
     df0:	21 53       	subi	r18, 0x31	; 49
     df2:	3c 43       	sbci	r19, 0x3C	; 60
     df4:	28 17       	cp	r18, r24
     df6:	39 07       	cpc	r19, r25
     df8:	1c f4       	brge	.+6      	; 0xe00 <fillTiles+0x1e>
     dfa:	61 93       	st	Z+, r22
     dfc:	6f 5f       	subi	r22, 0xFF	; 255
     dfe:	f7 cf       	rjmp	.-18     	; 0xdee <fillTiles+0xc>
     e00:	08 95       	ret

00000e02 <gameSetup>:
     e02:	cf 93       	push	r28
     e04:	80 e0       	ldi	r24, 0x00	; 0
     e06:	0e 94 f3 04 	call	0x9e6	; 0x9e6 <setScrollDirection>
     e0a:	40 e0       	ldi	r20, 0x00	; 0
     e0c:	51 e0       	ldi	r21, 0x01	; 1
     e0e:	6f e2       	ldi	r22, 0x2F	; 47
     e10:	70 e0       	ldi	r23, 0x00	; 0
     e12:	81 e3       	ldi	r24, 0x31	; 49
     e14:	9c e3       	ldi	r25, 0x3C	; 60
     e16:	0e 94 73 08 	call	0x10e6	; 0x10e6 <memset>
     e1a:	c0 e0       	ldi	r28, 0x00	; 0
     e1c:	48 e0       	ldi	r20, 0x08	; 8
     e1e:	60 e2       	ldi	r22, 0x20	; 32
     e20:	8c 2f       	mov	r24, r28
     e22:	0e 94 f1 06 	call	0xde2	; 0xde2 <fillTiles>
     e26:	c8 5f       	subi	r28, 0xF8	; 248
     e28:	c0 32       	cpi	r28, 0x20	; 32
     e2a:	c1 f7       	brne	.-16     	; 0xe1c <gameSetup+0x1a>
     e2c:	43 e0       	ldi	r20, 0x03	; 3
     e2e:	60 e0       	ldi	r22, 0x00	; 0
     e30:	8c 2f       	mov	r24, r28
     e32:	0e 94 f1 06 	call	0xde2	; 0xde2 <fillTiles>
     e36:	43 e0       	ldi	r20, 0x03	; 3
     e38:	63 e0       	ldi	r22, 0x03	; 3
     e3a:	84 e0       	ldi	r24, 0x04	; 4
     e3c:	8c 0f       	add	r24, r28
     e3e:	0e 94 f1 06 	call	0xde2	; 0xde2 <fillTiles>
     e42:	c8 5f       	subi	r28, 0xF8	; 248
     e44:	c0 34       	cpi	r28, 0x40	; 64
     e46:	91 f7       	brne	.-28     	; 0xe2c <gameSetup+0x2a>
     e48:	42 e0       	ldi	r20, 0x02	; 2
     e4a:	66 e0       	ldi	r22, 0x06	; 6
     e4c:	82 e4       	ldi	r24, 0x42	; 66
     e4e:	0e 94 f1 06 	call	0xde2	; 0xde2 <fillTiles>
     e52:	42 e0       	ldi	r20, 0x02	; 2
     e54:	68 e0       	ldi	r22, 0x08	; 8
     e56:	87 e4       	ldi	r24, 0x47	; 71
     e58:	0e 94 f1 06 	call	0xde2	; 0xde2 <fillTiles>
     e5c:	42 e0       	ldi	r20, 0x02	; 2
     e5e:	6a e0       	ldi	r22, 0x0A	; 10
     e60:	8b e4       	ldi	r24, 0x4B	; 75
     e62:	0e 94 f1 06 	call	0xde2	; 0xde2 <fillTiles>
     e66:	42 e0       	ldi	r20, 0x02	; 2
     e68:	66 e0       	ldi	r22, 0x06	; 6
     e6a:	82 e5       	ldi	r24, 0x52	; 82
     e6c:	0e 94 f1 06 	call	0xde2	; 0xde2 <fillTiles>
     e70:	42 e0       	ldi	r20, 0x02	; 2
     e72:	68 e0       	ldi	r22, 0x08	; 8
     e74:	87 e5       	ldi	r24, 0x57	; 87
     e76:	0e 94 f1 06 	call	0xde2	; 0xde2 <fillTiles>
     e7a:	42 e0       	ldi	r20, 0x02	; 2
     e7c:	6a e0       	ldi	r22, 0x0A	; 10
     e7e:	8b e5       	ldi	r24, 0x5B	; 91
     e80:	0e 94 f1 06 	call	0xde2	; 0xde2 <fillTiles>
     e84:	c0 ea       	ldi	r28, 0xA0	; 160
     e86:	48 e0       	ldi	r20, 0x08	; 8
     e88:	61 e1       	ldi	r22, 0x11	; 17
     e8a:	8c 2f       	mov	r24, r28
     e8c:	0e 94 f1 06 	call	0xde2	; 0xde2 <fillTiles>
     e90:	42 e0       	ldi	r20, 0x02	; 2
     e92:	69 e1       	ldi	r22, 0x19	; 25
     e94:	81 ee       	ldi	r24, 0xE1	; 225
     e96:	8c 0f       	add	r24, r28
     e98:	0e 94 f1 06 	call	0xde2	; 0xde2 <fillTiles>
     e9c:	42 e0       	ldi	r20, 0x02	; 2
     e9e:	6d e1       	ldi	r22, 0x1D	; 29
     ea0:	84 ee       	ldi	r24, 0xE4	; 228
     ea2:	8c 0f       	add	r24, r28
     ea4:	0e 94 f1 06 	call	0xde2	; 0xde2 <fillTiles>
     ea8:	42 e0       	ldi	r20, 0x02	; 2
     eaa:	6b e1       	ldi	r22, 0x1B	; 27
     eac:	81 ec       	ldi	r24, 0xC1	; 193
     eae:	8c 0f       	add	r24, r28
     eb0:	0e 94 f1 06 	call	0xde2	; 0xde2 <fillTiles>
     eb4:	c8 5f       	subi	r28, 0xF8	; 248
     eb6:	c0 3c       	cpi	r28, 0xC0	; 192
     eb8:	31 f7       	brne	.-52     	; 0xe86 <gameSetup+0x84>
     eba:	a1 ef       	ldi	r26, 0xF1	; 241
     ebc:	bc e3       	ldi	r27, 0x3C	; 60
     ebe:	e1 e1       	ldi	r30, 0x11	; 17
     ec0:	fd e3       	ldi	r31, 0x3D	; 61
     ec2:	80 e1       	ldi	r24, 0x10	; 16
     ec4:	8d 93       	st	X+, r24
     ec6:	4d e3       	ldi	r20, 0x3D	; 61
     ec8:	a1 31       	cpi	r26, 0x11	; 17
     eca:	b4 07       	cpc	r27, r20
     ecc:	d9 f7       	brne	.-10     	; 0xec4 <gameSetup+0xc2>
     ece:	3c e0       	ldi	r19, 0x0C	; 12
     ed0:	2d e0       	ldi	r18, 0x0D	; 13
     ed2:	9e e0       	ldi	r25, 0x0E	; 14
     ed4:	8f e0       	ldi	r24, 0x0F	; 15
     ed6:	30 83       	st	Z, r19
     ed8:	21 83       	std	Z+1, r18	; 0x01
     eda:	92 83       	std	Z+2, r25	; 0x02
     edc:	83 83       	std	Z+3, r24	; 0x03
     ede:	34 96       	adiw	r30, 0x04	; 4
     ee0:	4d e3       	ldi	r20, 0x3D	; 61
     ee2:	e1 33       	cpi	r30, 0x31	; 49
     ee4:	f4 07       	cpc	r31, r20
     ee6:	b9 f7       	brne	.-18     	; 0xed6 <gameSetup+0xd4>
     ee8:	cf 91       	pop	r28
     eea:	08 95       	ret

00000eec <__vector_13>:
     eec:	1f 92       	push	r1
     eee:	0f 92       	push	r0
     ef0:	0f b6       	in	r0, 0x3f	; 63
     ef2:	0f 92       	push	r0
     ef4:	11 24       	eor	r1, r1
     ef6:	2f 93       	push	r18
     ef8:	3f 93       	push	r19
     efa:	4f 93       	push	r20
     efc:	5f 93       	push	r21
     efe:	6f 93       	push	r22
     f00:	7f 93       	push	r23
     f02:	8f 93       	push	r24
     f04:	9f 93       	push	r25
     f06:	af 93       	push	r26
     f08:	bf 93       	push	r27
     f0a:	ef 93       	push	r30
     f0c:	ff 93       	push	r31
     f0e:	80 91 1d 38 	lds	r24, 0x381D	; 0x80381d <frameFlag>
     f12:	8f 5f       	subi	r24, 0xFF	; 255
     f14:	80 93 1d 38 	sts	0x381D, r24	; 0x80381d <frameFlag>
     f18:	0e 94 d9 02 	call	0x5b2	; 0x5b2 <toneLogic>
     f1c:	81 e0       	ldi	r24, 0x01	; 1
     f1e:	80 93 46 0a 	sts	0x0A46, r24	; 0x800a46 <__RODATA_PM_OFFSET__+0x7f8a46>
     f22:	ff 91       	pop	r31
     f24:	ef 91       	pop	r30
     f26:	bf 91       	pop	r27
     f28:	af 91       	pop	r26
     f2a:	9f 91       	pop	r25
     f2c:	8f 91       	pop	r24
     f2e:	7f 91       	pop	r23
     f30:	6f 91       	pop	r22
     f32:	5f 91       	pop	r21
     f34:	4f 91       	pop	r20
     f36:	3f 91       	pop	r19
     f38:	2f 91       	pop	r18
     f3a:	0f 90       	pop	r0
     f3c:	0f be       	out	0x3f, r0	; 63
     f3e:	0f 90       	pop	r0
     f40:	1f 90       	pop	r1
     f42:	18 95       	reti

00000f44 <__vector_3>:
     f44:	1f 92       	push	r1
     f46:	0f 92       	push	r0
     f48:	0f b6       	in	r0, 0x3f	; 63
     f4a:	0f 92       	push	r0
     f4c:	11 24       	eor	r1, r1
     f4e:	2f 93       	push	r18
     f50:	3f 93       	push	r19
     f52:	4f 93       	push	r20
     f54:	5f 93       	push	r21
     f56:	6f 93       	push	r22
     f58:	7f 93       	push	r23
     f5a:	8f 93       	push	r24
     f5c:	9f 93       	push	r25
     f5e:	af 93       	push	r26
     f60:	bf 93       	push	r27
     f62:	ef 93       	push	r30
     f64:	ff 93       	push	r31
     f66:	80 91 1e 38 	lds	r24, 0x381E	; 0x80381e <sleepState>
     f6a:	88 23       	and	r24, r24
     f6c:	29 f0       	breq	.+10     	; 0xf78 <__vector_3+0x34>
     f6e:	10 92 1e 38 	sts	0x381E, r1	; 0x80381e <sleepState>
     f72:	81 e0       	ldi	r24, 0x01	; 1
     f74:	0e 94 63 05 	call	0xac6	; 0xac6 <displayOnOff>
     f78:	80 e2       	ldi	r24, 0x20	; 32
     f7a:	80 93 09 04 	sts	0x0409, r24	; 0x800409 <__RODATA_PM_OFFSET__+0x7f8409>
     f7e:	ff 91       	pop	r31
     f80:	ef 91       	pop	r30
     f82:	bf 91       	pop	r27
     f84:	af 91       	pop	r26
     f86:	9f 91       	pop	r25
     f88:	8f 91       	pop	r24
     f8a:	7f 91       	pop	r23
     f8c:	6f 91       	pop	r22
     f8e:	5f 91       	pop	r21
     f90:	4f 91       	pop	r20
     f92:	3f 91       	pop	r19
     f94:	2f 91       	pop	r18
     f96:	0f 90       	pop	r0
     f98:	0f be       	out	0x3f, r0	; 63
     f9a:	0f 90       	pop	r0
     f9c:	1f 90       	pop	r1
     f9e:	18 95       	reti

00000fa0 <__vector_7>:
     fa0:	1f 92       	push	r1
     fa2:	0f 92       	push	r0
     fa4:	0f b6       	in	r0, 0x3f	; 63
     fa6:	0f 92       	push	r0
     fa8:	11 24       	eor	r1, r1
     faa:	8f 93       	push	r24
     fac:	80 91 1a 38 	lds	r24, 0x381A	; 0x80381a <seconds>
     fb0:	8f 5f       	subi	r24, 0xFF	; 255
     fb2:	80 93 1a 38 	sts	0x381A, r24	; 0x80381a <seconds>
     fb6:	8c 33       	cpi	r24, 0x3C	; 60
     fb8:	01 f5       	brne	.+64     	; 0xffa <__vector_7+0x5a>
     fba:	10 92 1a 38 	sts	0x381A, r1	; 0x80381a <seconds>
     fbe:	80 91 08 38 	lds	r24, 0x3808	; 0x803808 <minutes>
     fc2:	8f 5f       	subi	r24, 0xFF	; 255
     fc4:	80 93 08 38 	sts	0x3808, r24	; 0x803808 <minutes>
     fc8:	8c 33       	cpi	r24, 0x3C	; 60
     fca:	b9 f4       	brne	.+46     	; 0xffa <__vector_7+0x5a>
     fcc:	10 92 08 38 	sts	0x3808, r1	; 0x803808 <minutes>
     fd0:	80 91 09 38 	lds	r24, 0x3809	; 0x803809 <hours>
     fd4:	8f 5f       	subi	r24, 0xFF	; 255
     fd6:	80 93 09 38 	sts	0x3809, r24	; 0x803809 <hours>
     fda:	80 91 09 38 	lds	r24, 0x3809	; 0x803809 <hours>
     fde:	8c 30       	cpi	r24, 0x0C	; 12
     fe0:	29 f4       	brne	.+10     	; 0xfec <__vector_7+0x4c>
     fe2:	80 91 1b 38 	lds	r24, 0x381B	; 0x80381b <amPM>
     fe6:	8f 5f       	subi	r24, 0xFF	; 255
     fe8:	80 93 1b 38 	sts	0x381B, r24	; 0x80381b <amPM>
     fec:	80 91 09 38 	lds	r24, 0x3809	; 0x803809 <hours>
     ff0:	8d 30       	cpi	r24, 0x0D	; 13
     ff2:	19 f4       	brne	.+6      	; 0xffa <__vector_7+0x5a>
     ff4:	81 e0       	ldi	r24, 0x01	; 1
     ff6:	80 93 09 38 	sts	0x3809, r24	; 0x803809 <hours>
     ffa:	80 91 1e 38 	lds	r24, 0x381E	; 0x80381e <sleepState>
     ffe:	81 11       	cpse	r24, r1
    1000:	03 c0       	rjmp	.+6      	; 0x1008 <__vector_7+0x68>
    1002:	81 e0       	ldi	r24, 0x01	; 1
    1004:	80 93 1c 38 	sts	0x381C, r24	; 0x80381c <secFlag>
    1008:	81 e0       	ldi	r24, 0x01	; 1
    100a:	80 93 53 01 	sts	0x0153, r24	; 0x800153 <__RODATA_PM_OFFSET__+0x7f8153>
    100e:	8f 91       	pop	r24
    1010:	0f 90       	pop	r0
    1012:	0f be       	out	0x3f, r0	; 63
    1014:	0f 90       	pop	r0
    1016:	1f 90       	pop	r1
    1018:	18 95       	reti

0000101a <main>:
    101a:	88 ed       	ldi	r24, 0xD8	; 216
    101c:	84 bf       	out	0x34, r24	; 52
    101e:	10 92 61 00 	sts	0x0061, r1	; 0x800061 <__RODATA_PM_OFFSET__+0x7f8061>
    1022:	80 91 63 00 	lds	r24, 0x0063	; 0x800063 <__RODATA_PM_OFFSET__+0x7f8063>
    1026:	84 ff       	sbrs	r24, 4
    1028:	fc cf       	rjmp	.-8      	; 0x1022 <main+0x8>
    102a:	8a e1       	ldi	r24, 0x1A	; 26
    102c:	80 93 00 04 	sts	0x0400, r24	; 0x800400 <__RODATA_PM_OFFSET__+0x7f8400>
    1030:	83 e3       	ldi	r24, 0x33	; 51
    1032:	80 93 20 04 	sts	0x0420, r24	; 0x800420 <__RODATA_PM_OFFSET__+0x7f8420>
    1036:	10 92 40 04 	sts	0x0440, r1	; 0x800440 <__RODATA_PM_OFFSET__+0x7f8440>
    103a:	88 e8       	ldi	r24, 0x88	; 136
    103c:	80 93 50 04 	sts	0x0450, r24	; 0x800450 <__RODATA_PM_OFFSET__+0x7f8450>
    1040:	80 93 51 04 	sts	0x0451, r24	; 0x800451 <__RODATA_PM_OFFSET__+0x7f8451>
    1044:	80 93 52 04 	sts	0x0452, r24	; 0x800452 <__RODATA_PM_OFFSET__+0x7f8452>
    1048:	80 93 53 04 	sts	0x0453, r24	; 0x800453 <__RODATA_PM_OFFSET__+0x7f8453>
    104c:	99 e8       	ldi	r25, 0x89	; 137
    104e:	90 93 15 04 	sts	0x0415, r25	; 0x800415 <__RODATA_PM_OFFSET__+0x7f8415>
    1052:	80 93 16 04 	sts	0x0416, r24	; 0x800416 <__RODATA_PM_OFFSET__+0x7f8416>
    1056:	80 93 17 04 	sts	0x0417, r24	; 0x800417 <__RODATA_PM_OFFSET__+0x7f8417>
    105a:	81 e3       	ldi	r24, 0x31	; 49
    105c:	80 93 20 08 	sts	0x0820, r24	; 0x800820 <__RODATA_PM_OFFSET__+0x7f8820>
    1060:	80 e0       	ldi	r24, 0x00	; 0
    1062:	90 e0       	ldi	r25, 0x00	; 0
    1064:	0e 94 0e 05 	call	0xa1c	; 0xa1c <displayInit>
    1068:	80 e8       	ldi	r24, 0x80	; 128
    106a:	80 93 21 08 	sts	0x0821, r24	; 0x800821 <__RODATA_PM_OFFSET__+0x7f8821>
    106e:	81 e0       	ldi	r24, 0x01	; 1
    1070:	80 93 45 0a 	sts	0x0A45, r24	; 0x800a45 <__RODATA_PM_OFFSET__+0x7f8a45>
    1074:	20 e1       	ldi	r18, 0x10	; 16
    1076:	37 e2       	ldi	r19, 0x27	; 39
    1078:	20 93 4c 0a 	sts	0x0A4C, r18	; 0x800a4c <__RODATA_PM_OFFSET__+0x7f8a4c>
    107c:	30 93 4d 0a 	sts	0x0A4D, r19	; 0x800a4d <__RODATA_PM_OFFSET__+0x7f8a4d>
    1080:	93 e0       	ldi	r25, 0x03	; 3
    1082:	90 93 40 0a 	sts	0x0A40, r25	; 0x800a40 <__RODATA_PM_OFFSET__+0x7f8a40>
    1086:	91 e4       	ldi	r25, 0x41	; 65
    1088:	90 93 01 0a 	sts	0x0A01, r25	; 0x800a01 <__RODATA_PM_OFFSET__+0x7f8a01>
    108c:	10 92 28 0a 	sts	0x0A28, r1	; 0x800a28 <__RODATA_PM_OFFSET__+0x7f8a28>
    1090:	10 92 29 0a 	sts	0x0A29, r1	; 0x800a29 <__RODATA_PM_OFFSET__+0x7f8a29>
    1094:	98 e0       	ldi	r25, 0x08	; 8
    1096:	90 93 00 0a 	sts	0x0A00, r25	; 0x800a00 <__RODATA_PM_OFFSET__+0x7f8a00>
    109a:	94 e0       	ldi	r25, 0x04	; 4
    109c:	90 93 02 02 	sts	0x0202, r25	; 0x800202 <__RODATA_PM_OFFSET__+0x7f8202>
    10a0:	98 ed       	ldi	r25, 0xD8	; 216
    10a2:	94 bf       	out	0x34, r25	; 52
    10a4:	80 93 7c 00 	sts	0x007C, r24	; 0x80007c <__RODATA_PM_OFFSET__+0x7f807c>
    10a8:	80 91 41 01 	lds	r24, 0x0141	; 0x800141 <__RODATA_PM_OFFSET__+0x7f8141>
    10ac:	81 11       	cpse	r24, r1
    10ae:	fc cf       	rjmp	.-8      	; 0x10a8 <main+0x8e>
    10b0:	80 e8       	ldi	r24, 0x80	; 128
    10b2:	80 93 40 01 	sts	0x0140, r24	; 0x800140 <__RODATA_PM_OFFSET__+0x7f8140>
    10b6:	82 e0       	ldi	r24, 0x02	; 2
    10b8:	80 93 47 01 	sts	0x0147, r24	; 0x800147 <__RODATA_PM_OFFSET__+0x7f8147>
    10bc:	80 91 51 01 	lds	r24, 0x0151	; 0x800151 <__RODATA_PM_OFFSET__+0x7f8151>
    10c0:	81 11       	cpse	r24, r1
    10c2:	fc cf       	rjmp	.-8      	; 0x10bc <main+0xa2>
    10c4:	81 e7       	ldi	r24, 0x71	; 113
    10c6:	80 93 50 01 	sts	0x0150, r24	; 0x800150 <__RODATA_PM_OFFSET__+0x7f8150>
    10ca:	81 e0       	ldi	r24, 0x01	; 1
    10cc:	80 93 52 01 	sts	0x0152, r24	; 0x800152 <__RODATA_PM_OFFSET__+0x7f8152>
    10d0:	85 e0       	ldi	r24, 0x05	; 5
    10d2:	80 93 50 00 	sts	0x0050, r24	; 0x800050 <__RODATA_PM_OFFSET__+0x7f8050>
    10d6:	78 94       	sei
    10d8:	0e 94 01 07 	call	0xe02	; 0xe02 <gameSetup>
    10dc:	0e 94 dc 06 	call	0xdb8	; 0xdb8 <systemLoop>
    10e0:	80 e0       	ldi	r24, 0x00	; 0
    10e2:	90 e0       	ldi	r25, 0x00	; 0
    10e4:	08 95       	ret

000010e6 <memset>:
    10e6:	dc 01       	movw	r26, r24
    10e8:	01 c0       	rjmp	.+2      	; 0x10ec <memset+0x6>
    10ea:	6d 93       	st	X+, r22
    10ec:	41 50       	subi	r20, 0x01	; 1
    10ee:	50 40       	sbci	r21, 0x00	; 0
    10f0:	e0 f7       	brcc	.-8      	; 0x10ea <memset+0x4>
    10f2:	08 95       	ret

000010f4 <_exit>:
    10f4:	f8 94       	cli

000010f6 <__stop_program>:
    10f6:	ff cf       	rjmp	.-2      	; 0x10f6 <__stop_program>
