
gameBadge ARM.elf:     file format elf32-littlearm

Sections:
Idx Name          Size      VMA       LMA       File off  Algn
  0 .text         00003e44  00000000  00000000  00010000  2**2
                  CONTENTS, ALLOC, LOAD, READONLY, CODE
  1 .relocate     0000002c  20000000  00003e44  00020000  2**2
                  CONTENTS, ALLOC, LOAD, DATA
  2 .bss          0000081c  20000030  00003e80  00020030  2**4
                  ALLOC
  3 .stack        00000104  2000084c  0000469c  00020030  2**0
                  ALLOC
  4 .ARM.attributes 00000028  00000000  00000000  0002002c  2**0
                  CONTENTS, READONLY
  5 .comment      00000059  00000000  00000000  00020054  2**0
                  CONTENTS, READONLY
  6 .debug_frame  00000094  00000000  00000000  000200b0  2**2
                  CONTENTS, READONLY, DEBUGGING

Disassembly of section .text:

00000000 <exception_table>:
       0:	50 09 00 20 f1 00 00 00 ed 00 00 00 ed 00 00 00     P.. ............
	...
      2c:	ed 00 00 00 00 00 00 00 00 00 00 00 ed 00 00 00     ................
      3c:	89 2a 00 00 ed 00 00 00 ed 00 00 00 ed 00 00 00     .*..............
      4c:	ed 00 00 00 ed 00 00 00 ed 00 00 00 69 03 00 00     ............i...
      5c:	ed 00 00 00 ed 00 00 00 ed 00 00 00 ed 00 00 00     ................
      6c:	00 00 00 00 ed 00 00 00 ed 00 00 00 ed 00 00 00     ................
      7c:	ed 00 00 00 ed 00 00 00 ed 00 00 00 ed 00 00 00     ................

0000008c <__do_global_dtors_aux>:
      8c:	b510      	push	{r4, lr}
      8e:	4c06      	ldr	r4, [pc, #24]	; (a8 <__do_global_dtors_aux+0x1c>)
      90:	7823      	ldrb	r3, [r4, #0]
      92:	2b00      	cmp	r3, #0
      94:	d107      	bne.n	a6 <__do_global_dtors_aux+0x1a>
      96:	4b05      	ldr	r3, [pc, #20]	; (ac <__do_global_dtors_aux+0x20>)
      98:	2b00      	cmp	r3, #0
      9a:	d002      	beq.n	a2 <__do_global_dtors_aux+0x16>
      9c:	4804      	ldr	r0, [pc, #16]	; (b0 <__do_global_dtors_aux+0x24>)
      9e:	e000      	b.n	a2 <__do_global_dtors_aux+0x16>
      a0:	bf00      	nop
      a2:	2301      	movs	r3, #1
      a4:	7023      	strb	r3, [r4, #0]
      a6:	bd10      	pop	{r4, pc}
      a8:	20000030 	.word	0x20000030
      ac:	00000000 	.word	0x00000000
      b0:	00003e44 	.word	0x00003e44

000000b4 <frame_dummy>:
      b4:	4b08      	ldr	r3, [pc, #32]	; (d8 <frame_dummy+0x24>)
      b6:	b510      	push	{r4, lr}
      b8:	2b00      	cmp	r3, #0
      ba:	d003      	beq.n	c4 <frame_dummy+0x10>
      bc:	4907      	ldr	r1, [pc, #28]	; (dc <frame_dummy+0x28>)
      be:	4808      	ldr	r0, [pc, #32]	; (e0 <frame_dummy+0x2c>)
      c0:	e000      	b.n	c4 <frame_dummy+0x10>
      c2:	bf00      	nop
      c4:	4807      	ldr	r0, [pc, #28]	; (e4 <frame_dummy+0x30>)
      c6:	6803      	ldr	r3, [r0, #0]
      c8:	2b00      	cmp	r3, #0
      ca:	d100      	bne.n	ce <frame_dummy+0x1a>
      cc:	bd10      	pop	{r4, pc}
      ce:	4b06      	ldr	r3, [pc, #24]	; (e8 <frame_dummy+0x34>)
      d0:	2b00      	cmp	r3, #0
      d2:	d0fb      	beq.n	cc <frame_dummy+0x18>
      d4:	4798      	blx	r3
      d6:	e7f9      	b.n	cc <frame_dummy+0x18>
      d8:	00000000 	.word	0x00000000
      dc:	20000034 	.word	0x20000034
      e0:	00003e44 	.word	0x00003e44
      e4:	00003e44 	.word	0x00003e44
      e8:	00000000 	.word	0x00000000

000000ec <Dummy_Handler>:
      ec:	e7fe      	b.n	ec <Dummy_Handler>
	...

000000f0 <Reset_Handler>:
      f0:	4821      	ldr	r0, [pc, #132]	; (178 <STACK_SIZE+0x78>)
      f2:	4922      	ldr	r1, [pc, #136]	; (17c <STACK_SIZE+0x7c>)
      f4:	b570      	push	{r4, r5, r6, lr}
      f6:	4288      	cmp	r0, r1
      f8:	d004      	beq.n	104 <STACK_SIZE+0x4>
      fa:	2300      	movs	r3, #0
      fc:	4c20      	ldr	r4, [pc, #128]	; (180 <STACK_SIZE+0x80>)
      fe:	18ca      	adds	r2, r1, r3
     100:	42a2      	cmp	r2, r4
     102:	d332      	bcc.n	16a <STACK_SIZE+0x6a>
     104:	2100      	movs	r1, #0
     106:	4b1f      	ldr	r3, [pc, #124]	; (184 <STACK_SIZE+0x84>)
     108:	4a1f      	ldr	r2, [pc, #124]	; (188 <STACK_SIZE+0x88>)
     10a:	4293      	cmp	r3, r2
     10c:	d331      	bcc.n	172 <STACK_SIZE+0x72>
     10e:	21ff      	movs	r1, #255	; 0xff
     110:	4b1e      	ldr	r3, [pc, #120]	; (18c <STACK_SIZE+0x8c>)
     112:	4a1f      	ldr	r2, [pc, #124]	; (190 <STACK_SIZE+0x90>)
     114:	438b      	bics	r3, r1
     116:	6093      	str	r3, [r2, #8]
     118:	2202      	movs	r2, #2
     11a:	250c      	movs	r5, #12
     11c:	2408      	movs	r4, #8
     11e:	2630      	movs	r6, #48	; 0x30
     120:	4b1c      	ldr	r3, [pc, #112]	; (194 <STACK_SIZE+0x94>)
     122:	481d      	ldr	r0, [pc, #116]	; (198 <STACK_SIZE+0x98>)
     124:	625a      	str	r2, [r3, #36]	; 0x24
     126:	78c3      	ldrb	r3, [r0, #3]
     128:	39fc      	subs	r1, #252	; 0xfc
     12a:	438b      	bics	r3, r1
     12c:	4313      	orrs	r3, r2
     12e:	70c3      	strb	r3, [r0, #3]
     130:	78c3      	ldrb	r3, [r0, #3]
     132:	43ab      	bics	r3, r5
     134:	4323      	orrs	r3, r4
     136:	70c3      	strb	r3, [r0, #3]
     138:	4b18      	ldr	r3, [pc, #96]	; (19c <STACK_SIZE+0x9c>)
     13a:	7b98      	ldrb	r0, [r3, #14]
     13c:	43b0      	bics	r0, r6
     13e:	0006      	movs	r6, r0
     140:	2020      	movs	r0, #32
     142:	4330      	orrs	r0, r6
     144:	7398      	strb	r0, [r3, #14]
     146:	7b98      	ldrb	r0, [r3, #14]
     148:	43a8      	bics	r0, r5
     14a:	4304      	orrs	r4, r0
     14c:	739c      	strb	r4, [r3, #14]
     14e:	7b98      	ldrb	r0, [r3, #14]
     150:	4388      	bics	r0, r1
     152:	4302      	orrs	r2, r0
     154:	739a      	strb	r2, [r3, #14]
     156:	2380      	movs	r3, #128	; 0x80
     158:	4a11      	ldr	r2, [pc, #68]	; (1a0 <STACK_SIZE+0xa0>)
     15a:	6851      	ldr	r1, [r2, #4]
     15c:	430b      	orrs	r3, r1
     15e:	6053      	str	r3, [r2, #4]
     160:	4b10      	ldr	r3, [pc, #64]	; (1a4 <STACK_SIZE+0xa4>)
     162:	4798      	blx	r3
     164:	4b10      	ldr	r3, [pc, #64]	; (1a8 <STACK_SIZE+0xa8>)
     166:	4798      	blx	r3
     168:	e7fe      	b.n	168 <STACK_SIZE+0x68>
     16a:	58c5      	ldr	r5, [r0, r3]
     16c:	3304      	adds	r3, #4
     16e:	6015      	str	r5, [r2, #0]
     170:	e7c5      	b.n	fe <Reset_Handler+0xe>
     172:	c302      	stmia	r3!, {r1}
     174:	e7c9      	b.n	10a <STACK_SIZE+0xa>
     176:	46c0      	nop			; (mov r8, r8)
     178:	00003e44 	.word	0x00003e44
     17c:	20000000 	.word	0x20000000
     180:	2000002c 	.word	0x2000002c
     184:	20000030 	.word	0x20000030
     188:	2000084c 	.word	0x2000084c
     18c:	00000000 	.word	0x00000000
     190:	e000ed00 	.word	0xe000ed00
     194:	410070fc 	.word	0x410070fc
     198:	41005000 	.word	0x41005000
     19c:	41004800 	.word	0x41004800
     1a0:	41004000 	.word	0x41004000
     1a4:	00002d15 	.word	0x00002d15
     1a8:	00002aa5 	.word	0x00002aa5

000001ac <SystemInit>:
     1ac:	4a01      	ldr	r2, [pc, #4]	; (1b4 <SystemInit+0x8>)
     1ae:	4b02      	ldr	r3, [pc, #8]	; (1b8 <SystemInit+0xc>)
     1b0:	601a      	str	r2, [r3, #0]
     1b2:	4770      	bx	lr
     1b4:	000f4240 	.word	0x000f4240
     1b8:	20000000 	.word	0x20000000

000001bc <clocksInit48Mhz>:
     1bc:	b530      	push	{r4, r5, lr}
     1be:	4b25      	ldr	r3, [pc, #148]	; (254 <clocksInit48Mhz+0x98>)
     1c0:	4925      	ldr	r1, [pc, #148]	; (258 <clocksInit48Mhz+0x9c>)
     1c2:	6a1a      	ldr	r2, [r3, #32]
     1c4:	4825      	ldr	r0, [pc, #148]	; (25c <clocksInit48Mhz+0xa0>)
     1c6:	400a      	ands	r2, r1
     1c8:	2180      	movs	r1, #128	; 0x80
     1ca:	621a      	str	r2, [r3, #32]
     1cc:	6a1a      	ldr	r2, [r3, #32]
     1ce:	438a      	bics	r2, r1
     1d0:	621a      	str	r2, [r3, #32]
     1d2:	6842      	ldr	r2, [r0, #4]
     1d4:	3962      	subs	r1, #98	; 0x62
     1d6:	438a      	bics	r2, r1
     1d8:	0011      	movs	r1, r2
     1da:	2202      	movs	r2, #2
     1dc:	430a      	orrs	r2, r1
     1de:	6042      	str	r2, [r0, #4]
     1e0:	491f      	ldr	r1, [pc, #124]	; (260 <clocksInit48Mhz+0xa4>)
     1e2:	4a20      	ldr	r2, [pc, #128]	; (264 <clocksInit48Mhz+0xa8>)
     1e4:	6091      	str	r1, [r2, #8]
     1e6:	4920      	ldr	r1, [pc, #128]	; (268 <clocksInit48Mhz+0xac>)
     1e8:	6051      	str	r1, [r2, #4]
     1ea:	7851      	ldrb	r1, [r2, #1]
     1ec:	09c9      	lsrs	r1, r1, #7
     1ee:	d1fc      	bne.n	1ea <clocksInit48Mhz+0x2e>
     1f0:	2182      	movs	r1, #130	; 0x82
     1f2:	2080      	movs	r0, #128	; 0x80
     1f4:	01c9      	lsls	r1, r1, #7
     1f6:	8051      	strh	r1, [r2, #2]
     1f8:	8c99      	ldrh	r1, [r3, #36]	; 0x24
     1fa:	4381      	bics	r1, r0
     1fc:	8499      	strh	r1, [r3, #36]	; 0x24
     1fe:	68d9      	ldr	r1, [r3, #12]
     200:	06c9      	lsls	r1, r1, #27
     202:	d5fc      	bpl.n	1fe <clocksInit48Mhz+0x42>
     204:	2181      	movs	r1, #129	; 0x81
     206:	0089      	lsls	r1, r1, #2
     208:	8499      	strh	r1, [r3, #36]	; 0x24
     20a:	68d9      	ldr	r1, [r3, #12]
     20c:	06c9      	lsls	r1, r1, #27
     20e:	d5fc      	bpl.n	20a <clocksInit48Mhz+0x4e>
     210:	4916      	ldr	r1, [pc, #88]	; (26c <clocksInit48Mhz+0xb0>)
     212:	6808      	ldr	r0, [r1, #0]
     214:	4916      	ldr	r1, [pc, #88]	; (270 <clocksInit48Mhz+0xb4>)
     216:	0e85      	lsrs	r5, r0, #26
     218:	6809      	ldr	r1, [r1, #0]
     21a:	02ad      	lsls	r5, r5, #10
     21c:	058c      	lsls	r4, r1, #22
     21e:	0da4      	lsrs	r4, r4, #22
     220:	432c      	orrs	r4, r5
     222:	0589      	lsls	r1, r1, #22
     224:	629c      	str	r4, [r3, #40]	; 0x28
     226:	0dc9      	lsrs	r1, r1, #23
     228:	4c12      	ldr	r4, [pc, #72]	; (274 <clocksInit48Mhz+0xb8>)
     22a:	0409      	lsls	r1, r1, #16
     22c:	0ec0      	lsrs	r0, r0, #27
     22e:	4321      	orrs	r1, r4
     230:	0680      	lsls	r0, r0, #26
     232:	4308      	orrs	r0, r1
     234:	2102      	movs	r1, #2
     236:	62d8      	str	r0, [r3, #44]	; 0x2c
     238:	8c98      	ldrh	r0, [r3, #36]	; 0x24
     23a:	4301      	orrs	r1, r0
     23c:	8499      	strh	r1, [r3, #36]	; 0x24
     23e:	68d9      	ldr	r1, [r3, #12]
     240:	0649      	lsls	r1, r1, #25
     242:	d5fc      	bpl.n	23e <clocksInit48Mhz+0x82>
     244:	2300      	movs	r3, #0
     246:	6093      	str	r3, [r2, #8]
     248:	4b0b      	ldr	r3, [pc, #44]	; (278 <clocksInit48Mhz+0xbc>)
     24a:	6053      	str	r3, [r2, #4]
     24c:	7853      	ldrb	r3, [r2, #1]
     24e:	09db      	lsrs	r3, r3, #7
     250:	d1fc      	bne.n	24c <clocksInit48Mhz+0x90>
     252:	bd30      	pop	{r4, r5, pc}
     254:	40000800 	.word	0x40000800
     258:	fffffcff 	.word	0xfffffcff
     25c:	41004000 	.word	0x41004000
     260:	0000fa01 	.word	0x0000fa01
     264:	40000c00 	.word	0x40000c00
     268:	00030601 	.word	0x00030601
     26c:	00806024 	.word	0x00806024
     270:	00806028 	.word	0x00806028
     274:	000005dc 	.word	0x000005dc
     278:	00030700 	.word	0x00030700

0000027c <dma_init>:
     27c:	2220      	movs	r2, #32
     27e:	b5f8      	push	{r3, r4, r5, r6, r7, lr}
     280:	4b17      	ldr	r3, [pc, #92]	; (2e0 <dma_init+0x64>)
     282:	4c18      	ldr	r4, [pc, #96]	; (2e4 <dma_init+0x68>)
     284:	6959      	ldr	r1, [r3, #20]
     286:	2500      	movs	r5, #0
     288:	430a      	orrs	r2, r1
     28a:	615a      	str	r2, [r3, #20]
     28c:	2210      	movs	r2, #16
     28e:	69d9      	ldr	r1, [r3, #28]
     290:	2702      	movs	r7, #2
     292:	4311      	orrs	r1, r2
     294:	61d9      	str	r1, [r3, #28]
     296:	4b14      	ldr	r3, [pc, #80]	; (2e8 <dma_init+0x6c>)
     298:	4914      	ldr	r1, [pc, #80]	; (2ec <dma_init+0x70>)
     29a:	635c      	str	r4, [r3, #52]	; 0x34
     29c:	6399      	str	r1, [r3, #56]	; 0x38
     29e:	4914      	ldr	r1, [pc, #80]	; (2f0 <dma_init+0x74>)
     2a0:	8019      	strh	r1, [r3, #0]
     2a2:	0019      	movs	r1, r3
     2a4:	313f      	adds	r1, #63	; 0x3f
     2a6:	700d      	strb	r5, [r1, #0]
     2a8:	784e      	ldrb	r6, [r1, #1]
     2aa:	43be      	bics	r6, r7
     2ac:	704e      	strb	r6, [r1, #1]
     2ae:	2601      	movs	r6, #1
     2b0:	704e      	strb	r6, [r1, #1]
     2b2:	6919      	ldr	r1, [r3, #16]
     2b4:	43b1      	bics	r1, r6
     2b6:	6119      	str	r1, [r3, #16]
     2b8:	490e      	ldr	r1, [pc, #56]	; (2f4 <dma_init+0x78>)
     2ba:	6459      	str	r1, [r3, #68]	; 0x44
     2bc:	4b0e      	ldr	r3, [pc, #56]	; (2f8 <dma_init+0x7c>)
     2be:	490f      	ldr	r1, [pc, #60]	; (2fc <dma_init+0x80>)
     2c0:	681b      	ldr	r3, [r3, #0]
     2c2:	60cd      	str	r5, [r1, #12]
     2c4:	3328      	adds	r3, #40	; 0x28
     2c6:	608b      	str	r3, [r1, #8]
     2c8:	4b0d      	ldr	r3, [pc, #52]	; (300 <dma_init+0x84>)
     2ca:	804b      	strh	r3, [r1, #2]
     2cc:	4b0d      	ldr	r3, [pc, #52]	; (304 <dma_init+0x88>)
     2ce:	800b      	strh	r3, [r1, #0]
     2d0:	3b01      	subs	r3, #1
     2d2:	18c0      	adds	r0, r0, r3
     2d4:	6048      	str	r0, [r1, #4]
     2d6:	4b0c      	ldr	r3, [pc, #48]	; (308 <dma_init+0x8c>)
     2d8:	0020      	movs	r0, r4
     2da:	4798      	blx	r3
     2dc:	bdf8      	pop	{r3, r4, r5, r6, r7, pc}
     2de:	46c0      	nop			; (mov r8, r8)
     2e0:	40000400 	.word	0x40000400
     2e4:	200000a0 	.word	0x200000a0
     2e8:	41004800 	.word	0x41004800
     2ec:	20000110 	.word	0x20000110
     2f0:	00000f02 	.word	0x00000f02
     2f4:	00800200 	.word	0x00800200
     2f8:	20000004 	.word	0x20000004
     2fc:	20000090 	.word	0x20000090
     300:	000003fe 	.word	0x000003fe
     304:	00000401 	.word	0x00000401
     308:	00002d5d 	.word	0x00002d5d

0000030c <dmaStartTransfer>:
     30c:	4b05      	ldr	r3, [pc, #20]	; (324 <dmaStartTransfer+0x18>)
     30e:	2100      	movs	r1, #0
     310:	001a      	movs	r2, r3
     312:	323f      	adds	r2, #63	; 0x3f
     314:	7011      	strb	r1, [r2, #0]
     316:	2202      	movs	r2, #2
     318:	3340      	adds	r3, #64	; 0x40
     31a:	7819      	ldrb	r1, [r3, #0]
     31c:	430a      	orrs	r2, r1
     31e:	701a      	strb	r2, [r3, #0]
     320:	4770      	bx	lr
     322:	46c0      	nop			; (mov r8, r8)
     324:	41004800 	.word	0x41004800

00000328 <screenLoad>:
     328:	2204      	movs	r2, #4
     32a:	b570      	push	{r4, r5, r6, lr}
     32c:	4b08      	ldr	r3, [pc, #32]	; (350 <screenLoad+0x28>)
     32e:	4d09      	ldr	r5, [pc, #36]	; (354 <screenLoad+0x2c>)
     330:	615a      	str	r2, [r3, #20]
     332:	619a      	str	r2, [r3, #24]
     334:	7828      	ldrb	r0, [r5, #0]
     336:	4c08      	ldr	r4, [pc, #32]	; (358 <screenLoad+0x30>)
     338:	47a0      	blx	r4
     33a:	4b08      	ldr	r3, [pc, #32]	; (35c <screenLoad+0x34>)
     33c:	7018      	strb	r0, [r3, #0]
     33e:	7868      	ldrb	r0, [r5, #1]
     340:	47a0      	blx	r4
     342:	4b07      	ldr	r3, [pc, #28]	; (360 <screenLoad+0x38>)
     344:	4798      	blx	r3
     346:	2201      	movs	r2, #1
     348:	4b06      	ldr	r3, [pc, #24]	; (364 <screenLoad+0x3c>)
     34a:	701a      	strb	r2, [r3, #0]
     34c:	bd70      	pop	{r4, r5, r6, pc}
     34e:	46c0      	nop			; (mov r8, r8)
     350:	41004400 	.word	0x41004400
     354:	200001e2 	.word	0x200001e2
     358:	000008e5 	.word	0x000008e5
     35c:	200005e4 	.word	0x200005e4
     360:	0000030d 	.word	0x0000030d
     364:	2000004c 	.word	0x2000004c

00000368 <DMAC_Handler>:
     368:	2302      	movs	r3, #2
     36a:	4a06      	ldr	r2, [pc, #24]	; (384 <DMAC_Handler+0x1c>)
     36c:	7811      	ldrb	r1, [r2, #0]
     36e:	430b      	orrs	r3, r1
     370:	7013      	strb	r3, [r2, #0]
     372:	4a05      	ldr	r2, [pc, #20]	; (388 <DMAC_Handler+0x20>)
     374:	7e13      	ldrb	r3, [r2, #24]
     376:	079b      	lsls	r3, r3, #30
     378:	d5fc      	bpl.n	374 <DMAC_Handler+0xc>
     37a:	2200      	movs	r2, #0
     37c:	4b03      	ldr	r3, [pc, #12]	; (38c <DMAC_Handler+0x24>)
     37e:	701a      	strb	r2, [r3, #0]
     380:	4770      	bx	lr
     382:	46c0      	nop			; (mov r8, r8)
     384:	4100484e 	.word	0x4100484e
     388:	42000800 	.word	0x42000800
     38c:	2000004c 	.word	0x2000004c

00000390 <rowLoad>:
     390:	000b      	movs	r3, r1
     392:	b5f7      	push	{r0, r1, r2, r4, r5, r6, r7, lr}
     394:	0006      	movs	r6, r0
     396:	000c      	movs	r4, r1
     398:	3310      	adds	r3, #16
     39a:	9201      	str	r2, [sp, #4]
     39c:	9300      	str	r3, [sp, #0]
     39e:	7823      	ldrb	r3, [r4, #0]
     3a0:	00db      	lsls	r3, r3, #3
     3a2:	001f      	movs	r7, r3
     3a4:	3708      	adds	r7, #8
     3a6:	5cf0      	ldrb	r0, [r6, r3]
     3a8:	1c5d      	adds	r5, r3, #1
     3aa:	9b01      	ldr	r3, [sp, #4]
     3ac:	b2ad      	uxth	r5, r5
     3ae:	4018      	ands	r0, r3
     3b0:	4b04      	ldr	r3, [pc, #16]	; (3c4 <rowLoad+0x34>)
     3b2:	4798      	blx	r3
     3b4:	002b      	movs	r3, r5
     3b6:	42bd      	cmp	r5, r7
     3b8:	d1f5      	bne.n	3a6 <rowLoad+0x16>
     3ba:	9b00      	ldr	r3, [sp, #0]
     3bc:	3401      	adds	r4, #1
     3be:	42a3      	cmp	r3, r4
     3c0:	d1ed      	bne.n	39e <rowLoad+0xe>
     3c2:	bdf7      	pop	{r0, r1, r2, r4, r5, r6, r7, pc}
     3c4:	000008e5 	.word	0x000008e5

000003c8 <getButtons>:
     3c8:	4b01      	ldr	r3, [pc, #4]	; (3d0 <getButtons+0x8>)
     3ca:	7818      	ldrb	r0, [r3, #0]
     3cc:	4770      	bx	lr
     3ce:	46c0      	nop			; (mov r8, r8)
     3d0:	200005e4 	.word	0x200005e4

000003d4 <toneLogic>:
     3d4:	4a0d      	ldr	r2, [pc, #52]	; (40c <toneLogic+0x38>)
     3d6:	b510      	push	{r4, lr}
     3d8:	6853      	ldr	r3, [r2, #4]
     3da:	2b00      	cmp	r3, #0
     3dc:	d006      	beq.n	3ec <toneLogic+0x18>
     3de:	490c      	ldr	r1, [pc, #48]	; (410 <toneLogic+0x3c>)
     3e0:	6c88      	ldr	r0, [r1, #72]	; 0x48
     3e2:	18c0      	adds	r0, r0, r3
     3e4:	6488      	str	r0, [r1, #72]	; 0x48
     3e6:	6c08      	ldr	r0, [r1, #64]	; 0x40
     3e8:	181b      	adds	r3, r3, r0
     3ea:	640b      	str	r3, [r1, #64]	; 0x40
     3ec:	8913      	ldrh	r3, [r2, #8]
     3ee:	2b00      	cmp	r3, #0
     3f0:	d00a      	beq.n	408 <toneLogic+0x34>
     3f2:	3b01      	subs	r3, #1
     3f4:	b29b      	uxth	r3, r3
     3f6:	8113      	strh	r3, [r2, #8]
     3f8:	2b00      	cmp	r3, #0
     3fa:	d105      	bne.n	408 <toneLogic+0x34>
     3fc:	2402      	movs	r4, #2
     3fe:	4804      	ldr	r0, [pc, #16]	; (410 <toneLogic+0x3c>)
     400:	6801      	ldr	r1, [r0, #0]
     402:	43a1      	bics	r1, r4
     404:	6001      	str	r1, [r0, #0]
     406:	7293      	strb	r3, [r2, #10]
     408:	bd10      	pop	{r4, pc}
     40a:	46c0      	nop			; (mov r8, r8)
     40c:	2000004c 	.word	0x2000004c
     410:	42001400 	.word	0x42001400

00000414 <tone>:
     414:	b530      	push	{r4, r5, lr}
     416:	4c08      	ldr	r4, [pc, #32]	; (438 <tone+0x24>)
     418:	7aa5      	ldrb	r5, [r4, #10]
     41a:	4295      	cmp	r5, r2
     41c:	d80b      	bhi.n	436 <tone+0x22>
     41e:	72a2      	strb	r2, [r4, #10]
     420:	2202      	movs	r2, #2
     422:	6063      	str	r3, [r4, #4]
     424:	4b05      	ldr	r3, [pc, #20]	; (43c <tone+0x28>)
     426:	6498      	str	r0, [r3, #72]	; 0x48
     428:	0040      	lsls	r0, r0, #1
     42a:	b280      	uxth	r0, r0
     42c:	6418      	str	r0, [r3, #64]	; 0x40
     42e:	6818      	ldr	r0, [r3, #0]
     430:	4302      	orrs	r2, r0
     432:	601a      	str	r2, [r3, #0]
     434:	8121      	strh	r1, [r4, #8]
     436:	bd30      	pop	{r4, r5, pc}
     438:	2000004c 	.word	0x2000004c
     43c:	42001400 	.word	0x42001400

00000440 <ledState>:
     440:	4770      	bx	lr
	...

00000444 <getRandom>:
     444:	2280      	movs	r2, #128	; 0x80
     446:	b530      	push	{r4, r5, lr}
     448:	490c      	ldr	r1, [pc, #48]	; (47c <getRandom+0x38>)
     44a:	4c0d      	ldr	r4, [pc, #52]	; (480 <getRandom+0x3c>)
     44c:	4b0d      	ldr	r3, [pc, #52]	; (484 <getRandom+0x40>)
     44e:	0052      	lsls	r2, r2, #1
     450:	619a      	str	r2, [r3, #24]
     452:	600c      	str	r4, [r1, #0]
     454:	2102      	movs	r1, #2
     456:	4c0c      	ldr	r4, [pc, #48]	; (488 <getRandom+0x44>)
     458:	7825      	ldrb	r5, [r4, #0]
     45a:	4329      	orrs	r1, r5
     45c:	7021      	strb	r1, [r4, #0]
     45e:	4c0b      	ldr	r4, [pc, #44]	; (48c <getRandom+0x48>)
     460:	7e21      	ldrb	r1, [r4, #24]
     462:	07c9      	lsls	r1, r1, #31
     464:	d5fc      	bpl.n	460 <getRandom+0x1c>
     466:	615a      	str	r2, [r3, #20]
     468:	4909      	ldr	r1, [pc, #36]	; (490 <getRandom+0x4c>)
     46a:	4b0a      	ldr	r3, [pc, #40]	; (494 <getRandom+0x50>)
     46c:	880a      	ldrh	r2, [r1, #0]
     46e:	881b      	ldrh	r3, [r3, #0]
     470:	1c54      	adds	r4, r2, #1
     472:	189b      	adds	r3, r3, r2
     474:	4018      	ands	r0, r3
     476:	800c      	strh	r4, [r1, #0]
     478:	bd30      	pop	{r4, r5, pc}
     47a:	46c0      	nop			; (mov r8, r8)
     47c:	42002010 	.word	0x42002010
     480:	00001918 	.word	0x00001918
     484:	41004400 	.word	0x41004400
     488:	4200200c 	.word	0x4200200c
     48c:	42002000 	.word	0x42002000
     490:	200005e2 	.word	0x200005e2
     494:	4200201a 	.word	0x4200201a

00000498 <drawTiles>:
     498:	b5f0      	push	{r4, r5, r6, r7, lr}
     49a:	4b49      	ldr	r3, [pc, #292]	; (5c0 <drawTiles+0x128>)
     49c:	b089      	sub	sp, #36	; 0x24
     49e:	7ada      	ldrb	r2, [r3, #11]
     4a0:	9001      	str	r0, [sp, #4]
     4a2:	468c      	mov	ip, r1
     4a4:	2a00      	cmp	r2, #0
     4a6:	d058      	beq.n	55a <drawTiles+0xc2>
     4a8:	7b1a      	ldrb	r2, [r3, #12]
     4aa:	2500      	movs	r5, #0
     4ac:	9202      	str	r2, [sp, #8]
     4ae:	2208      	movs	r2, #8
     4b0:	9902      	ldr	r1, [sp, #8]
     4b2:	1a52      	subs	r2, r2, r1
     4b4:	7b59      	ldrb	r1, [r3, #13]
     4b6:	b2d2      	uxtb	r2, r2
     4b8:	0109      	lsls	r1, r1, #4
     4ba:	9203      	str	r2, [sp, #12]
     4bc:	b2c9      	uxtb	r1, r1
     4be:	4b41      	ldr	r3, [pc, #260]	; (5c4 <drawTiles+0x12c>)
     4c0:	b2ae      	uxth	r6, r5
     4c2:	5d58      	ldrb	r0, [r3, r5]
     4c4:	000b      	movs	r3, r1
     4c6:	4463      	add	r3, ip
     4c8:	781a      	ldrb	r2, [r3, #0]
     4ca:	01f4      	lsls	r4, r6, #7
     4cc:	00d2      	lsls	r2, r2, #3
     4ce:	1882      	adds	r2, r0, r2
     4d0:	b2a4      	uxth	r4, r4
     4d2:	9300      	str	r3, [sp, #0]
     4d4:	b2d2      	uxtb	r2, r2
     4d6:	29f0      	cmp	r1, #240	; 0xf0
     4d8:	d114      	bne.n	504 <drawTiles+0x6c>
     4da:	4663      	mov	r3, ip
     4dc:	781b      	ldrb	r3, [r3, #0]
     4de:	3601      	adds	r6, #1
     4e0:	01f6      	lsls	r6, r6, #7
     4e2:	b2b6      	uxth	r6, r6
     4e4:	9605      	str	r6, [sp, #20]
     4e6:	000e      	movs	r6, r1
     4e8:	00db      	lsls	r3, r3, #3
     4ea:	4466      	add	r6, ip
     4ec:	181b      	adds	r3, r3, r0
     4ee:	9607      	str	r6, [sp, #28]
     4f0:	9e05      	ldr	r6, [sp, #20]
     4f2:	42b4      	cmp	r4, r6
     4f4:	d109      	bne.n	50a <drawTiles+0x72>
     4f6:	3110      	adds	r1, #16
     4f8:	3501      	adds	r5, #1
     4fa:	b2c9      	uxtb	r1, r1
     4fc:	2d08      	cmp	r5, #8
     4fe:	d1de      	bne.n	4be <drawTiles+0x26>
     500:	b009      	add	sp, #36	; 0x24
     502:	bdf0      	pop	{r4, r5, r6, r7, pc}
     504:	9b00      	ldr	r3, [sp, #0]
     506:	7c1b      	ldrb	r3, [r3, #16]
     508:	e7e9      	b.n	4de <drawTiles+0x46>
     50a:	1c66      	adds	r6, r4, #1
     50c:	b2b6      	uxth	r6, r6
     50e:	9604      	str	r6, [sp, #16]
     510:	9e01      	ldr	r6, [sp, #4]
     512:	9f02      	ldr	r7, [sp, #8]
     514:	5cb6      	ldrb	r6, [r6, r2]
     516:	3001      	adds	r0, #1
     518:	413e      	asrs	r6, r7
     51a:	9f01      	ldr	r7, [sp, #4]
     51c:	9606      	str	r6, [sp, #24]
     51e:	5cff      	ldrb	r7, [r7, r3]
     520:	9e03      	ldr	r6, [sp, #12]
     522:	b2c0      	uxtb	r0, r0
     524:	40b7      	lsls	r7, r6
     526:	9e06      	ldr	r6, [sp, #24]
     528:	433e      	orrs	r6, r7
     52a:	4f27      	ldr	r7, [pc, #156]	; (5c8 <drawTiles+0x130>)
     52c:	553e      	strb	r6, [r7, r4]
     52e:	2808      	cmp	r0, #8
     530:	d005      	beq.n	53e <drawTiles+0xa6>
     532:	3201      	adds	r2, #1
     534:	3301      	adds	r3, #1
     536:	b2d2      	uxtb	r2, r2
     538:	b29b      	uxth	r3, r3
     53a:	9c04      	ldr	r4, [sp, #16]
     53c:	e7d8      	b.n	4f0 <drawTiles+0x58>
     53e:	9b00      	ldr	r3, [sp, #0]
     540:	781a      	ldrb	r2, [r3, #0]
     542:	00d2      	lsls	r2, r2, #3
     544:	b2d2      	uxtb	r2, r2
     546:	29f0      	cmp	r1, #240	; 0xf0
     548:	d104      	bne.n	554 <drawTiles+0xbc>
     54a:	4663      	mov	r3, ip
     54c:	781b      	ldrb	r3, [r3, #0]
     54e:	00db      	lsls	r3, r3, #3
     550:	2000      	movs	r0, #0
     552:	e7f2      	b.n	53a <drawTiles+0xa2>
     554:	9b07      	ldr	r3, [sp, #28]
     556:	7c1b      	ldrb	r3, [r3, #16]
     558:	e7f9      	b.n	54e <drawTiles+0xb6>
     55a:	0014      	movs	r4, r2
     55c:	4b19      	ldr	r3, [pc, #100]	; (5c4 <drawTiles+0x12c>)
     55e:	0016      	movs	r6, r2
     560:	5d18      	ldrb	r0, [r3, r4]
     562:	4b1a      	ldr	r3, [pc, #104]	; (5cc <drawTiles+0x134>)
     564:	0165      	lsls	r5, r4, #5
     566:	5d19      	ldrb	r1, [r3, r4]
     568:	4663      	mov	r3, ip
     56a:	b2ed      	uxtb	r5, r5
     56c:	185b      	adds	r3, r3, r1
     56e:	5d5b      	ldrb	r3, [r3, r5]
     570:	3680      	adds	r6, #128	; 0x80
     572:	00db      	lsls	r3, r3, #3
     574:	b2b6      	uxth	r6, r6
     576:	181b      	adds	r3, r3, r0
     578:	9602      	str	r6, [sp, #8]
     57a:	9e02      	ldr	r6, [sp, #8]
     57c:	42b2      	cmp	r2, r6
     57e:	d103      	bne.n	588 <drawTiles+0xf0>
     580:	3401      	adds	r4, #1
     582:	2c08      	cmp	r4, #8
     584:	d1ea      	bne.n	55c <drawTiles+0xc4>
     586:	e7bb      	b.n	500 <drawTiles+0x68>
     588:	1c57      	adds	r7, r2, #1
     58a:	b2be      	uxth	r6, r7
     58c:	9600      	str	r6, [sp, #0]
     58e:	9e01      	ldr	r6, [sp, #4]
     590:	3001      	adds	r0, #1
     592:	5cf6      	ldrb	r6, [r6, r3]
     594:	b2c0      	uxtb	r0, r0
     596:	0037      	movs	r7, r6
     598:	4e0b      	ldr	r6, [pc, #44]	; (5c8 <drawTiles+0x130>)
     59a:	54b7      	strb	r7, [r6, r2]
     59c:	2808      	cmp	r0, #8
     59e:	d003      	beq.n	5a8 <drawTiles+0x110>
     5a0:	3301      	adds	r3, #1
     5a2:	b29b      	uxth	r3, r3
     5a4:	9a00      	ldr	r2, [sp, #0]
     5a6:	e7e8      	b.n	57a <drawTiles+0xe2>
     5a8:	3101      	adds	r1, #1
     5aa:	b2c9      	uxtb	r1, r1
     5ac:	291f      	cmp	r1, #31
     5ae:	d900      	bls.n	5b2 <drawTiles+0x11a>
     5b0:	2100      	movs	r1, #0
     5b2:	4663      	mov	r3, ip
     5b4:	185b      	adds	r3, r3, r1
     5b6:	5d5b      	ldrb	r3, [r3, r5]
     5b8:	2000      	movs	r0, #0
     5ba:	00db      	lsls	r3, r3, #3
     5bc:	e7f2      	b.n	5a4 <drawTiles+0x10c>
     5be:	46c0      	nop			; (mov r8, r8)
     5c0:	2000004c 	.word	0x2000004c
     5c4:	200001d2 	.word	0x200001d2
     5c8:	200001e2 	.word	0x200001e2
     5cc:	200001da 	.word	0x200001da

000005d0 <setWindow>:
     5d0:	2207      	movs	r2, #7
     5d2:	2300      	movs	r3, #0
     5d4:	b5f0      	push	{r4, r5, r6, r7, lr}
     5d6:	08cc      	lsrs	r4, r1, #3
     5d8:	08c7      	lsrs	r7, r0, #3
     5da:	4011      	ands	r1, r2
     5dc:	4d06      	ldr	r5, [pc, #24]	; (5f8 <setWindow+0x28>)
     5de:	4e07      	ldr	r6, [pc, #28]	; (5fc <setWindow+0x2c>)
     5e0:	54ef      	strb	r7, [r5, r3]
     5e2:	0005      	movs	r5, r0
     5e4:	4015      	ands	r5, r2
     5e6:	54f5      	strb	r5, [r6, r3]
     5e8:	3301      	adds	r3, #1
     5ea:	2b08      	cmp	r3, #8
     5ec:	d1f6      	bne.n	5dc <setWindow+0xc>
     5ee:	4b04      	ldr	r3, [pc, #16]	; (600 <setWindow+0x30>)
     5f0:	735c      	strb	r4, [r3, #13]
     5f2:	7319      	strb	r1, [r3, #12]
     5f4:	bdf0      	pop	{r4, r5, r6, r7, pc}
     5f6:	46c0      	nop			; (mov r8, r8)
     5f8:	200001da 	.word	0x200001da
     5fc:	200001d2 	.word	0x200001d2
     600:	2000004c 	.word	0x2000004c

00000604 <setRowScroll>:
     604:	4b03      	ldr	r3, [pc, #12]	; (614 <setRowScroll+0x10>)
     606:	08c2      	lsrs	r2, r0, #3
     608:	545a      	strb	r2, [r3, r1]
     60a:	2307      	movs	r3, #7
     60c:	4018      	ands	r0, r3
     60e:	4b02      	ldr	r3, [pc, #8]	; (618 <setRowScroll+0x14>)
     610:	5458      	strb	r0, [r3, r1]
     612:	4770      	bx	lr
     614:	200001da 	.word	0x200001da
     618:	200001d2 	.word	0x200001d2

0000061c <drawSprite>:
     61c:	b5f0      	push	{r4, r5, r6, r7, lr}
     61e:	b08b      	sub	sp, #44	; 0x2c
     620:	9105      	str	r1, [sp, #20]
     622:	a910      	add	r1, sp, #64	; 0x40
     624:	7809      	ldrb	r1, [r1, #0]
     626:	1c84      	adds	r4, r0, #2
     628:	b249      	sxtb	r1, r1
     62a:	9103      	str	r1, [sp, #12]
     62c:	7801      	ldrb	r1, [r0, #0]
     62e:	2507      	movs	r5, #7
     630:	468c      	mov	ip, r1
     632:	7841      	ldrb	r1, [r0, #1]
     634:	4015      	ands	r5, r2
     636:	08c9      	lsrs	r1, r1, #3
     638:	9102      	str	r1, [sp, #8]
     63a:	4661      	mov	r1, ip
     63c:	9802      	ldr	r0, [sp, #8]
     63e:	10d2      	asrs	r2, r2, #3
     640:	4341      	muls	r1, r0
     642:	9101      	str	r1, [sp, #4]
     644:	2108      	movs	r1, #8
     646:	1b49      	subs	r1, r1, r5
     648:	b2c9      	uxtb	r1, r1
     64a:	9104      	str	r1, [sp, #16]
     64c:	9905      	ldr	r1, [sp, #20]
     64e:	01d2      	lsls	r2, r2, #7
     650:	1852      	adds	r2, r2, r1
     652:	b292      	uxth	r2, r2
     654:	9206      	str	r2, [sp, #24]
     656:	9a01      	ldr	r2, [sp, #4]
     658:	0052      	lsls	r2, r2, #1
     65a:	4353      	muls	r3, r2
     65c:	9a03      	ldr	r2, [sp, #12]
     65e:	18e3      	adds	r3, r4, r3
     660:	3201      	adds	r2, #1
     662:	d102      	bne.n	66a <drawSprite+0x4e>
     664:	4662      	mov	r2, ip
     666:	3a01      	subs	r2, #1
     668:	189b      	adds	r3, r3, r2
     66a:	002a      	movs	r2, r5
     66c:	1e51      	subs	r1, r2, #1
     66e:	418a      	sbcs	r2, r1
     670:	b2d2      	uxtb	r2, r2
     672:	9207      	str	r2, [sp, #28]
     674:	4662      	mov	r2, ip
     676:	2400      	movs	r4, #0
     678:	0052      	lsls	r2, r2, #1
     67a:	9208      	str	r2, [sp, #32]
     67c:	9906      	ldr	r1, [sp, #24]
     67e:	01e2      	lsls	r2, r4, #7
     680:	188a      	adds	r2, r1, r2
     682:	9802      	ldr	r0, [sp, #8]
     684:	9907      	ldr	r1, [sp, #28]
     686:	b212      	sxth	r2, r2
     688:	1809      	adds	r1, r1, r0
     68a:	428c      	cmp	r4, r1
     68c:	da43      	bge.n	716 <drawSprite+0xfa>
     68e:	0011      	movs	r1, r2
     690:	4461      	add	r1, ip
     692:	9e05      	ldr	r6, [sp, #20]
     694:	9109      	str	r1, [sp, #36]	; 0x24
     696:	e02d      	b.n	6f4 <drawSprite+0xd8>
     698:	21fc      	movs	r1, #252	; 0xfc
     69a:	0209      	lsls	r1, r1, #8
     69c:	420a      	tst	r2, r1
     69e:	d123      	bne.n	6e8 <drawSprite+0xcc>
     6a0:	2e00      	cmp	r6, #0
     6a2:	db21      	blt.n	6e8 <drawSprite+0xcc>
     6a4:	2d00      	cmp	r5, #0
     6a6:	d032      	beq.n	70e <drawSprite+0xf2>
     6a8:	2c00      	cmp	r4, #0
     6aa:	d02d      	beq.n	708 <drawSprite+0xec>
     6ac:	4661      	mov	r1, ip
     6ae:	4249      	negs	r1, r1
     6b0:	5c58      	ldrb	r0, [r3, r1]
     6b2:	9f04      	ldr	r7, [sp, #16]
     6b4:	4138      	asrs	r0, r7
     6b6:	9f01      	ldr	r7, [sp, #4]
     6b8:	b2c0      	uxtb	r0, r0
     6ba:	19df      	adds	r7, r3, r7
     6bc:	5c79      	ldrb	r1, [r7, r1]
     6be:	9f04      	ldr	r7, [sp, #16]
     6c0:	4139      	asrs	r1, r7
     6c2:	b2c9      	uxtb	r1, r1
     6c4:	9f02      	ldr	r7, [sp, #8]
     6c6:	42bc      	cmp	r4, r7
     6c8:	da08      	bge.n	6dc <drawSprite+0xc0>
     6ca:	781f      	ldrb	r7, [r3, #0]
     6cc:	40af      	lsls	r7, r5
     6ce:	4338      	orrs	r0, r7
     6d0:	9f01      	ldr	r7, [sp, #4]
     6d2:	b2c0      	uxtb	r0, r0
     6d4:	5ddf      	ldrb	r7, [r3, r7]
     6d6:	40af      	lsls	r7, r5
     6d8:	4339      	orrs	r1, r7
     6da:	b2c9      	uxtb	r1, r1
     6dc:	4f0f      	ldr	r7, [pc, #60]	; (71c <drawSprite+0x100>)
     6de:	5cbf      	ldrb	r7, [r7, r2]
     6e0:	4387      	bics	r7, r0
     6e2:	430f      	orrs	r7, r1
     6e4:	490d      	ldr	r1, [pc, #52]	; (71c <drawSprite+0x100>)
     6e6:	548f      	strb	r7, [r1, r2]
     6e8:	9903      	ldr	r1, [sp, #12]
     6ea:	3601      	adds	r6, #1
     6ec:	3201      	adds	r2, #1
     6ee:	185b      	adds	r3, r3, r1
     6f0:	b276      	sxtb	r6, r6
     6f2:	b212      	sxth	r2, r2
     6f4:	9909      	ldr	r1, [sp, #36]	; 0x24
     6f6:	428a      	cmp	r2, r1
     6f8:	dbce      	blt.n	698 <drawSprite+0x7c>
     6fa:	9a03      	ldr	r2, [sp, #12]
     6fc:	3201      	adds	r2, #1
     6fe:	d101      	bne.n	704 <drawSprite+0xe8>
     700:	9a08      	ldr	r2, [sp, #32]
     702:	189b      	adds	r3, r3, r2
     704:	3401      	adds	r4, #1
     706:	e7b9      	b.n	67c <drawSprite+0x60>
     708:	0021      	movs	r1, r4
     70a:	0020      	movs	r0, r4
     70c:	e7da      	b.n	6c4 <drawSprite+0xa8>
     70e:	9901      	ldr	r1, [sp, #4]
     710:	7818      	ldrb	r0, [r3, #0]
     712:	5c59      	ldrb	r1, [r3, r1]
     714:	e7e2      	b.n	6dc <drawSprite+0xc0>
     716:	b00b      	add	sp, #44	; 0x2c
     718:	bdf0      	pop	{r4, r5, r6, r7, pc}
     71a:	46c0      	nop			; (mov r8, r8)
     71c:	200001e2 	.word	0x200001e2

00000720 <setScrollDirection>:
     720:	4b01      	ldr	r3, [pc, #4]	; (728 <setScrollDirection+0x8>)
     722:	72d8      	strb	r0, [r3, #11]
     724:	4770      	bx	lr
     726:	46c0      	nop			; (mov r8, r8)
     728:	2000004c 	.word	0x2000004c

0000072c <direct2buffer>:
     72c:	b530      	push	{r4, r5, lr}
     72e:	188a      	adds	r2, r1, r2
     730:	4b05      	ldr	r3, [pc, #20]	; (748 <direct2buffer+0x1c>)
     732:	b292      	uxth	r2, r2
     734:	4291      	cmp	r1, r2
     736:	d100      	bne.n	73a <direct2buffer+0xe>
     738:	bd30      	pop	{r4, r5, pc}
     73a:	7805      	ldrb	r5, [r0, #0]
     73c:	1c4c      	adds	r4, r1, #1
     73e:	545d      	strb	r5, [r3, r1]
     740:	3001      	adds	r0, #1
     742:	b2a1      	uxth	r1, r4
     744:	e7f6      	b.n	734 <direct2buffer+0x8>
     746:	46c0      	nop			; (mov r8, r8)
     748:	200001e2 	.word	0x200001e2

0000074c <writecommand>:
     74c:	b570      	push	{r4, r5, r6, lr}
     74e:	2504      	movs	r5, #4
     750:	4c02      	ldr	r4, [pc, #8]	; (75c <writecommand+0x10>)
     752:	4b03      	ldr	r3, [pc, #12]	; (760 <writecommand+0x14>)
     754:	6165      	str	r5, [r4, #20]
     756:	4798      	blx	r3
     758:	61a5      	str	r5, [r4, #24]
     75a:	bd70      	pop	{r4, r5, r6, pc}
     75c:	41004400 	.word	0x41004400
     760:	000008e5 	.word	0x000008e5

00000764 <setRotate>:
     764:	b570      	push	{r4, r5, r6, lr}
     766:	4c0b      	ldr	r4, [pc, #44]	; (794 <setRotate+0x30>)
     768:	28ff      	cmp	r0, #255	; 0xff
     76a:	d10d      	bne.n	788 <setRotate+0x24>
     76c:	7ba3      	ldrb	r3, [r4, #14]
     76e:	425a      	negs	r2, r3
     770:	4153      	adcs	r3, r2
     772:	73a3      	strb	r3, [r4, #14]
     774:	7ba3      	ldrb	r3, [r4, #14]
     776:	4d08      	ldr	r5, [pc, #32]	; (798 <setRotate+0x34>)
     778:	2b00      	cmp	r3, #0
     77a:	d007      	beq.n	78c <setRotate+0x28>
     77c:	20a0      	movs	r0, #160	; 0xa0
     77e:	47a8      	blx	r5
     780:	20c0      	movs	r0, #192	; 0xc0
     782:	47a8      	blx	r5
     784:	7ba0      	ldrb	r0, [r4, #14]
     786:	bd70      	pop	{r4, r5, r6, pc}
     788:	73a0      	strb	r0, [r4, #14]
     78a:	e7f3      	b.n	774 <setRotate+0x10>
     78c:	20a1      	movs	r0, #161	; 0xa1
     78e:	47a8      	blx	r5
     790:	20c8      	movs	r0, #200	; 0xc8
     792:	e7f6      	b.n	782 <setRotate+0x1e>
     794:	2000004c 	.word	0x2000004c
     798:	0000074d 	.word	0x0000074d

0000079c <setInvert>:
     79c:	b510      	push	{r4, lr}
     79e:	4b08      	ldr	r3, [pc, #32]	; (7c0 <setInvert+0x24>)
     7a0:	28ff      	cmp	r0, #255	; 0xff
     7a2:	d10b      	bne.n	7bc <setInvert+0x20>
     7a4:	7bda      	ldrb	r2, [r3, #15]
     7a6:	4251      	negs	r1, r2
     7a8:	414a      	adcs	r2, r1
     7aa:	73da      	strb	r2, [r3, #15]
     7ac:	7bda      	ldrb	r2, [r3, #15]
     7ae:	20a7      	movs	r0, #167	; 0xa7
     7b0:	4b04      	ldr	r3, [pc, #16]	; (7c4 <setInvert+0x28>)
     7b2:	2a00      	cmp	r2, #0
     7b4:	d100      	bne.n	7b8 <setInvert+0x1c>
     7b6:	20a6      	movs	r0, #166	; 0xa6
     7b8:	4798      	blx	r3
     7ba:	bd10      	pop	{r4, pc}
     7bc:	73d8      	strb	r0, [r3, #15]
     7be:	e7f5      	b.n	7ac <setInvert+0x10>
     7c0:	2000004c 	.word	0x2000004c
     7c4:	0000074d 	.word	0x0000074d

000007c8 <displayInit>:
     7c8:	2280      	movs	r2, #128	; 0x80
     7ca:	4b1e      	ldr	r3, [pc, #120]	; (844 <displayInit+0x7c>)
     7cc:	0092      	lsls	r2, r2, #2
     7ce:	b570      	push	{r4, r5, r6, lr}
     7d0:	20ae      	movs	r0, #174	; 0xae
     7d2:	615a      	str	r2, [r3, #20]
     7d4:	4c1c      	ldr	r4, [pc, #112]	; (848 <displayInit+0x80>)
     7d6:	619a      	str	r2, [r3, #24]
     7d8:	47a0      	blx	r4
     7da:	20d5      	movs	r0, #213	; 0xd5
     7dc:	47a0      	blx	r4
     7de:	2080      	movs	r0, #128	; 0x80
     7e0:	47a0      	blx	r4
     7e2:	20a8      	movs	r0, #168	; 0xa8
     7e4:	47a0      	blx	r4
     7e6:	203f      	movs	r0, #63	; 0x3f
     7e8:	47a0      	blx	r4
     7ea:	20d3      	movs	r0, #211	; 0xd3
     7ec:	47a0      	blx	r4
     7ee:	2000      	movs	r0, #0
     7f0:	47a0      	blx	r4
     7f2:	2040      	movs	r0, #64	; 0x40
     7f4:	47a0      	blx	r4
     7f6:	208d      	movs	r0, #141	; 0x8d
     7f8:	47a0      	blx	r4
     7fa:	2014      	movs	r0, #20
     7fc:	47a0      	blx	r4
     7fe:	2020      	movs	r0, #32
     800:	47a0      	blx	r4
     802:	2000      	movs	r0, #0
     804:	47a0      	blx	r4
     806:	4d11      	ldr	r5, [pc, #68]	; (84c <displayInit+0x84>)
     808:	4b11      	ldr	r3, [pc, #68]	; (850 <displayInit+0x88>)
     80a:	7ba8      	ldrb	r0, [r5, #14]
     80c:	4798      	blx	r3
     80e:	20da      	movs	r0, #218	; 0xda
     810:	47a0      	blx	r4
     812:	2012      	movs	r0, #18
     814:	47a0      	blx	r4
     816:	2081      	movs	r0, #129	; 0x81
     818:	47a0      	blx	r4
     81a:	208f      	movs	r0, #143	; 0x8f
     81c:	47a0      	blx	r4
     81e:	20d9      	movs	r0, #217	; 0xd9
     820:	47a0      	blx	r4
     822:	20f1      	movs	r0, #241	; 0xf1
     824:	47a0      	blx	r4
     826:	20db      	movs	r0, #219	; 0xdb
     828:	47a0      	blx	r4
     82a:	2040      	movs	r0, #64	; 0x40
     82c:	47a0      	blx	r4
     82e:	20a4      	movs	r0, #164	; 0xa4
     830:	47a0      	blx	r4
     832:	7be8      	ldrb	r0, [r5, #15]
     834:	4b07      	ldr	r3, [pc, #28]	; (854 <displayInit+0x8c>)
     836:	4798      	blx	r3
     838:	20af      	movs	r0, #175	; 0xaf
     83a:	47a0      	blx	r4
     83c:	4806      	ldr	r0, [pc, #24]	; (858 <displayInit+0x90>)
     83e:	4b07      	ldr	r3, [pc, #28]	; (85c <displayInit+0x94>)
     840:	4798      	blx	r3
     842:	bd70      	pop	{r4, r5, r6, pc}
     844:	41004400 	.word	0x41004400
     848:	0000074d 	.word	0x0000074d
     84c:	2000004c 	.word	0x2000004c
     850:	00000765 	.word	0x00000765
     854:	0000079d 	.word	0x0000079d
     858:	200001e2 	.word	0x200001e2
     85c:	0000027d 	.word	0x0000027d

00000860 <displayOnOff>:
     860:	b510      	push	{r4, lr}
     862:	4c06      	ldr	r4, [pc, #24]	; (87c <displayOnOff+0x1c>)
     864:	2800      	cmp	r0, #0
     866:	d004      	beq.n	872 <displayOnOff+0x12>
     868:	4b05      	ldr	r3, [pc, #20]	; (880 <displayOnOff+0x20>)
     86a:	4798      	blx	r3
     86c:	2300      	movs	r3, #0
     86e:	7423      	strb	r3, [r4, #16]
     870:	bd10      	pop	{r4, pc}
     872:	4b04      	ldr	r3, [pc, #16]	; (884 <displayOnOff+0x24>)
     874:	20ae      	movs	r0, #174	; 0xae
     876:	4798      	blx	r3
     878:	2301      	movs	r3, #1
     87a:	e7f8      	b.n	86e <displayOnOff+0xe>
     87c:	2000004c 	.word	0x2000004c
     880:	000007c9 	.word	0x000007c9
     884:	0000074d 	.word	0x0000074d

00000888 <csHigh>:
     888:	4770      	bx	lr

0000088a <csLow>:
     88a:	4770      	bx	lr

0000088c <SPI_init>:
     88c:	2304      	movs	r3, #4
     88e:	4a0e      	ldr	r2, [pc, #56]	; (8c8 <SPI_init+0x3c>)
     890:	6a11      	ldr	r1, [r2, #32]
     892:	430b      	orrs	r3, r1
     894:	6213      	str	r3, [r2, #32]
     896:	4b0d      	ldr	r3, [pc, #52]	; (8cc <SPI_init+0x40>)
     898:	4a0d      	ldr	r2, [pc, #52]	; (8d0 <SPI_init+0x44>)
     89a:	805a      	strh	r2, [r3, #2]
     89c:	785a      	ldrb	r2, [r3, #1]
     89e:	09d2      	lsrs	r2, r2, #7
     8a0:	d1fc      	bne.n	89c <SPI_init+0x10>
     8a2:	4b0c      	ldr	r3, [pc, #48]	; (8d4 <SPI_init+0x48>)
     8a4:	4a0c      	ldr	r2, [pc, #48]	; (8d8 <SPI_init+0x4c>)
     8a6:	490d      	ldr	r1, [pc, #52]	; (8dc <SPI_init+0x50>)
     8a8:	601a      	str	r2, [r3, #0]
     8aa:	2280      	movs	r2, #128	; 0x80
     8ac:	0292      	lsls	r2, r2, #10
     8ae:	605a      	str	r2, [r3, #4]
     8b0:	2201      	movs	r2, #1
     8b2:	731a      	strb	r2, [r3, #12]
     8b4:	4a0a      	ldr	r2, [pc, #40]	; (8e0 <SPI_init+0x54>)
     8b6:	6291      	str	r1, [r2, #40]	; 0x28
     8b8:	2202      	movs	r2, #2
     8ba:	6819      	ldr	r1, [r3, #0]
     8bc:	430a      	orrs	r2, r1
     8be:	601a      	str	r2, [r3, #0]
     8c0:	69da      	ldr	r2, [r3, #28]
     8c2:	0792      	lsls	r2, r2, #30
     8c4:	d4fc      	bmi.n	8c0 <SPI_init+0x34>
     8c6:	4770      	bx	lr
     8c8:	40000400 	.word	0x40000400
     8cc:	40000c00 	.word	0x40000c00
     8d0:	0000400e 	.word	0x0000400e
     8d4:	42000800 	.word	0x42000800
     8d8:	0020000c 	.word	0x0020000c
     8dc:	5201c010 	.word	0x5201c010
     8e0:	41004400 	.word	0x41004400

000008e4 <spiSendIO>:
     8e4:	4b05      	ldr	r3, [pc, #20]	; (8fc <spiSendIO+0x18>)
     8e6:	001a      	movs	r2, r3
     8e8:	7e19      	ldrb	r1, [r3, #24]
     8ea:	07c9      	lsls	r1, r1, #31
     8ec:	d5fc      	bpl.n	8e8 <spiSendIO+0x4>
     8ee:	6298      	str	r0, [r3, #40]	; 0x28
     8f0:	7e13      	ldrb	r3, [r2, #24]
     8f2:	079b      	lsls	r3, r3, #30
     8f4:	d5fc      	bpl.n	8f0 <spiSendIO+0xc>
     8f6:	6a90      	ldr	r0, [r2, #40]	; 0x28
     8f8:	b2c0      	uxtb	r0, r0
     8fa:	4770      	bx	lr
     8fc:	42000800 	.word	0x42000800

00000900 <checkHitPlayer>:
     900:	4b08      	ldr	r3, [pc, #32]	; (924 <checkHitPlayer+0x24>)
     902:	781b      	ldrb	r3, [r3, #0]
     904:	2b00      	cmp	r3, #0
     906:	d00c      	beq.n	922 <checkHitPlayer+0x22>
     908:	4b07      	ldr	r3, [pc, #28]	; (928 <checkHitPlayer+0x28>)
     90a:	781b      	ldrb	r3, [r3, #0]
     90c:	2b00      	cmp	r3, #0
     90e:	d008      	beq.n	922 <checkHitPlayer+0x22>
     910:	4b06      	ldr	r3, [pc, #24]	; (92c <checkHitPlayer+0x2c>)
     912:	781b      	ldrb	r3, [r3, #0]
     914:	075b      	lsls	r3, r3, #29
     916:	d004      	beq.n	922 <checkHitPlayer+0x22>
     918:	0103      	lsls	r3, r0, #4
     91a:	4805      	ldr	r0, [pc, #20]	; (930 <checkHitPlayer+0x30>)
     91c:	18c0      	adds	r0, r0, r3
     91e:	2380      	movs	r3, #128	; 0x80
     920:	7183      	strb	r3, [r0, #6]
     922:	4770      	bx	lr
     924:	20000847 	.word	0x20000847
     928:	20000727 	.word	0x20000727
     92c:	20000060 	.word	0x20000060
     930:	20000740 	.word	0x20000740

00000934 <checkObstacle>:
     934:	4b07      	ldr	r3, [pc, #28]	; (954 <checkObstacle+0x20>)
     936:	781b      	ldrb	r3, [r3, #0]
     938:	2b00      	cmp	r3, #0
     93a:	d009      	beq.n	950 <checkObstacle+0x1c>
     93c:	4b06      	ldr	r3, [pc, #24]	; (958 <checkObstacle+0x24>)
     93e:	781b      	ldrb	r3, [r3, #0]
     940:	075b      	lsls	r3, r3, #29
     942:	d005      	beq.n	950 <checkObstacle+0x1c>
     944:	4b05      	ldr	r3, [pc, #20]	; (95c <checkObstacle+0x28>)
     946:	781b      	ldrb	r3, [r3, #0]
     948:	428b      	cmp	r3, r1
     94a:	d801      	bhi.n	950 <checkObstacle+0x1c>
     94c:	4b04      	ldr	r3, [pc, #16]	; (960 <checkObstacle+0x2c>)
     94e:	801a      	strh	r2, [r3, #0]
     950:	4770      	bx	lr
     952:	46c0      	nop			; (mov r8, r8)
     954:	20000847 	.word	0x20000847
     958:	20000060 	.word	0x20000060
     95c:	20000008 	.word	0x20000008
     960:	20000700 	.word	0x20000700

00000964 <setGoal>:
     964:	2200      	movs	r2, #0
     966:	4b04      	ldr	r3, [pc, #16]	; (978 <setGoal+0x14>)
     968:	701a      	strb	r2, [r3, #0]
     96a:	4b04      	ldr	r3, [pc, #16]	; (97c <setGoal+0x18>)
     96c:	3201      	adds	r2, #1
     96e:	7018      	strb	r0, [r3, #0]
     970:	4b03      	ldr	r3, [pc, #12]	; (980 <setGoal+0x1c>)
     972:	701a      	strb	r2, [r3, #0]
     974:	4770      	bx	lr
     976:	46c0      	nop			; (mov r8, r8)
     978:	20000702 	.word	0x20000702
     97c:	20000846 	.word	0x20000846
     980:	20000842 	.word	0x20000842

00000984 <spawnBoss>:
     984:	b510      	push	{r4, lr}
     986:	4c0f      	ldr	r4, [pc, #60]	; (9c4 <spawnBoss+0x40>)
     988:	490f      	ldr	r1, [pc, #60]	; (9c8 <spawnBoss+0x44>)
     98a:	7860      	ldrb	r0, [r4, #1]
     98c:	4b0f      	ldr	r3, [pc, #60]	; (9cc <spawnBoss+0x48>)
     98e:	0102      	lsls	r2, r0, #4
     990:	5053      	str	r3, [r2, r1]
     992:	188b      	adds	r3, r1, r2
     994:	4a0e      	ldr	r2, [pc, #56]	; (9d0 <spawnBoss+0x4c>)
     996:	21a0      	movs	r1, #160	; 0xa0
     998:	7812      	ldrb	r2, [r2, #0]
     99a:	3001      	adds	r0, #1
     99c:	81da      	strh	r2, [r3, #14]
     99e:	225f      	movs	r2, #95	; 0x5f
     9a0:	809a      	strh	r2, [r3, #4]
     9a2:	3299      	adds	r2, #153	; 0x99
     9a4:	719a      	strb	r2, [r3, #6]
     9a6:	3af7      	subs	r2, #247	; 0xf7
     9a8:	729a      	strb	r2, [r3, #10]
     9aa:	2200      	movs	r2, #0
     9ac:	71d9      	strb	r1, [r3, #7]
     9ae:	725a      	strb	r2, [r3, #9]
     9b0:	72da      	strb	r2, [r3, #11]
     9b2:	735a      	strb	r2, [r3, #13]
     9b4:	b2c3      	uxtb	r3, r0
     9b6:	2b10      	cmp	r3, #16
     9b8:	d001      	beq.n	9be <spawnBoss+0x3a>
     9ba:	7063      	strb	r3, [r4, #1]
     9bc:	bd10      	pop	{r4, pc}
     9be:	7062      	strb	r2, [r4, #1]
     9c0:	e7fc      	b.n	9bc <spawnBoss+0x38>
     9c2:	46c0      	nop			; (mov r8, r8)
     9c4:	20000060 	.word	0x20000060
     9c8:	20000740 	.word	0x20000740
     9cc:	00002d80 	.word	0x00002d80
     9d0:	20000724 	.word	0x20000724

000009d4 <findNextSlot>:
     9d4:	b5f0      	push	{r4, r5, r6, r7, lr}
     9d6:	2010      	movs	r0, #16
     9d8:	2500      	movs	r5, #0
     9da:	2701      	movs	r7, #1
     9dc:	490e      	ldr	r1, [pc, #56]	; (a18 <findNextSlot+0x44>)
     9de:	4a0f      	ldr	r2, [pc, #60]	; (a1c <findNextSlot+0x48>)
     9e0:	784b      	ldrb	r3, [r1, #1]
     9e2:	011c      	lsls	r4, r3, #4
     9e4:	1916      	adds	r6, r2, r4
     9e6:	79b6      	ldrb	r6, [r6, #6]
     9e8:	b276      	sxtb	r6, r6
     9ea:	3680      	adds	r6, #128	; 0x80
     9ec:	d107      	bne.n	9fe <findNextSlot+0x2a>
     9ee:	2d00      	cmp	r5, #0
     9f0:	d000      	beq.n	9f4 <findNextSlot+0x20>
     9f2:	704b      	strb	r3, [r1, #1]
     9f4:	2300      	movs	r3, #0
     9f6:	1912      	adds	r2, r2, r4
     9f8:	72d3      	strb	r3, [r2, #11]
     9fa:	2001      	movs	r0, #1
     9fc:	e00a      	b.n	a14 <findNextSlot+0x40>
     9fe:	3301      	adds	r3, #1
     a00:	b2db      	uxtb	r3, r3
     a02:	2b10      	cmp	r3, #16
     a04:	d100      	bne.n	a08 <findNextSlot+0x34>
     a06:	2300      	movs	r3, #0
     a08:	3801      	subs	r0, #1
     a0a:	b2c0      	uxtb	r0, r0
     a0c:	003d      	movs	r5, r7
     a0e:	2800      	cmp	r0, #0
     a10:	d1e7      	bne.n	9e2 <findNextSlot+0xe>
     a12:	704b      	strb	r3, [r1, #1]
     a14:	bdf0      	pop	{r4, r5, r6, r7, pc}
     a16:	46c0      	nop			; (mov r8, r8)
     a18:	20000060 	.word	0x20000060
     a1c:	20000740 	.word	0x20000740

00000a20 <spawnObstacle>:
     a20:	b570      	push	{r4, r5, r6, lr}
     a22:	000c      	movs	r4, r1
     a24:	4b1b      	ldr	r3, [pc, #108]	; (a94 <spawnObstacle+0x74>)
     a26:	0005      	movs	r5, r0
     a28:	4798      	blx	r3
     a2a:	1e60      	subs	r0, r4, #1
     a2c:	4b1a      	ldr	r3, [pc, #104]	; (a98 <spawnObstacle+0x78>)
     a2e:	4a1b      	ldr	r2, [pc, #108]	; (a9c <spawnObstacle+0x7c>)
     a30:	2807      	cmp	r0, #7
     a32:	d80a      	bhi.n	a4a <spawnObstacle+0x2a>
     a34:	f002 f8ce 	bl	2bd4 <__gnu_thumb1_case_uqi>
     a38:	10090b04 	.word	0x10090b04
     a3c:	26090909 	.word	0x26090909
     a40:	7851      	ldrb	r1, [r2, #1]
     a42:	4817      	ldr	r0, [pc, #92]	; (aa0 <spawnObstacle+0x80>)
     a44:	0109      	lsls	r1, r1, #4
     a46:	3002      	adds	r0, #2
     a48:	5058      	str	r0, [r3, r1]
     a4a:	2030      	movs	r0, #48	; 0x30
     a4c:	e00a      	b.n	a64 <spawnObstacle+0x44>
     a4e:	7851      	ldrb	r1, [r2, #1]
     a50:	4813      	ldr	r0, [pc, #76]	; (aa0 <spawnObstacle+0x80>)
     a52:	0109      	lsls	r1, r1, #4
     a54:	3024      	adds	r0, #36	; 0x24
     a56:	e7f7      	b.n	a48 <spawnObstacle+0x28>
     a58:	7851      	ldrb	r1, [r2, #1]
     a5a:	4811      	ldr	r0, [pc, #68]	; (aa0 <spawnObstacle+0x80>)
     a5c:	0109      	lsls	r1, r1, #4
     a5e:	3066      	adds	r0, #102	; 0x66
     a60:	5058      	str	r0, [r3, r1]
     a62:	2038      	movs	r0, #56	; 0x38
     a64:	7851      	ldrb	r1, [r2, #1]
     a66:	010e      	lsls	r6, r1, #4
     a68:	199b      	adds	r3, r3, r6
     a6a:	7198      	strb	r0, [r3, #6]
     a6c:	2001      	movs	r0, #1
     a6e:	1809      	adds	r1, r1, r0
     a70:	b2c9      	uxtb	r1, r1
     a72:	809d      	strh	r5, [r3, #4]
     a74:	71dc      	strb	r4, [r3, #7]
     a76:	7358      	strb	r0, [r3, #13]
     a78:	2910      	cmp	r1, #16
     a7a:	d008      	beq.n	a8e <spawnObstacle+0x6e>
     a7c:	7051      	strb	r1, [r2, #1]
     a7e:	4b09      	ldr	r3, [pc, #36]	; (aa4 <spawnObstacle+0x84>)
     a80:	701c      	strb	r4, [r3, #0]
     a82:	bd70      	pop	{r4, r5, r6, pc}
     a84:	7851      	ldrb	r1, [r2, #1]
     a86:	4808      	ldr	r0, [pc, #32]	; (aa8 <spawnObstacle+0x88>)
     a88:	0109      	lsls	r1, r1, #4
     a8a:	3008      	adds	r0, #8
     a8c:	e7e8      	b.n	a60 <spawnObstacle+0x40>
     a8e:	2300      	movs	r3, #0
     a90:	7053      	strb	r3, [r2, #1]
     a92:	e7f4      	b.n	a7e <spawnObstacle+0x5e>
     a94:	000009d5 	.word	0x000009d5
     a98:	20000740 	.word	0x20000740
     a9c:	20000060 	.word	0x20000060
     aa0:	00002e00 	.word	0x00002e00
     aa4:	20000840 	.word	0x20000840
     aa8:	00002e80 	.word	0x00002e80

00000aac <spawnShot>:
     aac:	b570      	push	{r4, r5, r6, lr}
     aae:	4b13      	ldr	r3, [pc, #76]	; (afc <spawnShot+0x50>)
     ab0:	000d      	movs	r5, r1
     ab2:	0006      	movs	r6, r0
     ab4:	0014      	movs	r4, r2
     ab6:	4798      	blx	r3
     ab8:	4b11      	ldr	r3, [pc, #68]	; (b00 <spawnShot+0x54>)
     aba:	4912      	ldr	r1, [pc, #72]	; (b04 <spawnShot+0x58>)
     abc:	2c80      	cmp	r4, #128	; 0x80
     abe:	d00f      	beq.n	ae0 <spawnShot+0x34>
     ac0:	2c90      	cmp	r4, #144	; 0x90
     ac2:	d013      	beq.n	aec <spawnShot+0x40>
     ac4:	784a      	ldrb	r2, [r1, #1]
     ac6:	0110      	lsls	r0, r2, #4
     ac8:	181b      	adds	r3, r3, r0
     aca:	2000      	movs	r0, #0
     acc:	3201      	adds	r2, #1
     ace:	b2d2      	uxtb	r2, r2
     ad0:	809e      	strh	r6, [r3, #4]
     ad2:	719d      	strb	r5, [r3, #6]
     ad4:	71dc      	strb	r4, [r3, #7]
     ad6:	7358      	strb	r0, [r3, #13]
     ad8:	2a10      	cmp	r2, #16
     ada:	d00c      	beq.n	af6 <spawnShot+0x4a>
     adc:	704a      	strb	r2, [r1, #1]
     ade:	bd70      	pop	{r4, r5, r6, pc}
     ae0:	784a      	ldrb	r2, [r1, #1]
     ae2:	4809      	ldr	r0, [pc, #36]	; (b08 <spawnShot+0x5c>)
     ae4:	0112      	lsls	r2, r2, #4
     ae6:	303a      	adds	r0, #58	; 0x3a
     ae8:	5098      	str	r0, [r3, r2]
     aea:	e7eb      	b.n	ac4 <spawnShot+0x18>
     aec:	784a      	ldrb	r2, [r1, #1]
     aee:	4806      	ldr	r0, [pc, #24]	; (b08 <spawnShot+0x5c>)
     af0:	0112      	lsls	r2, r2, #4
     af2:	304c      	adds	r0, #76	; 0x4c
     af4:	e7f8      	b.n	ae8 <spawnShot+0x3c>
     af6:	7048      	strb	r0, [r1, #1]
     af8:	e7f1      	b.n	ade <spawnShot+0x32>
     afa:	46c0      	nop			; (mov r8, r8)
     afc:	000009d5 	.word	0x000009d5
     b00:	20000740 	.word	0x20000740
     b04:	20000060 	.word	0x20000060
     b08:	00002e80 	.word	0x00002e80

00000b0c <spawnEnemy>:
     b0c:	b5f7      	push	{r0, r1, r2, r4, r5, r6, r7, lr}
     b0e:	001e      	movs	r6, r3
     b10:	4b1d      	ldr	r3, [pc, #116]	; (b88 <spawnEnemy+0x7c>)
     b12:	0007      	movs	r7, r0
     b14:	9100      	str	r1, [sp, #0]
     b16:	9201      	str	r2, [sp, #4]
     b18:	4798      	blx	r3
     b1a:	2800      	cmp	r0, #0
     b1c:	d022      	beq.n	b64 <spawnEnemy+0x58>
     b1e:	4c1b      	ldr	r4, [pc, #108]	; (b8c <spawnEnemy+0x80>)
     b20:	4b1b      	ldr	r3, [pc, #108]	; (b90 <spawnEnemy+0x84>)
     b22:	2e20      	cmp	r6, #32
     b24:	d01f      	beq.n	b66 <spawnEnemy+0x5a>
     b26:	2e40      	cmp	r6, #64	; 0x40
     b28:	d021      	beq.n	b6e <spawnEnemy+0x62>
     b2a:	2e10      	cmp	r6, #16
     b2c:	d104      	bne.n	b38 <spawnEnemy+0x2c>
     b2e:	785b      	ldrb	r3, [r3, #1]
     b30:	4a18      	ldr	r2, [pc, #96]	; (b94 <spawnEnemy+0x88>)
     b32:	011b      	lsls	r3, r3, #4
     b34:	325e      	adds	r2, #94	; 0x5e
     b36:	50e2      	str	r2, [r4, r3]
     b38:	4a15      	ldr	r2, [pc, #84]	; (b90 <spawnEnemy+0x84>)
     b3a:	7853      	ldrb	r3, [r2, #1]
     b3c:	0119      	lsls	r1, r3, #4
     b3e:	1864      	adds	r4, r4, r1
     b40:	2114      	movs	r1, #20
     b42:	81e1      	strh	r1, [r4, #14]
     b44:	4669      	mov	r1, sp
     b46:	7809      	ldrb	r1, [r1, #0]
     b48:	3301      	adds	r3, #1
     b4a:	71a1      	strb	r1, [r4, #6]
     b4c:	4669      	mov	r1, sp
     b4e:	7909      	ldrb	r1, [r1, #4]
     b50:	b2db      	uxtb	r3, r3
     b52:	7261      	strb	r1, [r4, #9]
     b54:	2100      	movs	r1, #0
     b56:	80a7      	strh	r7, [r4, #4]
     b58:	71e6      	strb	r6, [r4, #7]
     b5a:	7361      	strb	r1, [r4, #13]
     b5c:	2b10      	cmp	r3, #16
     b5e:	d011      	beq.n	b84 <spawnEnemy+0x78>
     b60:	7053      	strb	r3, [r2, #1]
     b62:	2001      	movs	r0, #1
     b64:	bdfe      	pop	{r1, r2, r3, r4, r5, r6, r7, pc}
     b66:	785b      	ldrb	r3, [r3, #1]
     b68:	4a0b      	ldr	r2, [pc, #44]	; (b98 <spawnEnemy+0x8c>)
     b6a:	011b      	lsls	r3, r3, #4
     b6c:	e7e3      	b.n	b36 <spawnEnemy+0x2a>
     b6e:	785d      	ldrb	r5, [r3, #1]
     b70:	4b09      	ldr	r3, [pc, #36]	; (b98 <spawnEnemy+0x8c>)
     b72:	012d      	lsls	r5, r5, #4
     b74:	3342      	adds	r3, #66	; 0x42
     b76:	5163      	str	r3, [r4, r5]
     b78:	20ff      	movs	r0, #255	; 0xff
     b7a:	4b08      	ldr	r3, [pc, #32]	; (b9c <spawnEnemy+0x90>)
     b7c:	4798      	blx	r3
     b7e:	1965      	adds	r5, r4, r5
     b80:	72a8      	strb	r0, [r5, #10]
     b82:	e7d9      	b.n	b38 <spawnEnemy+0x2c>
     b84:	7051      	strb	r1, [r2, #1]
     b86:	e7ec      	b.n	b62 <spawnEnemy+0x56>
     b88:	000009d5 	.word	0x000009d5
     b8c:	20000740 	.word	0x20000740
     b90:	20000060 	.word	0x20000060
     b94:	00002e80 	.word	0x00002e80
     b98:	00002f00 	.word	0x00002f00
     b9c:	00000445 	.word	0x00000445

00000ba0 <spawnExplosion>:
     ba0:	b5f8      	push	{r3, r4, r5, r6, r7, lr}
     ba2:	000d      	movs	r5, r1
     ba4:	0014      	movs	r4, r2
     ba6:	4b0f      	ldr	r3, [pc, #60]	; (be4 <spawnExplosion+0x44>)
     ba8:	0006      	movs	r6, r0
     baa:	4798      	blx	r3
     bac:	490e      	ldr	r1, [pc, #56]	; (be8 <spawnExplosion+0x48>)
     bae:	480f      	ldr	r0, [pc, #60]	; (bec <spawnExplosion+0x4c>)
     bb0:	784a      	ldrb	r2, [r1, #1]
     bb2:	4b0f      	ldr	r3, [pc, #60]	; (bf0 <spawnExplosion+0x50>)
     bb4:	0117      	lsls	r7, r2, #4
     bb6:	3064      	adds	r0, #100	; 0x64
     bb8:	50f8      	str	r0, [r7, r3]
     bba:	19db      	adds	r3, r3, r7
     bbc:	719d      	strb	r5, [r3, #6]
     bbe:	2501      	movs	r5, #1
     bc0:	81dc      	strh	r4, [r3, #14]
     bc2:	2000      	movs	r0, #0
     bc4:	729c      	strb	r4, [r3, #10]
     bc6:	2430      	movs	r4, #48	; 0x30
     bc8:	1952      	adds	r2, r2, r5
     bca:	b2d2      	uxtb	r2, r2
     bcc:	809e      	strh	r6, [r3, #4]
     bce:	72d8      	strb	r0, [r3, #11]
     bd0:	725d      	strb	r5, [r3, #9]
     bd2:	71dc      	strb	r4, [r3, #7]
     bd4:	735d      	strb	r5, [r3, #13]
     bd6:	2a10      	cmp	r2, #16
     bd8:	d001      	beq.n	bde <spawnExplosion+0x3e>
     bda:	704a      	strb	r2, [r1, #1]
     bdc:	bdf8      	pop	{r3, r4, r5, r6, r7, pc}
     bde:	7048      	strb	r0, [r1, #1]
     be0:	e7fc      	b.n	bdc <spawnExplosion+0x3c>
     be2:	46c0      	nop			; (mov r8, r8)
     be4:	000009d5 	.word	0x000009d5
     be8:	20000060 	.word	0x20000060
     bec:	00002f00 	.word	0x00002f00
     bf0:	20000740 	.word	0x20000740

00000bf4 <shotLogic>:
     bf4:	b5f7      	push	{r0, r1, r2, r4, r5, r6, r7, lr}
     bf6:	2680      	movs	r6, #128	; 0x80
     bf8:	2501      	movs	r5, #1
     bfa:	4c0e      	ldr	r4, [pc, #56]	; (c34 <shotLogic+0x40>)
     bfc:	4276      	negs	r6, r6
     bfe:	6822      	ldr	r2, [r4, #0]
     c00:	0013      	movs	r3, r2
     c02:	3380      	adds	r3, #128	; 0x80
     c04:	d00f      	beq.n	c26 <shotLogic+0x32>
     c06:	2100      	movs	r1, #0
     c08:	480b      	ldr	r0, [pc, #44]	; (c38 <shotLogic+0x44>)
     c0a:	1f23      	subs	r3, r4, #4
     c0c:	5659      	ldrsb	r1, [r3, r1]
     c0e:	b252      	sxtb	r2, r2
     c10:	2300      	movs	r3, #0
     c12:	9500      	str	r5, [sp, #0]
     c14:	3026      	adds	r0, #38	; 0x26
     c16:	4f09      	ldr	r7, [pc, #36]	; (c3c <shotLogic+0x48>)
     c18:	47b8      	blx	r7
     c1a:	6823      	ldr	r3, [r4, #0]
     c1c:	3b01      	subs	r3, #1
     c1e:	001a      	movs	r2, r3
     c20:	3208      	adds	r2, #8
     c22:	d005      	beq.n	c30 <shotLogic+0x3c>
     c24:	6023      	str	r3, [r4, #0]
     c26:	4b06      	ldr	r3, [pc, #24]	; (c40 <shotLogic+0x4c>)
     c28:	3408      	adds	r4, #8
     c2a:	429c      	cmp	r4, r3
     c2c:	d1e7      	bne.n	bfe <shotLogic+0xa>
     c2e:	bdf7      	pop	{r0, r1, r2, r4, r5, r6, r7, pc}
     c30:	6026      	str	r6, [r4, #0]
     c32:	e7f8      	b.n	c26 <shotLogic+0x32>
     c34:	200005f0 	.word	0x200005f0
     c38:	00003000 	.word	0x00003000
     c3c:	0000061d 	.word	0x0000061d
     c40:	20000600 	.word	0x20000600

00000c44 <clearShots>:
     c44:	2280      	movs	r2, #128	; 0x80
     c46:	4b02      	ldr	r3, [pc, #8]	; (c50 <clearShots+0xc>)
     c48:	4252      	negs	r2, r2
     c4a:	605a      	str	r2, [r3, #4]
     c4c:	60da      	str	r2, [r3, #12]
     c4e:	4770      	bx	lr
     c50:	200005ec 	.word	0x200005ec

00000c54 <clearEnemies>:
     c54:	b510      	push	{r4, lr}
     c56:	2001      	movs	r0, #1
     c58:	2480      	movs	r4, #128	; 0x80
     c5a:	2200      	movs	r2, #0
     c5c:	4b06      	ldr	r3, [pc, #24]	; (c78 <clearEnemies+0x24>)
     c5e:	4907      	ldr	r1, [pc, #28]	; (c7c <clearEnemies+0x28>)
     c60:	701c      	strb	r4, [r3, #0]
     c62:	7098      	strb	r0, [r3, #2]
     c64:	71da      	strb	r2, [r3, #7]
     c66:	3310      	adds	r3, #16
     c68:	428b      	cmp	r3, r1
     c6a:	d1f9      	bne.n	c60 <clearEnemies+0xc>
     c6c:	4b04      	ldr	r3, [pc, #16]	; (c80 <clearEnemies+0x2c>)
     c6e:	705a      	strb	r2, [r3, #1]
     c70:	4b04      	ldr	r3, [pc, #16]	; (c84 <clearEnemies+0x30>)
     c72:	701a      	strb	r2, [r3, #0]
     c74:	bd10      	pop	{r4, pc}
     c76:	46c0      	nop			; (mov r8, r8)
     c78:	20000746 	.word	0x20000746
     c7c:	20000846 	.word	0x20000846
     c80:	20000060 	.word	0x20000060
     c84:	20000840 	.word	0x20000840

00000c88 <startNewLife>:
     c88:	b570      	push	{r4, r5, r6, lr}
     c8a:	2400      	movs	r4, #0
     c8c:	2207      	movs	r2, #7
     c8e:	4b0e      	ldr	r3, [pc, #56]	; (cc8 <startNewLife+0x40>)
     c90:	2601      	movs	r6, #1
     c92:	701c      	strb	r4, [r3, #0]
     c94:	4b0d      	ldr	r3, [pc, #52]	; (ccc <startNewLife+0x44>)
     c96:	4d0e      	ldr	r5, [pc, #56]	; (cd0 <startNewLife+0x48>)
     c98:	705a      	strb	r2, [r3, #1]
     c9a:	32ed      	adds	r2, #237	; 0xed
     c9c:	709a      	strb	r2, [r3, #2]
     c9e:	3ae4      	subs	r2, #228	; 0xe4
     ca0:	70da      	strb	r2, [r3, #3]
     ca2:	3223      	adds	r2, #35	; 0x23
     ca4:	701a      	strb	r2, [r3, #0]
     ca6:	4a0b      	ldr	r2, [pc, #44]	; (cd4 <startNewLife+0x4c>)
     ca8:	702e      	strb	r6, [r5, #0]
     caa:	7014      	strb	r4, [r2, #0]
     cac:	2280      	movs	r2, #128	; 0x80
     cae:	711a      	strb	r2, [r3, #4]
     cb0:	4b09      	ldr	r3, [pc, #36]	; (cd8 <startNewLife+0x50>)
     cb2:	806c      	strh	r4, [r5, #2]
     cb4:	712c      	strb	r4, [r5, #4]
     cb6:	4798      	blx	r3
     cb8:	4b08      	ldr	r3, [pc, #32]	; (cdc <startNewLife+0x54>)
     cba:	4798      	blx	r3
     cbc:	4b08      	ldr	r3, [pc, #32]	; (ce0 <startNewLife+0x58>)
     cbe:	716c      	strb	r4, [r5, #5]
     cc0:	801c      	strh	r4, [r3, #0]
     cc2:	4b08      	ldr	r3, [pc, #32]	; (ce4 <startNewLife+0x5c>)
     cc4:	701e      	strb	r6, [r3, #0]
     cc6:	bd70      	pop	{r4, r5, r6, pc}
     cc8:	20000702 	.word	0x20000702
     ccc:	20000008 	.word	0x20000008
     cd0:	20000060 	.word	0x20000060
     cd4:	20000726 	.word	0x20000726
     cd8:	00000c45 	.word	0x00000c45
     cdc:	00000c55 	.word	0x00000c55
     ce0:	20000700 	.word	0x20000700
     ce4:	20000841 	.word	0x20000841

00000ce8 <playerLogic>:
     ce8:	b5f0      	push	{r4, r5, r6, r7, lr}
     cea:	4dc7      	ldr	r5, [pc, #796]	; (1008 <playerLogic+0x320>)
     cec:	4cc7      	ldr	r4, [pc, #796]	; (100c <playerLogic+0x324>)
     cee:	88eb      	ldrh	r3, [r5, #6]
     cf0:	78e1      	ldrb	r1, [r4, #3]
     cf2:	782a      	ldrb	r2, [r5, #0]
     cf4:	185b      	adds	r3, r3, r1
     cf6:	10db      	asrs	r3, r3, #3
     cf8:	b085      	sub	sp, #20
     cfa:	812b      	strh	r3, [r5, #8]
     cfc:	2a02      	cmp	r2, #2
     cfe:	d100      	bne.n	d02 <playerLogic+0x1a>
     d00:	e0ca      	b.n	e98 <playerLogic+0x1b0>
     d02:	d854      	bhi.n	dae <playerLogic+0xc6>
     d04:	2a01      	cmp	r2, #1
     d06:	d069      	beq.n	ddc <playerLogic+0xf4>
     d08:	4bc1      	ldr	r3, [pc, #772]	; (1010 <playerLogic+0x328>)
     d0a:	4798      	blx	r3
     d0c:	2104      	movs	r1, #4
     d0e:	4cbf      	ldr	r4, [pc, #764]	; (100c <playerLogic+0x324>)
     d10:	4dbd      	ldr	r5, [pc, #756]	; (1008 <playerLogic+0x320>)
     d12:	5661      	ldrsb	r1, [r4, r1]
     d14:	000b      	movs	r3, r1
     d16:	3380      	adds	r3, #128	; 0x80
     d18:	d011      	beq.n	d3e <playerLogic+0x56>
     d1a:	2001      	movs	r0, #1
     d1c:	2212      	movs	r2, #18
     d1e:	886b      	ldrh	r3, [r5, #2]
     d20:	56aa      	ldrsb	r2, [r5, r2]
     d22:	089b      	lsrs	r3, r3, #2
     d24:	4003      	ands	r3, r0
     d26:	9000      	str	r0, [sp, #0]
     d28:	48ba      	ldr	r0, [pc, #744]	; (1014 <playerLogic+0x32c>)
     d2a:	4ebb      	ldr	r6, [pc, #748]	; (1018 <playerLogic+0x330>)
     d2c:	307e      	adds	r0, #126	; 0x7e
     d2e:	47b0      	blx	r6
     d30:	7923      	ldrb	r3, [r4, #4]
     d32:	3302      	adds	r3, #2
     d34:	b25b      	sxtb	r3, r3
     d36:	2b7d      	cmp	r3, #125	; 0x7d
     d38:	dd00      	ble.n	d3c <playerLogic+0x54>
     d3a:	e113      	b.n	f64 <playerLogic+0x27c>
     d3c:	7123      	strb	r3, [r4, #4]
     d3e:	4eb7      	ldr	r6, [pc, #732]	; (101c <playerLogic+0x334>)
     d40:	7832      	ldrb	r2, [r6, #0]
     d42:	2a00      	cmp	r2, #0
     d44:	d018      	beq.n	d78 <playerLogic+0x90>
     d46:	20fa      	movs	r0, #250	; 0xfa
     d48:	1e53      	subs	r3, r2, #1
     d4a:	49b5      	ldr	r1, [pc, #724]	; (1020 <playerLogic+0x338>)
     d4c:	105b      	asrs	r3, r3, #1
     d4e:	009b      	lsls	r3, r3, #2
     d50:	0040      	lsls	r0, r0, #1
     d52:	18cb      	adds	r3, r1, r3
     d54:	4350      	muls	r0, r2
     d56:	7821      	ldrb	r1, [r4, #0]
     d58:	6c1b      	ldr	r3, [r3, #64]	; 0x40
     d5a:	b280      	uxth	r0, r0
     d5c:	185b      	adds	r3, r3, r1
     d5e:	7023      	strb	r3, [r4, #0]
     d60:	2208      	movs	r2, #8
     d62:	2300      	movs	r3, #0
     d64:	2114      	movs	r1, #20
     d66:	4faf      	ldr	r7, [pc, #700]	; (1024 <playerLogic+0x33c>)
     d68:	47b8      	blx	r7
     d6a:	7833      	ldrb	r3, [r6, #0]
     d6c:	3301      	adds	r3, #1
     d6e:	b2db      	uxtb	r3, r3
     d70:	2b21      	cmp	r3, #33	; 0x21
     d72:	d100      	bne.n	d76 <playerLogic+0x8e>
     d74:	e0f8      	b.n	f68 <playerLogic+0x280>
     d76:	7033      	strb	r3, [r6, #0]
     d78:	782b      	ldrb	r3, [r5, #0]
     d7a:	075b      	lsls	r3, r3, #29
     d7c:	d100      	bne.n	d80 <playerLogic+0x98>
     d7e:	e11e      	b.n	fbe <playerLogic+0x2d6>
     d80:	7e2a      	ldrb	r2, [r5, #24]
     d82:	4ba9      	ldr	r3, [pc, #676]	; (1028 <playerLogic+0x340>)
     d84:	2a00      	cmp	r2, #0
     d86:	d100      	bne.n	d8a <playerLogic+0xa2>
     d88:	e103      	b.n	f92 <playerLogic+0x2aa>
     d8a:	781a      	ldrb	r2, [r3, #0]
     d8c:	06d3      	lsls	r3, r2, #27
     d8e:	d504      	bpl.n	d9a <playerLogic+0xb2>
     d90:	78e3      	ldrb	r3, [r4, #3]
     d92:	2b00      	cmp	r3, #0
     d94:	d001      	beq.n	d9a <playerLogic+0xb2>
     d96:	3b01      	subs	r3, #1
     d98:	70e3      	strb	r3, [r4, #3]
     d9a:	0693      	lsls	r3, r2, #26
     d9c:	d400      	bmi.n	da0 <playerLogic+0xb8>
     d9e:	e103      	b.n	fa8 <playerLogic+0x2c0>
     da0:	78e3      	ldrb	r3, [r4, #3]
     da2:	2b66      	cmp	r3, #102	; 0x66
     da4:	d900      	bls.n	da8 <playerLogic+0xc0>
     da6:	e0ff      	b.n	fa8 <playerLogic+0x2c0>
     da8:	3301      	adds	r3, #1
     daa:	70e3      	strb	r3, [r4, #3]
     dac:	e0fc      	b.n	fa8 <playerLogic+0x2c0>
     dae:	2a10      	cmp	r2, #16
     db0:	d100      	bne.n	db4 <playerLogic+0xcc>
     db2:	e0a6      	b.n	f02 <playerLogic+0x21a>
     db4:	2a20      	cmp	r2, #32
     db6:	d1a7      	bne.n	d08 <playerLogic+0x20>
     db8:	8a2b      	ldrh	r3, [r5, #16]
     dba:	3b01      	subs	r3, #1
     dbc:	b29b      	uxth	r3, r3
     dbe:	822b      	strh	r3, [r5, #16]
     dc0:	2b00      	cmp	r3, #0
     dc2:	d1a1      	bne.n	d08 <playerLogic+0x20>
     dc4:	4999      	ldr	r1, [pc, #612]	; (102c <playerLogic+0x344>)
     dc6:	780a      	ldrb	r2, [r1, #0]
     dc8:	3a01      	subs	r2, #1
     dca:	b2d2      	uxtb	r2, r2
     dcc:	700a      	strb	r2, [r1, #0]
     dce:	2aff      	cmp	r2, #255	; 0xff
     dd0:	d000      	beq.n	dd4 <playerLogic+0xec>
     dd2:	e0c4      	b.n	f5e <playerLogic+0x276>
     dd4:	3af9      	subs	r2, #249	; 0xf9
     dd6:	7062      	strb	r2, [r4, #1]
     dd8:	806b      	strh	r3, [r5, #2]
     dda:	e795      	b.n	d08 <playerLogic+0x20>
     ddc:	2000      	movs	r0, #0
     dde:	0006      	movs	r6, r0
     de0:	3b1f      	subs	r3, #31
     de2:	b2db      	uxtb	r3, r3
     de4:	2be0      	cmp	r3, #224	; 0xe0
     de6:	d94f      	bls.n	e88 <playerLogic+0x1a0>
     de8:	4a91      	ldr	r2, [pc, #580]	; (1030 <playerLogic+0x348>)
     dea:	5483      	strb	r3, [r0, r2]
     dec:	4a90      	ldr	r2, [pc, #576]	; (1030 <playerLogic+0x348>)
     dee:	4f91      	ldr	r7, [pc, #580]	; (1034 <playerLogic+0x34c>)
     df0:	5c82      	ldrb	r2, [r0, r2]
     df2:	3301      	adds	r3, #1
     df4:	5cba      	ldrb	r2, [r7, r2]
     df6:	3001      	adds	r0, #1
     df8:	4694      	mov	ip, r2
     dfa:	4466      	add	r6, ip
     dfc:	b2f6      	uxtb	r6, r6
     dfe:	b2db      	uxtb	r3, r3
     e00:	2803      	cmp	r0, #3
     e02:	d1ef      	bne.n	de4 <playerLogic+0xfc>
     e04:	2301      	movs	r3, #1
     e06:	886a      	ldrh	r2, [r5, #2]
     e08:	421a      	tst	r2, r3
     e0a:	d000      	beq.n	e0e <playerLogic+0x126>
     e0c:	33fe      	adds	r3, #254	; 0xfe
     e0e:	4d8a      	ldr	r5, [pc, #552]	; (1038 <playerLogic+0x350>)
     e10:	7223      	strb	r3, [r4, #8]
     e12:	0028      	movs	r0, r5
     e14:	2301      	movs	r3, #1
     e16:	7822      	ldrb	r2, [r4, #0]
     e18:	0876      	lsrs	r6, r6, #1
     e1a:	3a06      	subs	r2, #6
     e1c:	1992      	adds	r2, r2, r6
     e1e:	9300      	str	r3, [sp, #0]
     e20:	4e7d      	ldr	r6, [pc, #500]	; (1018 <playerLogic+0x330>)
     e22:	b252      	sxtb	r2, r2
     e24:	b249      	sxtb	r1, r1
     e26:	3038      	adds	r0, #56	; 0x38
     e28:	2300      	movs	r3, #0
     e2a:	47b0      	blx	r6
     e2c:	4f81      	ldr	r7, [pc, #516]	; (1034 <playerLogic+0x34c>)
     e2e:	7963      	ldrb	r3, [r4, #5]
     e30:	2103      	movs	r1, #3
     e32:	5cfa      	ldrb	r2, [r7, r3]
     e34:	7823      	ldrb	r3, [r4, #0]
     e36:	356a      	adds	r5, #106	; 0x6a
     e38:	18d2      	adds	r2, r2, r3
     e3a:	2308      	movs	r3, #8
     e3c:	56e3      	ldrsb	r3, [r4, r3]
     e3e:	5661      	ldrsb	r1, [r4, r1]
     e40:	0028      	movs	r0, r5
     e42:	9300      	str	r3, [sp, #0]
     e44:	b252      	sxtb	r2, r2
     e46:	2300      	movs	r3, #0
     e48:	47b0      	blx	r6
     e4a:	4b79      	ldr	r3, [pc, #484]	; (1030 <playerLogic+0x348>)
     e4c:	78e1      	ldrb	r1, [r4, #3]
     e4e:	785b      	ldrb	r3, [r3, #1]
     e50:	3108      	adds	r1, #8
     e52:	5cfa      	ldrb	r2, [r7, r3]
     e54:	7823      	ldrb	r3, [r4, #0]
     e56:	0028      	movs	r0, r5
     e58:	18d2      	adds	r2, r2, r3
     e5a:	2308      	movs	r3, #8
     e5c:	56e3      	ldrsb	r3, [r4, r3]
     e5e:	b252      	sxtb	r2, r2
     e60:	9300      	str	r3, [sp, #0]
     e62:	b249      	sxtb	r1, r1
     e64:	2300      	movs	r3, #0
     e66:	47b0      	blx	r6
     e68:	4b71      	ldr	r3, [pc, #452]	; (1030 <playerLogic+0x348>)
     e6a:	78e1      	ldrb	r1, [r4, #3]
     e6c:	789b      	ldrb	r3, [r3, #2]
     e6e:	3110      	adds	r1, #16
     e70:	5cfa      	ldrb	r2, [r7, r3]
     e72:	7823      	ldrb	r3, [r4, #0]
     e74:	b249      	sxtb	r1, r1
     e76:	18d2      	adds	r2, r2, r3
     e78:	2308      	movs	r3, #8
     e7a:	56e3      	ldrsb	r3, [r4, r3]
     e7c:	b252      	sxtb	r2, r2
     e7e:	9300      	str	r3, [sp, #0]
     e80:	0028      	movs	r0, r5
     e82:	2300      	movs	r3, #0
     e84:	47b0      	blx	r6
     e86:	e73f      	b.n	d08 <playerLogic+0x20>
     e88:	2220      	movs	r2, #32
     e8a:	4252      	negs	r2, r2
     e8c:	4694      	mov	ip, r2
     e8e:	449c      	add	ip, r3
     e90:	4662      	mov	r2, ip
     e92:	4f67      	ldr	r7, [pc, #412]	; (1030 <playerLogic+0x348>)
     e94:	55c2      	strb	r2, [r0, r7]
     e96:	e7a9      	b.n	dec <playerLogic+0x104>
     e98:	2301      	movs	r3, #1
     e9a:	2200      	movs	r2, #0
     e9c:	4866      	ldr	r0, [pc, #408]	; (1038 <playerLogic+0x350>)
     e9e:	56a2      	ldrsb	r2, [r4, r2]
     ea0:	4d5d      	ldr	r5, [pc, #372]	; (1018 <playerLogic+0x330>)
     ea2:	9300      	str	r3, [sp, #0]
     ea4:	b249      	sxtb	r1, r1
     ea6:	2300      	movs	r3, #0
     ea8:	3038      	adds	r0, #56	; 0x38
     eaa:	47a8      	blx	r5
     eac:	4b5b      	ldr	r3, [pc, #364]	; (101c <playerLogic+0x334>)
     eae:	2506      	movs	r5, #6
     eb0:	781b      	ldrb	r3, [r3, #0]
     eb2:	2b18      	cmp	r3, #24
     eb4:	d900      	bls.n	eb8 <playerLogic+0x1d0>
     eb6:	3d02      	subs	r5, #2
     eb8:	2701      	movs	r7, #1
     eba:	2103      	movs	r1, #3
     ebc:	7822      	ldrb	r2, [r4, #0]
     ebe:	4e5e      	ldr	r6, [pc, #376]	; (1038 <playerLogic+0x350>)
     ec0:	18aa      	adds	r2, r5, r2
     ec2:	366a      	adds	r6, #106	; 0x6a
     ec4:	5661      	ldrsb	r1, [r4, r1]
     ec6:	0030      	movs	r0, r6
     ec8:	9603      	str	r6, [sp, #12]
     eca:	b252      	sxtb	r2, r2
     ecc:	9700      	str	r7, [sp, #0]
     ece:	2300      	movs	r3, #0
     ed0:	4e51      	ldr	r6, [pc, #324]	; (1018 <playerLogic+0x330>)
     ed2:	47b0      	blx	r6
     ed4:	7822      	ldrb	r2, [r4, #0]
     ed6:	78e1      	ldrb	r1, [r4, #3]
     ed8:	18aa      	adds	r2, r5, r2
     eda:	3108      	adds	r1, #8
     edc:	9803      	ldr	r0, [sp, #12]
     ede:	b252      	sxtb	r2, r2
     ee0:	b249      	sxtb	r1, r1
     ee2:	9700      	str	r7, [sp, #0]
     ee4:	2300      	movs	r3, #0
     ee6:	4e4c      	ldr	r6, [pc, #304]	; (1018 <playerLogic+0x330>)
     ee8:	47b0      	blx	r6
     eea:	7822      	ldrb	r2, [r4, #0]
     eec:	78e1      	ldrb	r1, [r4, #3]
     eee:	18aa      	adds	r2, r5, r2
     ef0:	3110      	adds	r1, #16
     ef2:	b252      	sxtb	r2, r2
     ef4:	b249      	sxtb	r1, r1
     ef6:	9700      	str	r7, [sp, #0]
     ef8:	2300      	movs	r3, #0
     efa:	9803      	ldr	r0, [sp, #12]
     efc:	4c46      	ldr	r4, [pc, #280]	; (1018 <playerLogic+0x330>)
     efe:	47a0      	blx	r4
     f00:	e702      	b.n	d08 <playerLogic+0x20>
     f02:	2001      	movs	r0, #1
     f04:	4b4d      	ldr	r3, [pc, #308]	; (103c <playerLogic+0x354>)
     f06:	7822      	ldrb	r2, [r4, #0]
     f08:	781b      	ldrb	r3, [r3, #0]
     f0a:	3a10      	subs	r2, #16
     f0c:	1ac9      	subs	r1, r1, r3
     f0e:	b2c9      	uxtb	r1, r1
     f10:	70e1      	strb	r1, [r4, #3]
     f12:	7b2b      	ldrb	r3, [r5, #12]
     f14:	9000      	str	r0, [sp, #0]
     f16:	4848      	ldr	r0, [pc, #288]	; (1038 <playerLogic+0x350>)
     f18:	3104      	adds	r1, #4
     f1a:	b252      	sxtb	r2, r2
     f1c:	b249      	sxtb	r1, r1
     f1e:	307c      	adds	r0, #124	; 0x7c
     f20:	4c3d      	ldr	r4, [pc, #244]	; (1018 <playerLogic+0x330>)
     f22:	47a0      	blx	r4
     f24:	2096      	movs	r0, #150	; 0x96
     f26:	8a2b      	ldrh	r3, [r5, #16]
     f28:	0040      	lsls	r0, r0, #1
     f2a:	4358      	muls	r0, r3
     f2c:	220a      	movs	r2, #10
     f2e:	2305      	movs	r3, #5
     f30:	b280      	uxth	r0, r0
     f32:	2114      	movs	r1, #20
     f34:	4c3b      	ldr	r4, [pc, #236]	; (1024 <playerLogic+0x33c>)
     f36:	47a0      	blx	r4
     f38:	8a2b      	ldrh	r3, [r5, #16]
     f3a:	3b01      	subs	r3, #1
     f3c:	b29b      	uxth	r3, r3
     f3e:	2b00      	cmp	r3, #0
     f40:	d001      	beq.n	f46 <playerLogic+0x25e>
     f42:	822b      	strh	r3, [r5, #16]
     f44:	e6e0      	b.n	d08 <playerLogic+0x20>
     f46:	2305      	movs	r3, #5
     f48:	822b      	strh	r3, [r5, #16]
     f4a:	68eb      	ldr	r3, [r5, #12]
     f4c:	3301      	adds	r3, #1
     f4e:	60eb      	str	r3, [r5, #12]
     f50:	2b04      	cmp	r3, #4
     f52:	d000      	beq.n	f56 <playerLogic+0x26e>
     f54:	e6d8      	b.n	d08 <playerLogic+0x20>
     f56:	331c      	adds	r3, #28
     f58:	702b      	strb	r3, [r5, #0]
     f5a:	331c      	adds	r3, #28
     f5c:	e7f1      	b.n	f42 <playerLogic+0x25a>
     f5e:	4b38      	ldr	r3, [pc, #224]	; (1040 <playerLogic+0x358>)
     f60:	4798      	blx	r3
     f62:	e6d1      	b.n	d08 <playerLogic+0x20>
     f64:	2380      	movs	r3, #128	; 0x80
     f66:	e6e9      	b.n	d3c <playerLogic+0x54>
     f68:	2100      	movs	r1, #0
     f6a:	4a36      	ldr	r2, [pc, #216]	; (1044 <playerLogic+0x35c>)
     f6c:	7031      	strb	r1, [r6, #0]
     f6e:	8813      	ldrh	r3, [r2, #0]
     f70:	428b      	cmp	r3, r1
     f72:	d00a      	beq.n	f8a <playerLogic+0x2a2>
     f74:	6968      	ldr	r0, [r5, #20]
     f76:	8011      	strh	r1, [r2, #0]
     f78:	18c3      	adds	r3, r0, r3
     f7a:	616b      	str	r3, [r5, #20]
     f7c:	2305      	movs	r3, #5
     f7e:	2208      	movs	r2, #8
     f80:	4831      	ldr	r0, [pc, #196]	; (1048 <playerLogic+0x360>)
     f82:	425b      	negs	r3, r3
     f84:	31c8      	adds	r1, #200	; 0xc8
     f86:	47b8      	blx	r7
     f88:	e6f6      	b.n	d78 <playerLogic+0x90>
     f8a:	2208      	movs	r2, #8
     f8c:	21c8      	movs	r1, #200	; 0xc8
     f8e:	482f      	ldr	r0, [pc, #188]	; (104c <playerLogic+0x364>)
     f90:	e7f9      	b.n	f86 <playerLogic+0x29e>
     f92:	781a      	ldrb	r2, [r3, #0]
     f94:	0693      	lsls	r3, r2, #26
     f96:	d504      	bpl.n	fa2 <playerLogic+0x2ba>
     f98:	78e3      	ldrb	r3, [r4, #3]
     f9a:	2b00      	cmp	r3, #0
     f9c:	d001      	beq.n	fa2 <playerLogic+0x2ba>
     f9e:	3b01      	subs	r3, #1
     fa0:	70e3      	strb	r3, [r4, #3]
     fa2:	06d3      	lsls	r3, r2, #27
     fa4:	d500      	bpl.n	fa8 <playerLogic+0x2c0>
     fa6:	e6fb      	b.n	da0 <playerLogic+0xb8>
     fa8:	4b29      	ldr	r3, [pc, #164]	; (1050 <playerLogic+0x368>)
     faa:	781b      	ldrb	r3, [r3, #0]
     fac:	075a      	lsls	r2, r3, #29
     fae:	d504      	bpl.n	fba <playerLogic+0x2d2>
     fb0:	7832      	ldrb	r2, [r6, #0]
     fb2:	2a00      	cmp	r2, #0
     fb4:	d101      	bne.n	fba <playerLogic+0x2d2>
     fb6:	3201      	adds	r2, #1
     fb8:	7032      	strb	r2, [r6, #0]
     fba:	071b      	lsls	r3, r3, #28
     fbc:	d452      	bmi.n	1064 <playerLogic+0x37c>
     fbe:	792b      	ldrb	r3, [r5, #4]
     fc0:	2b00      	cmp	r3, #0
     fc2:	d01d      	beq.n	1000 <playerLogic+0x318>
     fc4:	2304      	movs	r3, #4
     fc6:	8868      	ldrh	r0, [r5, #2]
     fc8:	2106      	movs	r1, #6
     fca:	4018      	ands	r0, r3
     fcc:	4b21      	ldr	r3, [pc, #132]	; (1054 <playerLogic+0x36c>)
     fce:	d000      	beq.n	fd2 <playerLogic+0x2ea>
     fd0:	2080      	movs	r0, #128	; 0x80
     fd2:	4798      	blx	r3
     fd4:	8a2b      	ldrh	r3, [r5, #16]
     fd6:	3b01      	subs	r3, #1
     fd8:	b29b      	uxth	r3, r3
     fda:	822b      	strh	r3, [r5, #16]
     fdc:	2b00      	cmp	r3, #0
     fde:	d10f      	bne.n	1000 <playerLogic+0x318>
     fe0:	491d      	ldr	r1, [pc, #116]	; (1058 <playerLogic+0x370>)
     fe2:	806b      	strh	r3, [r5, #2]
     fe4:	780a      	ldrb	r2, [r1, #0]
     fe6:	716b      	strb	r3, [r5, #5]
     fe8:	3201      	adds	r2, #1
     fea:	700a      	strb	r2, [r1, #0]
     fec:	490f      	ldr	r1, [pc, #60]	; (102c <playerLogic+0x344>)
     fee:	780a      	ldrb	r2, [r1, #0]
     ff0:	3201      	adds	r2, #1
     ff2:	700a      	strb	r2, [r1, #0]
     ff4:	2207      	movs	r2, #7
     ff6:	7062      	strb	r2, [r4, #1]
     ff8:	4a18      	ldr	r2, [pc, #96]	; (105c <playerLogic+0x374>)
     ffa:	7013      	strb	r3, [r2, #0]
     ffc:	4b10      	ldr	r3, [pc, #64]	; (1040 <playerLogic+0x358>)
     ffe:	4798      	blx	r3
    1000:	b005      	add	sp, #20
    1002:	bdf0      	pop	{r4, r5, r6, r7, pc}
    1004:	2300      	movs	r3, #0
    1006:	e046      	b.n	1096 <playerLogic+0x3ae>
    1008:	20000060 	.word	0x20000060
    100c:	20000008 	.word	0x20000008
    1010:	00000bf5 	.word	0x00000bf5
    1014:	00003180 	.word	0x00003180
    1018:	0000061d 	.word	0x0000061d
    101c:	20000726 	.word	0x20000726
    1020:	00003200 	.word	0x00003200
    1024:	00000415 	.word	0x00000415
    1028:	20000703 	.word	0x20000703
    102c:	2000073f 	.word	0x2000073f
    1030:	2000000d 	.word	0x2000000d
    1034:	200005fc 	.word	0x200005fc
    1038:	00003000 	.word	0x00003000
    103c:	20000841 	.word	0x20000841
    1040:	00000c89 	.word	0x00000c89
    1044:	20000700 	.word	0x20000700
    1048:	00001388 	.word	0x00001388
    104c:	00002710 	.word	0x00002710
    1050:	2000073e 	.word	0x2000073e
    1054:	00000605 	.word	0x00000605
    1058:	20000705 	.word	0x20000705
    105c:	20000844 	.word	0x20000844
    1060:	3b03      	subs	r3, #3
    1062:	e02d      	b.n	10c0 <playerLogic+0x3d8>
    1064:	7e6b      	ldrb	r3, [r5, #25]
    1066:	4817      	ldr	r0, [pc, #92]	; (10c4 <playerLogic+0x3dc>)
    1068:	00db      	lsls	r3, r3, #3
    106a:	18c1      	adds	r1, r0, r3
    106c:	684a      	ldr	r2, [r1, #4]
    106e:	3280      	adds	r2, #128	; 0x80
    1070:	d112      	bne.n	1098 <playerLogic+0x3b0>
    1072:	78e2      	ldrb	r2, [r4, #3]
    1074:	4f14      	ldr	r7, [pc, #80]	; (10c8 <playerLogic+0x3e0>)
    1076:	3202      	adds	r2, #2
    1078:	501a      	str	r2, [r3, r0]
    107a:	7823      	ldrb	r3, [r4, #0]
    107c:	20c8      	movs	r0, #200	; 0xc8
    107e:	3b08      	subs	r3, #8
    1080:	604b      	str	r3, [r1, #4]
    1082:	230a      	movs	r3, #10
    1084:	2164      	movs	r1, #100	; 0x64
    1086:	001a      	movs	r2, r3
    1088:	0080      	lsls	r0, r0, #2
    108a:	47b8      	blx	r7
    108c:	7e6b      	ldrb	r3, [r5, #25]
    108e:	3301      	adds	r3, #1
    1090:	b2db      	uxtb	r3, r3
    1092:	2b01      	cmp	r3, #1
    1094:	d8b6      	bhi.n	1004 <playerLogic+0x31c>
    1096:	766b      	strb	r3, [r5, #25]
    1098:	2304      	movs	r3, #4
    109a:	56e3      	ldrsb	r3, [r4, r3]
    109c:	3380      	adds	r3, #128	; 0x80
    109e:	d000      	beq.n	10a2 <playerLogic+0x3ba>
    10a0:	e78d      	b.n	fbe <playerLogic+0x2d6>
    10a2:	78e3      	ldrb	r3, [r4, #3]
    10a4:	20c8      	movs	r0, #200	; 0xc8
    10a6:	3310      	adds	r3, #16
    10a8:	7123      	strb	r3, [r4, #4]
    10aa:	230a      	movs	r3, #10
    10ac:	2164      	movs	r1, #100	; 0x64
    10ae:	001a      	movs	r2, r3
    10b0:	0080      	lsls	r0, r0, #2
    10b2:	4f05      	ldr	r7, [pc, #20]	; (10c8 <playerLogic+0x3e0>)
    10b4:	47b8      	blx	r7
    10b6:	7832      	ldrb	r2, [r6, #0]
    10b8:	7823      	ldrb	r3, [r4, #0]
    10ba:	2a00      	cmp	r2, #0
    10bc:	d0d0      	beq.n	1060 <playerLogic+0x378>
    10be:	3302      	adds	r3, #2
    10c0:	74ab      	strb	r3, [r5, #18]
    10c2:	e77c      	b.n	fbe <playerLogic+0x2d6>
    10c4:	200005ec 	.word	0x200005ec
    10c8:	00000415 	.word	0x00000415

000010cc <startNewStage>:
    10cc:	2200      	movs	r2, #0
    10ce:	b510      	push	{r4, lr}
    10d0:	4b06      	ldr	r3, [pc, #24]	; (10ec <startNewStage+0x20>)
    10d2:	701a      	strb	r2, [r3, #0]
    10d4:	4b06      	ldr	r3, [pc, #24]	; (10f0 <startNewStage+0x24>)
    10d6:	781a      	ldrb	r2, [r3, #0]
    10d8:	2314      	movs	r3, #20
    10da:	425b      	negs	r3, r3
    10dc:	4353      	muls	r3, r2
    10de:	4a05      	ldr	r2, [pc, #20]	; (10f4 <startNewStage+0x28>)
    10e0:	3b74      	subs	r3, #116	; 0x74
    10e2:	7013      	strb	r3, [r2, #0]
    10e4:	4b04      	ldr	r3, [pc, #16]	; (10f8 <startNewStage+0x2c>)
    10e6:	4798      	blx	r3
    10e8:	bd10      	pop	{r4, pc}
    10ea:	46c0      	nop			; (mov r8, r8)
    10ec:	20000844 	.word	0x20000844
    10f0:	20000705 	.word	0x20000705
    10f4:	20000724 	.word	0x20000724
    10f8:	00000c89 	.word	0x00000c89

000010fc <startNewGame>:
    10fc:	2201      	movs	r2, #1
    10fe:	4b06      	ldr	r3, [pc, #24]	; (1118 <startNewGame+0x1c>)
    1100:	b510      	push	{r4, lr}
    1102:	701a      	strb	r2, [r3, #0]
    1104:	2200      	movs	r2, #0
    1106:	4b05      	ldr	r3, [pc, #20]	; (111c <startNewGame+0x20>)
    1108:	615a      	str	r2, [r3, #20]
    110a:	4b05      	ldr	r3, [pc, #20]	; (1120 <startNewGame+0x24>)
    110c:	3204      	adds	r2, #4
    110e:	701a      	strb	r2, [r3, #0]
    1110:	4b04      	ldr	r3, [pc, #16]	; (1124 <startNewGame+0x28>)
    1112:	4798      	blx	r3
    1114:	bd10      	pop	{r4, pc}
    1116:	46c0      	nop			; (mov r8, r8)
    1118:	20000705 	.word	0x20000705
    111c:	20000060 	.word	0x20000060
    1120:	2000073f 	.word	0x2000073f
    1124:	000010cd 	.word	0x000010cd

00001128 <phaseStart>:
    1128:	b5f8      	push	{r3, r4, r5, r6, r7, lr}
    112a:	2600      	movs	r6, #0
    112c:	220a      	movs	r2, #10
    112e:	2501      	movs	r5, #1
    1130:	4b35      	ldr	r3, [pc, #212]	; (1208 <phaseStart+0xe0>)
    1132:	4c36      	ldr	r4, [pc, #216]	; (120c <phaseStart+0xe4>)
    1134:	701e      	strb	r6, [r3, #0]
    1136:	4b36      	ldr	r3, [pc, #216]	; (1210 <phaseStart+0xe8>)
    1138:	7265      	strb	r5, [r4, #9]
    113a:	701e      	strb	r6, [r3, #0]
    113c:	4b35      	ldr	r3, [pc, #212]	; (1214 <phaseStart+0xec>)
    113e:	701e      	strb	r6, [r3, #0]
    1140:	4b35      	ldr	r3, [pc, #212]	; (1218 <phaseStart+0xf0>)
    1142:	701a      	strb	r2, [r3, #0]
    1144:	4b35      	ldr	r3, [pc, #212]	; (121c <phaseStart+0xf4>)
    1146:	4798      	blx	r3
    1148:	4f35      	ldr	r7, [pc, #212]	; (1220 <phaseStart+0xf8>)
    114a:	4836      	ldr	r0, [pc, #216]	; (1224 <phaseStart+0xfc>)
    114c:	4b36      	ldr	r3, [pc, #216]	; (1228 <phaseStart+0x100>)
    114e:	783a      	ldrb	r2, [r7, #0]
    1150:	7005      	strb	r5, [r0, #0]
    1152:	4836      	ldr	r0, [pc, #216]	; (122c <phaseStart+0x104>)
    1154:	701e      	strb	r6, [r3, #0]
    1156:	4936      	ldr	r1, [pc, #216]	; (1230 <phaseStart+0x108>)
    1158:	0853      	lsrs	r3, r2, #1
    115a:	3303      	adds	r3, #3
    115c:	7800      	ldrb	r0, [r0, #0]
    115e:	700b      	strb	r3, [r1, #0]
    1160:	0053      	lsls	r3, r2, #1
    1162:	002e      	movs	r6, r5
    1164:	b2db      	uxtb	r3, r3
    1166:	4d33      	ldr	r5, [pc, #204]	; (1234 <phaseStart+0x10c>)
    1168:	2805      	cmp	r0, #5
    116a:	d816      	bhi.n	119a <phaseStart+0x72>
    116c:	f001 fd32 	bl	2bd4 <__gnu_thumb1_case_uqi>
    1170:	342b1803 	.word	0x342b1803
    1174:	423b      	.short	0x423b
    1176:	2330      	movs	r3, #48	; 0x30
    1178:	2004      	movs	r0, #4
    117a:	4e2f      	ldr	r6, [pc, #188]	; (1238 <phaseStart+0x110>)
    117c:	72a3      	strb	r3, [r4, #10]
    117e:	47b0      	blx	r6
    1180:	783b      	ldrb	r3, [r7, #0]
    1182:	2b01      	cmp	r3, #1
    1184:	d909      	bls.n	119a <phaseStart+0x72>
    1186:	2003      	movs	r0, #3
    1188:	2202      	movs	r2, #2
    118a:	4358      	muls	r0, r3
    118c:	4925      	ldr	r1, [pc, #148]	; (1224 <phaseStart+0xfc>)
    118e:	3004      	adds	r0, #4
    1190:	700a      	strb	r2, [r1, #0]
    1192:	b2c0      	uxtb	r0, r0
    1194:	3258      	adds	r2, #88	; 0x58
    1196:	7262      	strb	r2, [r4, #9]
    1198:	47b0      	blx	r6
    119a:	2301      	movs	r3, #1
    119c:	83ab      	strh	r3, [r5, #28]
    119e:	bdf8      	pop	{r3, r4, r5, r6, r7, pc}
    11a0:	4826      	ldr	r0, [pc, #152]	; (123c <phaseStart+0x114>)
    11a2:	2a01      	cmp	r2, #1
    11a4:	d107      	bne.n	11b6 <phaseStart+0x8e>
    11a6:	2350      	movs	r3, #80	; 0x50
    11a8:	836b      	strh	r3, [r5, #26]
    11aa:	3b4e      	subs	r3, #78	; 0x4e
    11ac:	7003      	strb	r3, [r0, #0]
    11ae:	3302      	adds	r3, #2
    11b0:	72a2      	strb	r2, [r4, #10]
    11b2:	700b      	strb	r3, [r1, #0]
    11b4:	e7f1      	b.n	119a <phaseStart+0x72>
    11b6:	2201      	movs	r2, #1
    11b8:	72a2      	strb	r2, [r4, #10]
    11ba:	3227      	adds	r2, #39	; 0x27
    11bc:	1ad3      	subs	r3, r2, r3
    11be:	836b      	strh	r3, [r5, #26]
    11c0:	2304      	movs	r3, #4
    11c2:	7003      	strb	r3, [r0, #0]
    11c4:	e7e9      	b.n	119a <phaseStart+0x72>
    11c6:	2231      	movs	r2, #49	; 0x31
    11c8:	72a2      	strb	r2, [r4, #10]
    11ca:	3215      	adds	r2, #21
    11cc:	1ad3      	subs	r3, r2, r3
    11ce:	836b      	strh	r3, [r5, #26]
    11d0:	3a43      	subs	r2, #67	; 0x43
    11d2:	4b1a      	ldr	r3, [pc, #104]	; (123c <phaseStart+0x114>)
    11d4:	701a      	strb	r2, [r3, #0]
    11d6:	e7e0      	b.n	119a <phaseStart+0x72>
    11d8:	2202      	movs	r2, #2
    11da:	72a2      	strb	r2, [r4, #10]
    11dc:	3230      	adds	r2, #48	; 0x30
    11de:	1ad3      	subs	r3, r2, r3
    11e0:	836b      	strh	r3, [r5, #26]
    11e2:	3a2f      	subs	r2, #47	; 0x2f
    11e4:	e7f5      	b.n	11d2 <phaseStart+0xaa>
    11e6:	2213      	movs	r2, #19
    11e8:	72a2      	strb	r2, [r4, #10]
    11ea:	3229      	adds	r2, #41	; 0x29
    11ec:	1ad3      	subs	r3, r2, r3
    11ee:	836b      	strh	r3, [r5, #26]
    11f0:	3a38      	subs	r2, #56	; 0x38
    11f2:	e7ee      	b.n	11d2 <phaseStart+0xaa>
    11f4:	2234      	movs	r2, #52	; 0x34
    11f6:	4b12      	ldr	r3, [pc, #72]	; (1240 <phaseStart+0x118>)
    11f8:	716e      	strb	r6, [r5, #5]
    11fa:	701a      	strb	r2, [r3, #0]
    11fc:	2300      	movs	r3, #0
    11fe:	72a3      	strb	r3, [r4, #10]
    1200:	4b10      	ldr	r3, [pc, #64]	; (1244 <phaseStart+0x11c>)
    1202:	4798      	blx	r3
    1204:	e7c9      	b.n	119a <phaseStart+0x72>
    1206:	46c0      	nop			; (mov r8, r8)
    1208:	200005e8 	.word	0x200005e8
    120c:	20000008 	.word	0x20000008
    1210:	20000842 	.word	0x20000842
    1214:	20000702 	.word	0x20000702
    1218:	20000846 	.word	0x20000846
    121c:	00000c55 	.word	0x00000c55
    1220:	20000705 	.word	0x20000705
    1224:	20000841 	.word	0x20000841
    1228:	20000704 	.word	0x20000704
    122c:	20000844 	.word	0x20000844
    1230:	20000725 	.word	0x20000725
    1234:	20000060 	.word	0x20000060
    1238:	00000965 	.word	0x00000965
    123c:	20000848 	.word	0x20000848
    1240:	2000073d 	.word	0x2000073d
    1244:	00000985 	.word	0x00000985

00001248 <drawSplashScreen>:
    1248:	2280      	movs	r2, #128	; 0x80
    124a:	b510      	push	{r4, lr}
    124c:	00d2      	lsls	r2, r2, #3
    124e:	4b04      	ldr	r3, [pc, #16]	; (1260 <drawSplashScreen+0x18>)
    1250:	2100      	movs	r1, #0
    1252:	4804      	ldr	r0, [pc, #16]	; (1264 <drawSplashScreen+0x1c>)
    1254:	4798      	blx	r3
    1256:	2201      	movs	r2, #1
    1258:	4b03      	ldr	r3, [pc, #12]	; (1268 <drawSplashScreen+0x20>)
    125a:	701a      	strb	r2, [r3, #0]
    125c:	bd10      	pop	{r4, pc}
    125e:	46c0      	nop			; (mov r8, r8)
    1260:	0000072d 	.word	0x0000072d
    1264:	00003280 	.word	0x00003280
    1268:	20000845 	.word	0x20000845

0000126c <drawCharacterRow>:
    126c:	b530      	push	{r4, r5, lr}
    126e:	4b0f      	ldr	r3, [pc, #60]	; (12ac <drawCharacterRow+0x40>)
    1270:	2100      	movs	r1, #0
    1272:	78db      	ldrb	r3, [r3, #3]
    1274:	2041      	movs	r0, #65	; 0x41
    1276:	001a      	movs	r2, r3
    1278:	4c0d      	ldr	r4, [pc, #52]	; (12b0 <drawCharacterRow+0x44>)
    127a:	000d      	movs	r5, r1
    127c:	35a7      	adds	r5, #167	; 0xa7
    127e:	5562      	strb	r2, [r4, r5]
    1280:	3201      	adds	r2, #1
    1282:	b2d2      	uxtb	r2, r2
    1284:	2a5a      	cmp	r2, #90	; 0x5a
    1286:	d900      	bls.n	128a <drawCharacterRow+0x1e>
    1288:	0002      	movs	r2, r0
    128a:	3101      	adds	r1, #1
    128c:	2909      	cmp	r1, #9
    128e:	d1f4      	bne.n	127a <drawCharacterRow+0xe>
    1290:	2207      	movs	r2, #7
    1292:	205a      	movs	r0, #90	; 0x5a
    1294:	3b01      	subs	r3, #1
    1296:	b2db      	uxtb	r3, r3
    1298:	2b40      	cmp	r3, #64	; 0x40
    129a:	d800      	bhi.n	129e <drawCharacterRow+0x32>
    129c:	0003      	movs	r3, r0
    129e:	0011      	movs	r1, r2
    12a0:	3a01      	subs	r2, #1
    12a2:	319f      	adds	r1, #159	; 0x9f
    12a4:	5463      	strb	r3, [r4, r1]
    12a6:	2a00      	cmp	r2, #0
    12a8:	d1f4      	bne.n	1294 <drawCharacterRow+0x28>
    12aa:	bd30      	pop	{r4, r5, pc}
    12ac:	20000008 	.word	0x20000008
    12b0:	200005fc 	.word	0x200005fc

000012b4 <findScorePosition>:
    12b4:	23ff      	movs	r3, #255	; 0xff
    12b6:	b5f0      	push	{r4, r5, r6, r7, lr}
    12b8:	2106      	movs	r1, #6
    12ba:	2400      	movs	r4, #0
    12bc:	2501      	movs	r5, #1
    12be:	4a0a      	ldr	r2, [pc, #40]	; (12e8 <findScorePosition+0x34>)
    12c0:	480a      	ldr	r0, [pc, #40]	; (12ec <findScorePosition+0x38>)
    12c2:	6956      	ldr	r6, [r2, #20]
    12c4:	4f0a      	ldr	r7, [pc, #40]	; (12f0 <findScorePosition+0x3c>)
    12c6:	72c3      	strb	r3, [r0, #11]
    12c8:	008a      	lsls	r2, r1, #2
    12ca:	3a04      	subs	r2, #4
    12cc:	58ba      	ldr	r2, [r7, r2]
    12ce:	42b2      	cmp	r2, r6
    12d0:	d903      	bls.n	12da <findScorePosition+0x26>
    12d2:	2c00      	cmp	r4, #0
    12d4:	d000      	beq.n	12d8 <findScorePosition+0x24>
    12d6:	72c3      	strb	r3, [r0, #11]
    12d8:	bdf0      	pop	{r4, r5, r6, r7, pc}
    12da:	b2cb      	uxtb	r3, r1
    12dc:	3901      	subs	r1, #1
    12de:	002c      	movs	r4, r5
    12e0:	2900      	cmp	r1, #0
    12e2:	d1f1      	bne.n	12c8 <findScorePosition+0x14>
    12e4:	e7f7      	b.n	12d6 <findScorePosition+0x22>
    12e6:	46c0      	nop			; (mov r8, r8)
    12e8:	20000060 	.word	0x20000060
    12ec:	20000008 	.word	0x20000008
    12f0:	20000708 	.word	0x20000708

000012f4 <getGround>:
    12f4:	4b08      	ldr	r3, [pc, #32]	; (1318 <getGround+0x24>)
    12f6:	b510      	push	{r4, lr}
    12f8:	2001      	movs	r0, #1
    12fa:	4798      	blx	r3
    12fc:	4b07      	ldr	r3, [pc, #28]	; (131c <getGround+0x28>)
    12fe:	7b1a      	ldrb	r2, [r3, #12]
    1300:	2800      	cmp	r0, #0
    1302:	d005      	beq.n	1310 <getGround+0x1c>
    1304:	2a00      	cmp	r2, #0
    1306:	d001      	beq.n	130c <getGround+0x18>
    1308:	3a01      	subs	r2, #1
    130a:	731a      	strb	r2, [r3, #12]
    130c:	7b18      	ldrb	r0, [r3, #12]
    130e:	bd10      	pop	{r4, pc}
    1310:	2a01      	cmp	r2, #1
    1312:	d8fb      	bhi.n	130c <getGround+0x18>
    1314:	3201      	adds	r2, #1
    1316:	e7f8      	b.n	130a <getGround+0x16>
    1318:	00000445 	.word	0x00000445
    131c:	20000008 	.word	0x20000008

00001320 <fillTiles>:
    1320:	b510      	push	{r4, lr}
    1322:	4b05      	ldr	r3, [pc, #20]	; (1338 <fillTiles+0x18>)
    1324:	1812      	adds	r2, r2, r0
    1326:	4290      	cmp	r0, r2
    1328:	db00      	blt.n	132c <fillTiles+0xc>
    132a:	bd10      	pop	{r4, pc}
    132c:	1c4c      	adds	r4, r1, #1
    132e:	5419      	strb	r1, [r3, r0]
    1330:	3001      	adds	r0, #1
    1332:	b2e1      	uxtb	r1, r4
    1334:	e7f7      	b.n	1326 <fillTiles+0x6>
    1336:	46c0      	nop			; (mov r8, r8)
    1338:	200005fc 	.word	0x200005fc

0000133c <drawMountains2>:
    133c:	0140      	lsls	r0, r0, #5
    133e:	b570      	push	{r4, r5, r6, lr}
    1340:	b2c4      	uxtb	r4, r0
    1342:	4d10      	ldr	r5, [pc, #64]	; (1384 <drawMountains2+0x48>)
    1344:	0020      	movs	r0, r4
    1346:	2210      	movs	r2, #16
    1348:	2180      	movs	r1, #128	; 0x80
    134a:	47a8      	blx	r5
    134c:	0020      	movs	r0, r4
    134e:	3010      	adds	r0, #16
    1350:	b2c0      	uxtb	r0, r0
    1352:	2210      	movs	r2, #16
    1354:	2180      	movs	r1, #128	; 0x80
    1356:	47a8      	blx	r5
    1358:	2220      	movs	r2, #32
    135a:	4b0b      	ldr	r3, [pc, #44]	; (1388 <drawMountains2+0x4c>)
    135c:	18a0      	adds	r0, r4, r2
    135e:	191b      	adds	r3, r3, r4
    1360:	719a      	strb	r2, [r3, #6]
    1362:	725a      	strb	r2, [r3, #9]
    1364:	729a      	strb	r2, [r3, #10]
    1366:	759a      	strb	r2, [r3, #22]
    1368:	765a      	strb	r2, [r3, #25]
    136a:	769a      	strb	r2, [r3, #26]
    136c:	b2c0      	uxtb	r0, r0
    136e:	3a10      	subs	r2, #16
    1370:	2190      	movs	r1, #144	; 0x90
    1372:	47a8      	blx	r5
    1374:	0020      	movs	r0, r4
    1376:	3030      	adds	r0, #48	; 0x30
    1378:	b2c0      	uxtb	r0, r0
    137a:	2210      	movs	r2, #16
    137c:	2190      	movs	r1, #144	; 0x90
    137e:	47a8      	blx	r5
    1380:	bd70      	pop	{r4, r5, r6, pc}
    1382:	46c0      	nop			; (mov r8, r8)
    1384:	00001321 	.word	0x00001321
    1388:	200005fc 	.word	0x200005fc

0000138c <drawDecimal>:
    138c:	2309      	movs	r3, #9
    138e:	b5f7      	push	{r0, r1, r2, r4, r5, r6, r7, lr}
    1390:	0006      	movs	r6, r0
    1392:	000c      	movs	r4, r1
    1394:	2700      	movs	r7, #0
    1396:	4d13      	ldr	r5, [pc, #76]	; (13e4 <drawDecimal+0x58>)
    1398:	9301      	str	r3, [sp, #4]
    139a:	42ae      	cmp	r6, r5
    139c:	d31a      	bcc.n	13d4 <drawDecimal+0x48>
    139e:	0029      	movs	r1, r5
    13a0:	0030      	movs	r0, r6
    13a2:	4b11      	ldr	r3, [pc, #68]	; (13e8 <drawDecimal+0x5c>)
    13a4:	4798      	blx	r3
    13a6:	3030      	adds	r0, #48	; 0x30
    13a8:	7020      	strb	r0, [r4, #0]
    13aa:	0029      	movs	r1, r5
    13ac:	0030      	movs	r0, r6
    13ae:	4b0f      	ldr	r3, [pc, #60]	; (13ec <drawDecimal+0x60>)
    13b0:	4798      	blx	r3
    13b2:	1c67      	adds	r7, r4, #1
    13b4:	003c      	movs	r4, r7
    13b6:	000e      	movs	r6, r1
    13b8:	2701      	movs	r7, #1
    13ba:	0028      	movs	r0, r5
    13bc:	4b0a      	ldr	r3, [pc, #40]	; (13e8 <drawDecimal+0x5c>)
    13be:	210a      	movs	r1, #10
    13c0:	4798      	blx	r3
    13c2:	9b01      	ldr	r3, [sp, #4]
    13c4:	0005      	movs	r5, r0
    13c6:	3b01      	subs	r3, #1
    13c8:	9301      	str	r3, [sp, #4]
    13ca:	2b00      	cmp	r3, #0
    13cc:	d1e5      	bne.n	139a <drawDecimal+0xe>
    13ce:	3320      	adds	r3, #32
    13d0:	7023      	strb	r3, [r4, #0]
    13d2:	bdf7      	pop	{r0, r1, r2, r4, r5, r6, r7, pc}
    13d4:	2f00      	cmp	r7, #0
    13d6:	d101      	bne.n	13dc <drawDecimal+0x50>
    13d8:	2d01      	cmp	r5, #1
    13da:	d1ee      	bne.n	13ba <drawDecimal+0x2e>
    13dc:	2330      	movs	r3, #48	; 0x30
    13de:	7023      	strb	r3, [r4, #0]
    13e0:	3401      	adds	r4, #1
    13e2:	e7ea      	b.n	13ba <drawDecimal+0x2e>
    13e4:	05f5e100 	.word	0x05f5e100
    13e8:	00002bfd 	.word	0x00002bfd
    13ec:	00002d09 	.word	0x00002d09

000013f0 <drawText>:
    13f0:	2300      	movs	r3, #0
    13f2:	5cc2      	ldrb	r2, [r0, r3]
    13f4:	2a00      	cmp	r2, #0
    13f6:	d100      	bne.n	13fa <drawText+0xa>
    13f8:	4770      	bx	lr
    13fa:	54ca      	strb	r2, [r1, r3]
    13fc:	3301      	adds	r3, #1
    13fe:	e7f8      	b.n	13f2 <drawText+0x2>

00001400 <damageBoss>:
    1400:	b570      	push	{r4, r5, r6, lr}
    1402:	0004      	movs	r4, r0
    1404:	20c8      	movs	r0, #200	; 0xc8
    1406:	2305      	movs	r3, #5
    1408:	220a      	movs	r2, #10
    140a:	4d15      	ldr	r5, [pc, #84]	; (1460 <damageBoss+0x60>)
    140c:	2164      	movs	r1, #100	; 0x64
    140e:	0040      	lsls	r0, r0, #1
    1410:	47a8      	blx	r5
    1412:	4d14      	ldr	r5, [pc, #80]	; (1464 <damageBoss+0x64>)
    1414:	4a14      	ldr	r2, [pc, #80]	; (1468 <damageBoss+0x68>)
    1416:	696b      	ldr	r3, [r5, #20]
    1418:	33fa      	adds	r3, #250	; 0xfa
    141a:	616b      	str	r3, [r5, #20]
    141c:	7813      	ldrb	r3, [r2, #0]
    141e:	3b01      	subs	r3, #1
    1420:	b2db      	uxtb	r3, r3
    1422:	7013      	strb	r3, [r2, #0]
    1424:	2b00      	cmp	r3, #0
    1426:	d11a      	bne.n	145e <damageBoss+0x5e>
    1428:	2106      	movs	r1, #6
    142a:	4b10      	ldr	r3, [pc, #64]	; (146c <damageBoss+0x6c>)
    142c:	0124      	lsls	r4, r4, #4
    142e:	191c      	adds	r4, r3, r4
    1430:	2304      	movs	r3, #4
    1432:	5ee0      	ldrsh	r0, [r4, r3]
    1434:	5661      	ldrsb	r1, [r4, r1]
    1436:	2214      	movs	r2, #20
    1438:	4e0d      	ldr	r6, [pc, #52]	; (1470 <damageBoss+0x70>)
    143a:	47b0      	blx	r6
    143c:	2106      	movs	r1, #6
    143e:	88a0      	ldrh	r0, [r4, #4]
    1440:	5661      	ldrsb	r1, [r4, r1]
    1442:	3010      	adds	r0, #16
    1444:	b200      	sxth	r0, r0
    1446:	2218      	movs	r2, #24
    1448:	47b0      	blx	r6
    144a:	2380      	movs	r3, #128	; 0x80
    144c:	71a3      	strb	r3, [r4, #6]
    144e:	3b7f      	subs	r3, #127	; 0x7f
    1450:	712b      	strb	r3, [r5, #4]
    1452:	33b3      	adds	r3, #179	; 0xb3
    1454:	822b      	strh	r3, [r5, #16]
    1456:	4907      	ldr	r1, [pc, #28]	; (1474 <damageBoss+0x74>)
    1458:	4807      	ldr	r0, [pc, #28]	; (1478 <damageBoss+0x78>)
    145a:	4b08      	ldr	r3, [pc, #32]	; (147c <damageBoss+0x7c>)
    145c:	4798      	blx	r3
    145e:	bd70      	pop	{r4, r5, r6, pc}
    1460:	00000415 	.word	0x00000415
    1464:	20000060 	.word	0x20000060
    1468:	2000073d 	.word	0x2000073d
    146c:	20000740 	.word	0x20000740
    1470:	00000ba1 	.word	0x00000ba1
    1474:	200006ce 	.word	0x200006ce
    1478:	00003cc8 	.word	0x00003cc8
    147c:	000013f1 	.word	0x000013f1

00001480 <enemies>:
    1480:	b5f0      	push	{r4, r5, r6, r7, lr}
    1482:	2700      	movs	r7, #0
    1484:	4caf      	ldr	r4, [pc, #700]	; (1744 <enemies+0x2c4>)
    1486:	b087      	sub	sp, #28
    1488:	2206      	movs	r2, #6
    148a:	56a2      	ldrsb	r2, [r4, r2]
    148c:	0013      	movs	r3, r2
    148e:	3380      	adds	r3, #128	; 0x80
    1490:	d100      	bne.n	1494 <enemies+0x14>
    1492:	e0a2      	b.n	15da <enemies+0x15a>
    1494:	2008      	movs	r0, #8
    1496:	2104      	movs	r1, #4
    1498:	5620      	ldrsb	r0, [r4, r0]
    149a:	7ae3      	ldrb	r3, [r4, #11]
    149c:	5661      	ldrsb	r1, [r4, r1]
    149e:	9000      	str	r0, [sp, #0]
    14a0:	6820      	ldr	r0, [r4, #0]
    14a2:	4da9      	ldr	r5, [pc, #676]	; (1748 <enemies+0x2c8>)
    14a4:	47a8      	blx	r5
    14a6:	6823      	ldr	r3, [r4, #0]
    14a8:	49a8      	ldr	r1, [pc, #672]	; (174c <enemies+0x2cc>)
    14aa:	781b      	ldrb	r3, [r3, #0]
    14ac:	48a8      	ldr	r0, [pc, #672]	; (1750 <enemies+0x2d0>)
    14ae:	b25a      	sxtb	r2, r3
    14b0:	3301      	adds	r3, #1
    14b2:	b25b      	sxtb	r3, r3
    14b4:	9305      	str	r3, [sp, #20]
    14b6:	2300      	movs	r3, #0
    14b8:	9204      	str	r2, [sp, #16]
    14ba:	78cd      	ldrb	r5, [r1, #3]
    14bc:	4aa5      	ldr	r2, [pc, #660]	; (1754 <enemies+0x2d4>)
    14be:	7003      	strb	r3, [r0, #0]
    14c0:	7013      	strb	r3, [r2, #0]
    14c2:	2304      	movs	r3, #4
    14c4:	5ee6      	ldrsh	r6, [r4, r3]
    14c6:	002b      	movs	r3, r5
    14c8:	3313      	adds	r3, #19
    14ca:	42b3      	cmp	r3, r6
    14cc:	db06      	blt.n	14dc <enemies+0x5c>
    14ce:	9b04      	ldr	r3, [sp, #16]
    14d0:	3b04      	subs	r3, #4
    14d2:	199b      	adds	r3, r3, r6
    14d4:	429d      	cmp	r5, r3
    14d6:	da01      	bge.n	14dc <enemies+0x5c>
    14d8:	2301      	movs	r3, #1
    14da:	7003      	strb	r3, [r0, #0]
    14dc:	2306      	movs	r3, #6
    14de:	7809      	ldrb	r1, [r1, #0]
    14e0:	56e3      	ldrsb	r3, [r4, r3]
    14e2:	1dc8      	adds	r0, r1, #7
    14e4:	4298      	cmp	r0, r3
    14e6:	db05      	blt.n	14f4 <enemies+0x74>
    14e8:	9805      	ldr	r0, [sp, #20]
    14ea:	18c3      	adds	r3, r0, r3
    14ec:	4299      	cmp	r1, r3
    14ee:	da01      	bge.n	14f4 <enemies+0x74>
    14f0:	2301      	movs	r3, #1
    14f2:	7013      	strb	r3, [r2, #0]
    14f4:	4d98      	ldr	r5, [pc, #608]	; (1758 <enemies+0x2d8>)
    14f6:	682b      	ldr	r3, [r5, #0]
    14f8:	001a      	movs	r2, r3
    14fa:	3280      	adds	r2, #128	; 0x80
    14fc:	d027      	beq.n	154e <enemies+0xce>
    14fe:	1f2a      	subs	r2, r5, #4
    1500:	6812      	ldr	r2, [r2, #0]
    1502:	2104      	movs	r1, #4
    1504:	5e60      	ldrsh	r0, [r4, r1]
    1506:	1dd1      	adds	r1, r2, #7
    1508:	4281      	cmp	r1, r0
    150a:	db20      	blt.n	154e <enemies+0xce>
    150c:	9904      	ldr	r1, [sp, #16]
    150e:	1809      	adds	r1, r1, r0
    1510:	428a      	cmp	r2, r1
    1512:	da1c      	bge.n	154e <enemies+0xce>
    1514:	2106      	movs	r1, #6
    1516:	5661      	ldrsb	r1, [r4, r1]
    1518:	1dda      	adds	r2, r3, #7
    151a:	428a      	cmp	r2, r1
    151c:	db17      	blt.n	154e <enemies+0xce>
    151e:	9a05      	ldr	r2, [sp, #20]
    1520:	1852      	adds	r2, r2, r1
    1522:	4293      	cmp	r3, r2
    1524:	da13      	bge.n	154e <enemies+0xce>
    1526:	79e3      	ldrb	r3, [r4, #7]
    1528:	2b30      	cmp	r3, #48	; 0x30
    152a:	d010      	beq.n	154e <enemies+0xce>
    152c:	2ba0      	cmp	r3, #160	; 0xa0
    152e:	d15b      	bne.n	15e8 <enemies+0x168>
    1530:	b2f8      	uxtb	r0, r7
    1532:	4b8a      	ldr	r3, [pc, #552]	; (175c <enemies+0x2dc>)
    1534:	4798      	blx	r3
    1536:	79a1      	ldrb	r1, [r4, #6]
    1538:	88a0      	ldrh	r0, [r4, #4]
    153a:	3108      	adds	r1, #8
    153c:	3008      	adds	r0, #8
    153e:	b249      	sxtb	r1, r1
    1540:	b200      	sxth	r0, r0
    1542:	2205      	movs	r2, #5
    1544:	4b86      	ldr	r3, [pc, #536]	; (1760 <enemies+0x2e0>)
    1546:	4798      	blx	r3
    1548:	2380      	movs	r3, #128	; 0x80
    154a:	425b      	negs	r3, r3
    154c:	602b      	str	r3, [r5, #0]
    154e:	4b85      	ldr	r3, [pc, #532]	; (1764 <enemies+0x2e4>)
    1550:	3508      	adds	r5, #8
    1552:	42ab      	cmp	r3, r5
    1554:	d1cf      	bne.n	14f6 <enemies+0x76>
    1556:	2204      	movs	r2, #4
    1558:	2300      	movs	r3, #0
    155a:	4e7c      	ldr	r6, [pc, #496]	; (174c <enemies+0x2cc>)
    155c:	56b2      	ldrsb	r2, [r6, r2]
    155e:	9303      	str	r3, [sp, #12]
    1560:	0013      	movs	r3, r2
    1562:	3380      	adds	r3, #128	; 0x80
    1564:	d019      	beq.n	159a <enemies+0x11a>
    1566:	2104      	movs	r1, #4
    1568:	5e63      	ldrsh	r3, [r4, r1]
    156a:	0011      	movs	r1, r2
    156c:	310f      	adds	r1, #15
    156e:	4299      	cmp	r1, r3
    1570:	db13      	blt.n	159a <enemies+0x11a>
    1572:	9904      	ldr	r1, [sp, #16]
    1574:	18cb      	adds	r3, r1, r3
    1576:	429a      	cmp	r2, r3
    1578:	da0f      	bge.n	159a <enemies+0x11a>
    157a:	4b7b      	ldr	r3, [pc, #492]	; (1768 <enemies+0x2e8>)
    157c:	7c99      	ldrb	r1, [r3, #18]
    157e:	2306      	movs	r3, #6
    1580:	56e3      	ldrsb	r3, [r4, r3]
    1582:	1dca      	adds	r2, r1, #7
    1584:	429a      	cmp	r2, r3
    1586:	db08      	blt.n	159a <enemies+0x11a>
    1588:	9a05      	ldr	r2, [sp, #20]
    158a:	18d3      	adds	r3, r2, r3
    158c:	2201      	movs	r2, #1
    158e:	4299      	cmp	r1, r3
    1590:	db01      	blt.n	1596 <enemies+0x116>
    1592:	466b      	mov	r3, sp
    1594:	7b1a      	ldrb	r2, [r3, #12]
    1596:	b2d3      	uxtb	r3, r2
    1598:	9303      	str	r3, [sp, #12]
    159a:	7b63      	ldrb	r3, [r4, #13]
    159c:	2b00      	cmp	r3, #0
    159e:	d00b      	beq.n	15b8 <enemies+0x138>
    15a0:	4b72      	ldr	r3, [pc, #456]	; (176c <enemies+0x2ec>)
    15a2:	88a2      	ldrh	r2, [r4, #4]
    15a4:	781b      	ldrb	r3, [r3, #0]
    15a6:	1ad2      	subs	r2, r2, r3
    15a8:	9b04      	ldr	r3, [sp, #16]
    15aa:	b212      	sxth	r2, r2
    15ac:	425b      	negs	r3, r3
    15ae:	80a2      	strh	r2, [r4, #4]
    15b0:	429a      	cmp	r2, r3
    15b2:	da01      	bge.n	15b8 <enemies+0x138>
    15b4:	2380      	movs	r3, #128	; 0x80
    15b6:	71a3      	strb	r3, [r4, #6]
    15b8:	2106      	movs	r1, #6
    15ba:	5661      	ldrsb	r1, [r4, r1]
    15bc:	000b      	movs	r3, r1
    15be:	3380      	adds	r3, #128	; 0x80
    15c0:	d00b      	beq.n	15da <enemies+0x15a>
    15c2:	79e5      	ldrb	r5, [r4, #7]
    15c4:	2d10      	cmp	r5, #16
    15c6:	d100      	bne.n	15ca <enemies+0x14a>
    15c8:	e111      	b.n	17ee <enemies+0x36e>
    15ca:	d836      	bhi.n	163a <enemies+0x1ba>
    15cc:	2d02      	cmp	r5, #2
    15ce:	d100      	bne.n	15d2 <enemies+0x152>
    15d0:	e096      	b.n	1700 <enemies+0x280>
    15d2:	d829      	bhi.n	1628 <enemies+0x1a8>
    15d4:	2d01      	cmp	r5, #1
    15d6:	d100      	bne.n	15da <enemies+0x15a>
    15d8:	e07b      	b.n	16d2 <enemies+0x252>
    15da:	3701      	adds	r7, #1
    15dc:	3410      	adds	r4, #16
    15de:	2f10      	cmp	r7, #16
    15e0:	d000      	beq.n	15e4 <enemies+0x164>
    15e2:	e751      	b.n	1488 <enemies+0x8>
    15e4:	b007      	add	sp, #28
    15e6:	bdf0      	pop	{r4, r5, r6, r7, pc}
    15e8:	2270      	movs	r2, #112	; 0x70
    15ea:	4213      	tst	r3, r2
    15ec:	d017      	beq.n	161e <enemies+0x19e>
    15ee:	26fa      	movs	r6, #250	; 0xfa
    15f0:	4a5f      	ldr	r2, [pc, #380]	; (1770 <enemies+0x2f0>)
    15f2:	00b6      	lsls	r6, r6, #2
    15f4:	7813      	ldrb	r3, [r2, #0]
    15f6:	3b01      	subs	r3, #1
    15f8:	7013      	strb	r3, [r2, #0]
    15fa:	4a5b      	ldr	r2, [pc, #364]	; (1768 <enemies+0x2e8>)
    15fc:	6953      	ldr	r3, [r2, #20]
    15fe:	199b      	adds	r3, r3, r6
    1600:	6153      	str	r3, [r2, #20]
    1602:	2206      	movs	r2, #6
    1604:	4b56      	ldr	r3, [pc, #344]	; (1760 <enemies+0x2e0>)
    1606:	4798      	blx	r3
    1608:	2380      	movs	r3, #128	; 0x80
    160a:	2196      	movs	r1, #150	; 0x96
    160c:	20af      	movs	r0, #175	; 0xaf
    160e:	71a3      	strb	r3, [r4, #6]
    1610:	220a      	movs	r2, #10
    1612:	3b81      	subs	r3, #129	; 0x81
    1614:	0049      	lsls	r1, r1, #1
    1616:	0080      	lsls	r0, r0, #2
    1618:	4e56      	ldr	r6, [pc, #344]	; (1774 <enemies+0x2f4>)
    161a:	47b0      	blx	r6
    161c:	e794      	b.n	1548 <enemies+0xc8>
    161e:	4a52      	ldr	r2, [pc, #328]	; (1768 <enemies+0x2e8>)
    1620:	6953      	ldr	r3, [r2, #20]
    1622:	330a      	adds	r3, #10
    1624:	6153      	str	r3, [r2, #20]
    1626:	e7ef      	b.n	1608 <enemies+0x188>
    1628:	2d04      	cmp	r5, #4
    162a:	d100      	bne.n	162e <enemies+0x1ae>
    162c:	e084      	b.n	1738 <enemies+0x2b8>
    162e:	2d08      	cmp	r5, #8
    1630:	d1d3      	bne.n	15da <enemies+0x15a>
    1632:	2296      	movs	r2, #150	; 0x96
    1634:	b2f8      	uxtb	r0, r7
    1636:	0092      	lsls	r2, r2, #2
    1638:	e081      	b.n	173e <enemies+0x2be>
    163a:	2d80      	cmp	r5, #128	; 0x80
    163c:	d100      	bne.n	1640 <enemies+0x1c0>
    163e:	e0a1      	b.n	1784 <enemies+0x304>
    1640:	d813      	bhi.n	166a <enemies+0x1ea>
    1642:	2d20      	cmp	r5, #32
    1644:	d100      	bne.n	1648 <enemies+0x1c8>
    1646:	e0ee      	b.n	1826 <enemies+0x3a6>
    1648:	2d30      	cmp	r5, #48	; 0x30
    164a:	d1c6      	bne.n	15da <enemies+0x15a>
    164c:	89e3      	ldrh	r3, [r4, #14]
    164e:	3b01      	subs	r3, #1
    1650:	b29b      	uxth	r3, r3
    1652:	81e3      	strh	r3, [r4, #14]
    1654:	2b00      	cmp	r3, #0
    1656:	d1c0      	bne.n	15da <enemies+0x15a>
    1658:	7ae3      	ldrb	r3, [r4, #11]
    165a:	3301      	adds	r3, #1
    165c:	b2db      	uxtb	r3, r3
    165e:	72e3      	strb	r3, [r4, #11]
    1660:	2b03      	cmp	r3, #3
    1662:	d133      	bne.n	16cc <enemies+0x24c>
    1664:	337d      	adds	r3, #125	; 0x7d
    1666:	71a3      	strb	r3, [r4, #6]
    1668:	e7b7      	b.n	15da <enemies+0x15a>
    166a:	2d90      	cmp	r5, #144	; 0x90
    166c:	d100      	bne.n	1670 <enemies+0x1f0>
    166e:	e0a4      	b.n	17ba <enemies+0x33a>
    1670:	2da0      	cmp	r5, #160	; 0xa0
    1672:	d1b2      	bne.n	15da <enemies+0x15a>
    1674:	4d3c      	ldr	r5, [pc, #240]	; (1768 <enemies+0x2e8>)
    1676:	886b      	ldrh	r3, [r5, #2]
    1678:	7faa      	ldrb	r2, [r5, #30]
    167a:	421a      	tst	r2, r3
    167c:	d100      	bne.n	1680 <enemies+0x200>
    167e:	e123      	b.n	18c8 <enemies+0x448>
    1680:	2301      	movs	r3, #1
    1682:	7223      	strb	r3, [r4, #8]
    1684:	9b03      	ldr	r3, [sp, #12]
    1686:	2b00      	cmp	r3, #0
    1688:	d00b      	beq.n	16a2 <enemies+0x222>
    168a:	2380      	movs	r3, #128	; 0x80
    168c:	b2f8      	uxtb	r0, r7
    168e:	7133      	strb	r3, [r6, #4]
    1690:	4b32      	ldr	r3, [pc, #200]	; (175c <enemies+0x2dc>)
    1692:	4798      	blx	r3
    1694:	2106      	movs	r1, #6
    1696:	2304      	movs	r3, #4
    1698:	5ee0      	ldrsh	r0, [r4, r3]
    169a:	5661      	ldrsb	r1, [r4, r1]
    169c:	2205      	movs	r2, #5
    169e:	4b30      	ldr	r3, [pc, #192]	; (1760 <enemies+0x2e0>)
    16a0:	4798      	blx	r3
    16a2:	2106      	movs	r1, #6
    16a4:	5661      	ldrsb	r1, [r4, r1]
    16a6:	000b      	movs	r3, r1
    16a8:	3380      	adds	r3, #128	; 0x80
    16aa:	d100      	bne.n	16ae <enemies+0x22e>
    16ac:	e795      	b.n	15da <enemies+0x15a>
    16ae:	7aa0      	ldrb	r0, [r4, #10]
    16b0:	3801      	subs	r0, #1
    16b2:	2807      	cmp	r0, #7
    16b4:	d900      	bls.n	16b8 <enemies+0x238>
    16b6:	e790      	b.n	15da <enemies+0x15a>
    16b8:	f001 fa96 	bl	2be8 <__gnu_thumb1_case_uhi>
    16bc:	01200108 	.word	0x01200108
    16c0:	01760142 	.word	0x01760142
    16c4:	0198018c 	.word	0x0198018c
    16c8:	01c301a7 	.word	0x01c301a7
    16cc:	2306      	movs	r3, #6
    16ce:	81e3      	strh	r3, [r4, #14]
    16d0:	e783      	b.n	15da <enemies+0x15a>
    16d2:	9b03      	ldr	r3, [sp, #12]
    16d4:	2b00      	cmp	r3, #0
    16d6:	d00c      	beq.n	16f2 <enemies+0x272>
    16d8:	2380      	movs	r3, #128	; 0x80
    16da:	71a3      	strb	r3, [r4, #6]
    16dc:	7133      	strb	r3, [r6, #4]
    16de:	3b76      	subs	r3, #118	; 0x76
    16e0:	001a      	movs	r2, r3
    16e2:	21c8      	movs	r1, #200	; 0xc8
    16e4:	4824      	ldr	r0, [pc, #144]	; (1778 <enemies+0x2f8>)
    16e6:	4d23      	ldr	r5, [pc, #140]	; (1774 <enemies+0x2f4>)
    16e8:	47a8      	blx	r5
    16ea:	4a1f      	ldr	r2, [pc, #124]	; (1768 <enemies+0x2e8>)
    16ec:	6953      	ldr	r3, [r2, #20]
    16ee:	3364      	adds	r3, #100	; 0x64
    16f0:	6153      	str	r3, [r2, #20]
    16f2:	22fa      	movs	r2, #250	; 0xfa
    16f4:	b2f8      	uxtb	r0, r7
    16f6:	0052      	lsls	r2, r2, #1
    16f8:	212c      	movs	r1, #44	; 0x2c
    16fa:	4b20      	ldr	r3, [pc, #128]	; (177c <enemies+0x2fc>)
    16fc:	4798      	blx	r3
    16fe:	e76c      	b.n	15da <enemies+0x15a>
    1700:	9b03      	ldr	r3, [sp, #12]
    1702:	2b00      	cmp	r3, #0
    1704:	d014      	beq.n	1730 <enemies+0x2b0>
    1706:	4b1e      	ldr	r3, [pc, #120]	; (1780 <enemies+0x300>)
    1708:	20c8      	movs	r0, #200	; 0xc8
    170a:	3302      	adds	r3, #2
    170c:	6023      	str	r3, [r4, #0]
    170e:	2301      	movs	r3, #1
    1710:	71e3      	strb	r3, [r4, #7]
    1712:	88a3      	ldrh	r3, [r4, #4]
    1714:	220a      	movs	r2, #10
    1716:	3308      	adds	r3, #8
    1718:	80a3      	strh	r3, [r4, #4]
    171a:	2380      	movs	r3, #128	; 0x80
    171c:	2164      	movs	r1, #100	; 0x64
    171e:	7133      	strb	r3, [r6, #4]
    1720:	0040      	lsls	r0, r0, #1
    1722:	3b7d      	subs	r3, #125	; 0x7d
    1724:	4d13      	ldr	r5, [pc, #76]	; (1774 <enemies+0x2f4>)
    1726:	47a8      	blx	r5
    1728:	4a0f      	ldr	r2, [pc, #60]	; (1768 <enemies+0x2e8>)
    172a:	6953      	ldr	r3, [r2, #20]
    172c:	3332      	adds	r3, #50	; 0x32
    172e:	6153      	str	r3, [r2, #20]
    1730:	22fa      	movs	r2, #250	; 0xfa
    1732:	b2f8      	uxtb	r0, r7
    1734:	0092      	lsls	r2, r2, #2
    1736:	e7df      	b.n	16f8 <enemies+0x278>
    1738:	2296      	movs	r2, #150	; 0x96
    173a:	b2f8      	uxtb	r0, r7
    173c:	0052      	lsls	r2, r2, #1
    173e:	2132      	movs	r1, #50	; 0x32
    1740:	e7db      	b.n	16fa <enemies+0x27a>
    1742:	46c0      	nop			; (mov r8, r8)
    1744:	20000740 	.word	0x20000740
    1748:	0000061d 	.word	0x0000061d
    174c:	20000008 	.word	0x20000008
    1750:	20000847 	.word	0x20000847
    1754:	20000727 	.word	0x20000727
    1758:	200005f0 	.word	0x200005f0
    175c:	00001401 	.word	0x00001401
    1760:	00000ba1 	.word	0x00000ba1
    1764:	20000600 	.word	0x20000600
    1768:	20000060 	.word	0x20000060
    176c:	20000841 	.word	0x20000841
    1770:	200005e8 	.word	0x200005e8
    1774:	00000415 	.word	0x00000415
    1778:	000005dc 	.word	0x000005dc
    177c:	00000935 	.word	0x00000935
    1780:	00002e00 	.word	0x00002e00
    1784:	4bc1      	ldr	r3, [pc, #772]	; (1a8c <enemies+0x60c>)
    1786:	b2f8      	uxtb	r0, r7
    1788:	4798      	blx	r3
    178a:	79a3      	ldrb	r3, [r4, #6]
    178c:	3301      	adds	r3, #1
    178e:	b25b      	sxtb	r3, r3
    1790:	2b34      	cmp	r3, #52	; 0x34
    1792:	dc10      	bgt.n	17b6 <enemies+0x336>
    1794:	71a3      	strb	r3, [r4, #6]
    1796:	9b03      	ldr	r3, [sp, #12]
    1798:	2b00      	cmp	r3, #0
    179a:	d100      	bne.n	179e <enemies+0x31e>
    179c:	e71d      	b.n	15da <enemies+0x15a>
    179e:	2380      	movs	r3, #128	; 0x80
    17a0:	2196      	movs	r1, #150	; 0x96
    17a2:	20af      	movs	r0, #175	; 0xaf
    17a4:	71a3      	strb	r3, [r4, #6]
    17a6:	7133      	strb	r3, [r6, #4]
    17a8:	2209      	movs	r2, #9
    17aa:	3b81      	subs	r3, #129	; 0x81
    17ac:	0049      	lsls	r1, r1, #1
    17ae:	0080      	lsls	r0, r0, #2
    17b0:	4db7      	ldr	r5, [pc, #732]	; (1a90 <enemies+0x610>)
    17b2:	47a8      	blx	r5
    17b4:	e711      	b.n	15da <enemies+0x15a>
    17b6:	71a5      	strb	r5, [r4, #6]
    17b8:	e7ed      	b.n	1796 <enemies+0x316>
    17ba:	4bb4      	ldr	r3, [pc, #720]	; (1a8c <enemies+0x60c>)
    17bc:	b2f8      	uxtb	r0, r7
    17be:	4798      	blx	r3
    17c0:	79a3      	ldrb	r3, [r4, #6]
    17c2:	3301      	adds	r3, #1
    17c4:	b25b      	sxtb	r3, r3
    17c6:	71a3      	strb	r3, [r4, #6]
    17c8:	2b34      	cmp	r3, #52	; 0x34
    17ca:	dde4      	ble.n	1796 <enemies+0x316>
    17cc:	2196      	movs	r1, #150	; 0x96
    17ce:	20fa      	movs	r0, #250	; 0xfa
    17d0:	2301      	movs	r3, #1
    17d2:	2208      	movs	r2, #8
    17d4:	0049      	lsls	r1, r1, #1
    17d6:	00c0      	lsls	r0, r0, #3
    17d8:	4dad      	ldr	r5, [pc, #692]	; (1a90 <enemies+0x610>)
    17da:	47a8      	blx	r5
    17dc:	2380      	movs	r3, #128	; 0x80
    17de:	88a0      	ldrh	r0, [r4, #4]
    17e0:	71a3      	strb	r3, [r4, #6]
    17e2:	3808      	subs	r0, #8
    17e4:	b200      	sxth	r0, r0
    17e6:	2104      	movs	r1, #4
    17e8:	4baa      	ldr	r3, [pc, #680]	; (1a94 <enemies+0x614>)
    17ea:	4798      	blx	r3
    17ec:	e7d3      	b.n	1796 <enemies+0x316>
    17ee:	4baa      	ldr	r3, [pc, #680]	; (1a98 <enemies+0x618>)
    17f0:	885b      	ldrh	r3, [r3, #2]
    17f2:	071b      	lsls	r3, r3, #28
    17f4:	d511      	bpl.n	181a <enemies+0x39a>
    17f6:	2301      	movs	r3, #1
    17f8:	7223      	strb	r3, [r4, #8]
    17fa:	2309      	movs	r3, #9
    17fc:	88a2      	ldrh	r2, [r4, #4]
    17fe:	56e3      	ldrsb	r3, [r4, r3]
    1800:	189b      	adds	r3, r3, r2
    1802:	b21b      	sxth	r3, r3
    1804:	80a3      	strh	r3, [r4, #4]
    1806:	2b00      	cmp	r3, #0
    1808:	dc09      	bgt.n	181e <enemies+0x39e>
    180a:	2301      	movs	r3, #1
    180c:	7263      	strb	r3, [r4, #9]
    180e:	89e3      	ldrh	r3, [r4, #14]
    1810:	2b00      	cmp	r3, #0
    1812:	d100      	bne.n	1816 <enemies+0x396>
    1814:	e6e1      	b.n	15da <enemies+0x15a>
    1816:	3b01      	subs	r3, #1
    1818:	e759      	b.n	16ce <enemies+0x24e>
    181a:	23ff      	movs	r3, #255	; 0xff
    181c:	e7ec      	b.n	17f8 <enemies+0x378>
    181e:	2b6f      	cmp	r3, #111	; 0x6f
    1820:	ddf5      	ble.n	180e <enemies+0x38e>
    1822:	23ff      	movs	r3, #255	; 0xff
    1824:	e7f2      	b.n	180c <enemies+0x38c>
    1826:	4b9c      	ldr	r3, [pc, #624]	; (1a98 <enemies+0x618>)
    1828:	885b      	ldrh	r3, [r3, #2]
    182a:	071b      	lsls	r3, r3, #28
    182c:	d548      	bpl.n	18c0 <enemies+0x440>
    182e:	2301      	movs	r3, #1
    1830:	2009      	movs	r0, #9
    1832:	7223      	strb	r3, [r4, #8]
    1834:	5620      	ldrsb	r0, [r4, r0]
    1836:	88a3      	ldrh	r3, [r4, #4]
    1838:	18c0      	adds	r0, r0, r3
    183a:	b280      	uxth	r0, r0
    183c:	b202      	sxth	r2, r0
    183e:	80a2      	strh	r2, [r4, #4]
    1840:	2301      	movs	r3, #1
    1842:	2a00      	cmp	r2, #0
    1844:	dd02      	ble.n	184c <enemies+0x3cc>
    1846:	2a6f      	cmp	r2, #111	; 0x6f
    1848:	dd01      	ble.n	184e <enemies+0x3ce>
    184a:	23ff      	movs	r3, #255	; 0xff
    184c:	7263      	strb	r3, [r4, #9]
    184e:	89e3      	ldrh	r3, [r4, #14]
    1850:	2b00      	cmp	r3, #0
    1852:	d117      	bne.n	1884 <enemies+0x404>
    1854:	78f3      	ldrb	r3, [r6, #3]
    1856:	2b56      	cmp	r3, #86	; 0x56
    1858:	d934      	bls.n	18c4 <enemies+0x444>
    185a:	3304      	adds	r3, #4
    185c:	429a      	cmp	r2, r3
    185e:	d111      	bne.n	1884 <enemies+0x404>
    1860:	4b8e      	ldr	r3, [pc, #568]	; (1a9c <enemies+0x61c>)
    1862:	3108      	adds	r1, #8
    1864:	781b      	ldrb	r3, [r3, #0]
    1866:	3004      	adds	r0, #4
    1868:	81e3      	strh	r3, [r4, #14]
    186a:	b249      	sxtb	r1, r1
    186c:	b240      	sxtb	r0, r0
    186e:	2290      	movs	r2, #144	; 0x90
    1870:	4b8b      	ldr	r3, [pc, #556]	; (1aa0 <enemies+0x620>)
    1872:	4798      	blx	r3
    1874:	2301      	movs	r3, #1
    1876:	2096      	movs	r0, #150	; 0x96
    1878:	425b      	negs	r3, r3
    187a:	220a      	movs	r2, #10
    187c:	2164      	movs	r1, #100	; 0x64
    187e:	0080      	lsls	r0, r0, #2
    1880:	4d83      	ldr	r5, [pc, #524]	; (1a90 <enemies+0x610>)
    1882:	47a8      	blx	r5
    1884:	78f0      	ldrb	r0, [r6, #3]
    1886:	2304      	movs	r3, #4
    1888:	5ee2      	ldrsh	r2, [r4, r3]
    188a:	0003      	movs	r3, r0
    188c:	3328      	adds	r3, #40	; 0x28
    188e:	429a      	cmp	r2, r3
    1890:	d1bd      	bne.n	180e <enemies+0x38e>
    1892:	89e3      	ldrh	r3, [r4, #14]
    1894:	2b00      	cmp	r3, #0
    1896:	d1ba      	bne.n	180e <enemies+0x38e>
    1898:	4b80      	ldr	r3, [pc, #512]	; (1a9c <enemies+0x61c>)
    189a:	79a1      	ldrb	r1, [r4, #6]
    189c:	781b      	ldrb	r3, [r3, #0]
    189e:	3108      	adds	r1, #8
    18a0:	302c      	adds	r0, #44	; 0x2c
    18a2:	81e3      	strh	r3, [r4, #14]
    18a4:	b249      	sxtb	r1, r1
    18a6:	b240      	sxtb	r0, r0
    18a8:	2290      	movs	r2, #144	; 0x90
    18aa:	4b7d      	ldr	r3, [pc, #500]	; (1aa0 <enemies+0x620>)
    18ac:	4798      	blx	r3
    18ae:	2301      	movs	r3, #1
    18b0:	2096      	movs	r0, #150	; 0x96
    18b2:	425b      	negs	r3, r3
    18b4:	220a      	movs	r2, #10
    18b6:	2164      	movs	r1, #100	; 0x64
    18b8:	0080      	lsls	r0, r0, #2
    18ba:	4d75      	ldr	r5, [pc, #468]	; (1a90 <enemies+0x610>)
    18bc:	47a8      	blx	r5
    18be:	e7a6      	b.n	180e <enemies+0x38e>
    18c0:	23ff      	movs	r3, #255	; 0xff
    18c2:	e7b5      	b.n	1830 <enemies+0x3b0>
    18c4:	3328      	adds	r3, #40	; 0x28
    18c6:	e7c9      	b.n	185c <enemies+0x3dc>
    18c8:	23ff      	movs	r3, #255	; 0xff
    18ca:	e6da      	b.n	1682 <enemies+0x202>
    18cc:	2308      	movs	r3, #8
    18ce:	77ab      	strb	r3, [r5, #30]
    18d0:	886b      	ldrh	r3, [r5, #2]
    18d2:	07db      	lsls	r3, r3, #31
    18d4:	d400      	bmi.n	18d8 <enemies+0x458>
    18d6:	e680      	b.n	15da <enemies+0x15a>
    18d8:	3101      	adds	r1, #1
    18da:	b249      	sxtb	r1, r1
    18dc:	71a1      	strb	r1, [r4, #6]
    18de:	2924      	cmp	r1, #36	; 0x24
    18e0:	d000      	beq.n	18e4 <enemies+0x464>
    18e2:	e67a      	b.n	15da <enemies+0x15a>
    18e4:	2302      	movs	r3, #2
    18e6:	2007      	movs	r0, #7
    18e8:	72a3      	strb	r3, [r4, #10]
    18ea:	4b6e      	ldr	r3, [pc, #440]	; (1aa4 <enemies+0x624>)
    18ec:	4798      	blx	r3
    18ee:	2307      	movs	r3, #7
    18f0:	4358      	muls	r0, r3
    18f2:	301e      	adds	r0, #30
    18f4:	81e0      	strh	r0, [r4, #14]
    18f6:	3358      	adds	r3, #88	; 0x58
    18f8:	77eb      	strb	r3, [r5, #31]
    18fa:	e66e      	b.n	15da <enemies+0x15a>
    18fc:	7feb      	ldrb	r3, [r5, #31]
    18fe:	3301      	adds	r3, #1
    1900:	b2db      	uxtb	r3, r3
    1902:	2b80      	cmp	r3, #128	; 0x80
    1904:	d01a      	beq.n	193c <enemies+0x4bc>
    1906:	77eb      	strb	r3, [r5, #31]
    1908:	7feb      	ldrb	r3, [r5, #31]
    190a:	4a67      	ldr	r2, [pc, #412]	; (1aa8 <enemies+0x628>)
    190c:	56d2      	ldrsb	r2, [r2, r3]
    190e:	2324      	movs	r3, #36	; 0x24
    1910:	1092      	asrs	r2, r2, #2
    1912:	1a9b      	subs	r3, r3, r2
    1914:	71a3      	strb	r3, [r4, #6]
    1916:	89e3      	ldrh	r3, [r4, #14]
    1918:	3b01      	subs	r3, #1
    191a:	b29b      	uxth	r3, r3
    191c:	81e3      	strh	r3, [r4, #14]
    191e:	2b00      	cmp	r3, #0
    1920:	d000      	beq.n	1924 <enemies+0x4a4>
    1922:	e65a      	b.n	15da <enemies+0x15a>
    1924:	2003      	movs	r0, #3
    1926:	333c      	adds	r3, #60	; 0x3c
    1928:	81e3      	strh	r3, [r4, #14]
    192a:	72a0      	strb	r0, [r4, #10]
    192c:	4b5d      	ldr	r3, [pc, #372]	; (1aa4 <enemies+0x624>)
    192e:	4798      	blx	r3
    1930:	4b5e      	ldr	r3, [pc, #376]	; (1aac <enemies+0x62c>)
    1932:	781b      	ldrb	r3, [r3, #0]
    1934:	3305      	adds	r3, #5
    1936:	18c0      	adds	r0, r0, r3
    1938:	7320      	strb	r0, [r4, #12]
    193a:	e64e      	b.n	15da <enemies+0x15a>
    193c:	2300      	movs	r3, #0
    193e:	e7e2      	b.n	1906 <enemies+0x486>
    1940:	7feb      	ldrb	r3, [r5, #31]
    1942:	3301      	adds	r3, #1
    1944:	b2db      	uxtb	r3, r3
    1946:	2b80      	cmp	r3, #128	; 0x80
    1948:	d024      	beq.n	1994 <enemies+0x514>
    194a:	77eb      	strb	r3, [r5, #31]
    194c:	7feb      	ldrb	r3, [r5, #31]
    194e:	4a56      	ldr	r2, [pc, #344]	; (1aa8 <enemies+0x628>)
    1950:	56d1      	ldrsb	r1, [r2, r3]
    1952:	2324      	movs	r3, #36	; 0x24
    1954:	1089      	asrs	r1, r1, #2
    1956:	b2c9      	uxtb	r1, r1
    1958:	1a5b      	subs	r3, r3, r1
    195a:	71a3      	strb	r3, [r4, #6]
    195c:	89e3      	ldrh	r3, [r4, #14]
    195e:	3b01      	subs	r3, #1
    1960:	b29b      	uxth	r3, r3
    1962:	81e3      	strh	r3, [r4, #14]
    1964:	2b00      	cmp	r3, #0
    1966:	d000      	beq.n	196a <enemies+0x4ea>
    1968:	e637      	b.n	15da <enemies+0x15a>
    196a:	7b23      	ldrb	r3, [r4, #12]
    196c:	3b01      	subs	r3, #1
    196e:	b2db      	uxtb	r3, r3
    1970:	7323      	strb	r3, [r4, #12]
    1972:	2b00      	cmp	r3, #0
    1974:	d010      	beq.n	1998 <enemies+0x518>
    1976:	232c      	movs	r3, #44	; 0x2c
    1978:	88a0      	ldrh	r0, [r4, #4]
    197a:	1a59      	subs	r1, r3, r1
    197c:	300c      	adds	r0, #12
    197e:	2290      	movs	r2, #144	; 0x90
    1980:	4b47      	ldr	r3, [pc, #284]	; (1aa0 <enemies+0x620>)
    1982:	b249      	sxtb	r1, r1
    1984:	b240      	sxtb	r0, r0
    1986:	4798      	blx	r3
    1988:	4b48      	ldr	r3, [pc, #288]	; (1aac <enemies+0x62c>)
    198a:	781b      	ldrb	r3, [r3, #0]
    198c:	009a      	lsls	r2, r3, #2
    198e:	1a9b      	subs	r3, r3, r2
    1990:	335a      	adds	r3, #90	; 0x5a
    1992:	e69c      	b.n	16ce <enemies+0x24e>
    1994:	2300      	movs	r3, #0
    1996:	e7d8      	b.n	194a <enemies+0x4ca>
    1998:	2204      	movs	r2, #4
    199a:	72a2      	strb	r2, [r4, #10]
    199c:	3a02      	subs	r2, #2
    199e:	77aa      	strb	r2, [r5, #30]
    19a0:	3244      	adds	r2, #68	; 0x44
    19a2:	81e2      	strh	r2, [r4, #14]
    19a4:	7263      	strb	r3, [r4, #9]
    19a6:	e618      	b.n	15da <enemies+0x15a>
    19a8:	2908      	cmp	r1, #8
    19aa:	dd09      	ble.n	19c0 <enemies+0x540>
    19ac:	7a63      	ldrb	r3, [r4, #9]
    19ae:	3301      	adds	r3, #1
    19b0:	b25b      	sxtb	r3, r3
    19b2:	7263      	strb	r3, [r4, #9]
    19b4:	2b04      	cmp	r3, #4
    19b6:	d103      	bne.n	19c0 <enemies+0x540>
    19b8:	2300      	movs	r3, #0
    19ba:	3901      	subs	r1, #1
    19bc:	71a1      	strb	r1, [r4, #6]
    19be:	7263      	strb	r3, [r4, #9]
    19c0:	89e3      	ldrh	r3, [r4, #14]
    19c2:	3b01      	subs	r3, #1
    19c4:	b29b      	uxth	r3, r3
    19c6:	81e3      	strh	r3, [r4, #14]
    19c8:	2b00      	cmp	r3, #0
    19ca:	d000      	beq.n	19ce <enemies+0x54e>
    19cc:	e605      	b.n	15da <enemies+0x15a>
    19ce:	3305      	adds	r3, #5
    19d0:	72a3      	strb	r3, [r4, #10]
    19d2:	e602      	b.n	15da <enemies+0x15a>
    19d4:	3103      	adds	r1, #3
    19d6:	b249      	sxtb	r1, r1
    19d8:	2936      	cmp	r1, #54	; 0x36
    19da:	dc01      	bgt.n	19e0 <enemies+0x560>
    19dc:	71a1      	strb	r1, [r4, #6]
    19de:	e5fc      	b.n	15da <enemies+0x15a>
    19e0:	2337      	movs	r3, #55	; 0x37
    19e2:	71a3      	strb	r3, [r4, #6]
    19e4:	3b31      	subs	r3, #49	; 0x31
    19e6:	72a3      	strb	r3, [r4, #10]
    19e8:	3322      	adds	r3, #34	; 0x22
    19ea:	e670      	b.n	16ce <enemies+0x24e>
    19ec:	886b      	ldrh	r3, [r5, #2]
    19ee:	07db      	lsls	r3, r3, #31
    19f0:	d502      	bpl.n	19f8 <enemies+0x578>
    19f2:	88a3      	ldrh	r3, [r4, #4]
    19f4:	3301      	adds	r3, #1
    19f6:	80a3      	strh	r3, [r4, #4]
    19f8:	89e3      	ldrh	r3, [r4, #14]
    19fa:	3b01      	subs	r3, #1
    19fc:	b29b      	uxth	r3, r3
    19fe:	81e3      	strh	r3, [r4, #14]
    1a00:	2b00      	cmp	r3, #0
    1a02:	d000      	beq.n	1a06 <enemies+0x586>
    1a04:	e5e9      	b.n	15da <enemies+0x15a>
    1a06:	3307      	adds	r3, #7
    1a08:	e7e2      	b.n	19d0 <enemies+0x550>
    1a0a:	88a3      	ldrh	r3, [r4, #4]
    1a0c:	3b02      	subs	r3, #2
    1a0e:	b21b      	sxth	r3, r3
    1a10:	80a3      	strh	r3, [r4, #4]
    1a12:	3320      	adds	r3, #32
    1a14:	db00      	blt.n	1a18 <enemies+0x598>
    1a16:	e5e0      	b.n	15da <enemies+0x15a>
    1a18:	2308      	movs	r3, #8
    1a1a:	4e22      	ldr	r6, [pc, #136]	; (1aa4 <enemies+0x624>)
    1a1c:	72a3      	strb	r3, [r4, #10]
    1a1e:	2007      	movs	r0, #7
    1a20:	47b0      	blx	r6
    1a22:	2306      	movs	r3, #6
    1a24:	4358      	muls	r0, r3
    1a26:	3880      	subs	r0, #128	; 0x80
    1a28:	80a0      	strh	r0, [r4, #4]
    1a2a:	2003      	movs	r0, #3
    1a2c:	47b0      	blx	r6
    1a2e:	2303      	movs	r3, #3
    1a30:	4358      	muls	r0, r3
    1a32:	2300      	movs	r3, #0
    1a34:	3008      	adds	r0, #8
    1a36:	7363      	strb	r3, [r4, #13]
    1a38:	3304      	adds	r3, #4
    1a3a:	77ab      	strb	r3, [r5, #30]
    1a3c:	71a0      	strb	r0, [r4, #6]
    1a3e:	331a      	adds	r3, #26
    1a40:	e645      	b.n	16ce <enemies+0x24e>
    1a42:	2304      	movs	r3, #4
    1a44:	5ee0      	ldrsh	r0, [r4, r3]
    1a46:	2800      	cmp	r0, #0
    1a48:	dd12      	ble.n	1a70 <enemies+0x5f0>
    1a4a:	89e3      	ldrh	r3, [r4, #14]
    1a4c:	3b01      	subs	r3, #1
    1a4e:	b29b      	uxth	r3, r3
    1a50:	81e3      	strh	r3, [r4, #14]
    1a52:	2b00      	cmp	r3, #0
    1a54:	d10c      	bne.n	1a70 <enemies+0x5f0>
    1a56:	3108      	adds	r1, #8
    1a58:	300c      	adds	r0, #12
    1a5a:	2280      	movs	r2, #128	; 0x80
    1a5c:	4b10      	ldr	r3, [pc, #64]	; (1aa0 <enemies+0x620>)
    1a5e:	b249      	sxtb	r1, r1
    1a60:	b240      	sxtb	r0, r0
    1a62:	4798      	blx	r3
    1a64:	4b11      	ldr	r3, [pc, #68]	; (1aac <enemies+0x62c>)
    1a66:	781a      	ldrb	r2, [r3, #0]
    1a68:	230a      	movs	r3, #10
    1a6a:	1a9b      	subs	r3, r3, r2
    1a6c:	009b      	lsls	r3, r3, #2
    1a6e:	81e3      	strh	r3, [r4, #14]
    1a70:	88a3      	ldrh	r3, [r4, #4]
    1a72:	3301      	adds	r3, #1
    1a74:	b21b      	sxth	r3, r3
    1a76:	80a3      	strh	r3, [r4, #4]
    1a78:	2b5e      	cmp	r3, #94	; 0x5e
    1a7a:	dc00      	bgt.n	1a7e <enemies+0x5fe>
    1a7c:	e5ad      	b.n	15da <enemies+0x15a>
    1a7e:	2301      	movs	r3, #1
    1a80:	18ed      	adds	r5, r5, r3
    1a82:	72a3      	strb	r3, [r4, #10]
    1a84:	7feb      	ldrb	r3, [r5, #31]
    1a86:	3301      	adds	r3, #1
    1a88:	e736      	b.n	18f8 <enemies+0x478>
    1a8a:	46c0      	nop			; (mov r8, r8)
    1a8c:	00000901 	.word	0x00000901
    1a90:	00000415 	.word	0x00000415
    1a94:	00000a21 	.word	0x00000a21
    1a98:	20000060 	.word	0x20000060
    1a9c:	20000724 	.word	0x20000724
    1aa0:	00000aad 	.word	0x00000aad
    1aa4:	00000445 	.word	0x00000445
    1aa8:	00003680 	.word	0x00003680
    1aac:	20000705 	.word	0x20000705

00001ab0 <drawTimeDigit>:
    1ab0:	b5f7      	push	{r0, r1, r2, r4, r5, r6, r7, lr}
    1ab2:	0013      	movs	r3, r2
    1ab4:	2203      	movs	r2, #3
    1ab6:	2601      	movs	r6, #1
    1ab8:	2720      	movs	r7, #32
    1aba:	435a      	muls	r2, r3
    1abc:	0149      	lsls	r1, r1, #5
    1abe:	b2d2      	uxtb	r2, r2
    1ac0:	1808      	adds	r0, r1, r0
    1ac2:	1cd3      	adds	r3, r2, #3
    1ac4:	b2c0      	uxtb	r0, r0
    1ac6:	b2db      	uxtb	r3, r3
    1ac8:	9301      	str	r3, [sp, #4]
    1aca:	1a80      	subs	r0, r0, r2
    1acc:	4b0d      	ldr	r3, [pc, #52]	; (1b04 <drawTimeDigit+0x54>)
    1ace:	0094      	lsls	r4, r2, #2
    1ad0:	58e3      	ldr	r3, [r4, r3]
    1ad2:	1811      	adds	r1, r2, r0
    1ad4:	469c      	mov	ip, r3
    1ad6:	2300      	movs	r3, #0
    1ad8:	4c0b      	ldr	r4, [pc, #44]	; (1b08 <drawTimeDigit+0x58>)
    1ada:	b2c9      	uxtb	r1, r1
    1adc:	1861      	adds	r1, r4, r1
    1ade:	4664      	mov	r4, ip
    1ae0:	411c      	asrs	r4, r3
    1ae2:	015d      	lsls	r5, r3, #5
    1ae4:	4234      	tst	r4, r6
    1ae6:	d00a      	beq.n	1afe <drawTimeDigit+0x4e>
    1ae8:	2400      	movs	r4, #0
    1aea:	554c      	strb	r4, [r1, r5]
    1aec:	3301      	adds	r3, #1
    1aee:	2b05      	cmp	r3, #5
    1af0:	d1f5      	bne.n	1ade <drawTimeDigit+0x2e>
    1af2:	3201      	adds	r2, #1
    1af4:	9b01      	ldr	r3, [sp, #4]
    1af6:	b2d2      	uxtb	r2, r2
    1af8:	4293      	cmp	r3, r2
    1afa:	d1e7      	bne.n	1acc <drawTimeDigit+0x1c>
    1afc:	bdf7      	pop	{r0, r1, r2, r4, r5, r6, r7, pc}
    1afe:	554f      	strb	r7, [r1, r5]
    1b00:	e7f4      	b.n	1aec <drawTimeDigit+0x3c>
    1b02:	46c0      	nop			; (mov r8, r8)
    1b04:	00003700 	.word	0x00003700
    1b08:	200005fc 	.word	0x200005fc

00001b0c <cls>:
    1b0c:	2280      	movs	r2, #128	; 0x80
    1b0e:	b510      	push	{r4, lr}
    1b10:	0052      	lsls	r2, r2, #1
    1b12:	2120      	movs	r1, #32
    1b14:	4801      	ldr	r0, [pc, #4]	; (1b1c <cls+0x10>)
    1b16:	4b02      	ldr	r3, [pc, #8]	; (1b20 <cls+0x14>)
    1b18:	4798      	blx	r3
    1b1a:	bd10      	pop	{r4, pc}
    1b1c:	200005fc 	.word	0x200005fc
    1b20:	00002d6f 	.word	0x00002d6f

00001b24 <drawHighScores>:
    1b24:	b5f8      	push	{r3, r4, r5, r6, r7, lr}
    1b26:	4b18      	ldr	r3, [pc, #96]	; (1b88 <drawHighScores+0x64>)
    1b28:	4798      	blx	r3
    1b2a:	2100      	movs	r1, #0
    1b2c:	4b17      	ldr	r3, [pc, #92]	; (1b8c <drawHighScores+0x68>)
    1b2e:	0008      	movs	r0, r1
    1b30:	4798      	blx	r3
    1b32:	233c      	movs	r3, #60	; 0x3c
    1b34:	4d16      	ldr	r5, [pc, #88]	; (1b90 <drawHighScores+0x6c>)
    1b36:	4917      	ldr	r1, [pc, #92]	; (1b94 <drawHighScores+0x70>)
    1b38:	702b      	strb	r3, [r5, #0]
    1b3a:	3302      	adds	r3, #2
    1b3c:	73eb      	strb	r3, [r5, #15]
    1b3e:	4816      	ldr	r0, [pc, #88]	; (1b98 <drawHighScores+0x74>)
    1b40:	4b16      	ldr	r3, [pc, #88]	; (1b9c <drawHighScores+0x78>)
    1b42:	4798      	blx	r3
    1b44:	2400      	movs	r4, #0
    1b46:	2603      	movs	r6, #3
    1b48:	0030      	movs	r0, r6
    1b4a:	b2e3      	uxtb	r3, r4
    1b4c:	1c99      	adds	r1, r3, #2
    1b4e:	0149      	lsls	r1, r1, #5
    1b50:	4360      	muls	r0, r4
    1b52:	3331      	adds	r3, #49	; 0x31
    1b54:	b2c9      	uxtb	r1, r1
    1b56:	546b      	strb	r3, [r5, r1]
    1b58:	4b11      	ldr	r3, [pc, #68]	; (1ba0 <drawHighScores+0x7c>)
    1b5a:	18c0      	adds	r0, r0, r3
    1b5c:	2300      	movs	r3, #0
    1b5e:	18ca      	adds	r2, r1, r3
    1b60:	5cc7      	ldrb	r7, [r0, r3]
    1b62:	18aa      	adds	r2, r5, r2
    1b64:	3301      	adds	r3, #1
    1b66:	7097      	strb	r7, [r2, #2]
    1b68:	2b03      	cmp	r3, #3
    1b6a:	d1f8      	bne.n	1b5e <drawHighScores+0x3a>
    1b6c:	4a0d      	ldr	r2, [pc, #52]	; (1ba4 <drawHighScores+0x80>)
    1b6e:	00a3      	lsls	r3, r4, #2
    1b70:	3106      	adds	r1, #6
    1b72:	58d0      	ldr	r0, [r2, r3]
    1b74:	1869      	adds	r1, r5, r1
    1b76:	4b0c      	ldr	r3, [pc, #48]	; (1ba8 <drawHighScores+0x84>)
    1b78:	3401      	adds	r4, #1
    1b7a:	4798      	blx	r3
    1b7c:	2c06      	cmp	r4, #6
    1b7e:	d1e3      	bne.n	1b48 <drawHighScores+0x24>
    1b80:	2201      	movs	r2, #1
    1b82:	4b0a      	ldr	r3, [pc, #40]	; (1bac <drawHighScores+0x88>)
    1b84:	701a      	strb	r2, [r3, #0]
    1b86:	bdf8      	pop	{r3, r4, r5, r6, r7, pc}
    1b88:	00001b0d 	.word	0x00001b0d
    1b8c:	000005d1 	.word	0x000005d1
    1b90:	200005fc 	.word	0x200005fc
    1b94:	200005ff 	.word	0x200005ff
    1b98:	00003cd7 	.word	0x00003cd7
    1b9c:	000013f1 	.word	0x000013f1
    1ba0:	20000728 	.word	0x20000728
    1ba4:	20000708 	.word	0x20000708
    1ba8:	0000138d 	.word	0x0000138d
    1bac:	20000845 	.word	0x20000845

00001bb0 <drawOptions>:
    1bb0:	b510      	push	{r4, lr}
    1bb2:	4b1a      	ldr	r3, [pc, #104]	; (1c1c <drawOptions+0x6c>)
    1bb4:	4798      	blx	r3
    1bb6:	2100      	movs	r1, #0
    1bb8:	4b19      	ldr	r3, [pc, #100]	; (1c20 <drawOptions+0x70>)
    1bba:	0008      	movs	r0, r1
    1bbc:	4798      	blx	r3
    1bbe:	223c      	movs	r2, #60	; 0x3c
    1bc0:	4b18      	ldr	r3, [pc, #96]	; (1c24 <drawOptions+0x74>)
    1bc2:	4c19      	ldr	r4, [pc, #100]	; (1c28 <drawOptions+0x78>)
    1bc4:	701a      	strb	r2, [r3, #0]
    1bc6:	4919      	ldr	r1, [pc, #100]	; (1c2c <drawOptions+0x7c>)
    1bc8:	3202      	adds	r2, #2
    1bca:	4819      	ldr	r0, [pc, #100]	; (1c30 <drawOptions+0x80>)
    1bcc:	73da      	strb	r2, [r3, #15]
    1bce:	47a0      	blx	r4
    1bd0:	4918      	ldr	r1, [pc, #96]	; (1c34 <drawOptions+0x84>)
    1bd2:	4819      	ldr	r0, [pc, #100]	; (1c38 <drawOptions+0x88>)
    1bd4:	47a0      	blx	r4
    1bd6:	4919      	ldr	r1, [pc, #100]	; (1c3c <drawOptions+0x8c>)
    1bd8:	4819      	ldr	r0, [pc, #100]	; (1c40 <drawOptions+0x90>)
    1bda:	47a0      	blx	r4
    1bdc:	4919      	ldr	r1, [pc, #100]	; (1c44 <drawOptions+0x94>)
    1bde:	481a      	ldr	r0, [pc, #104]	; (1c48 <drawOptions+0x98>)
    1be0:	47a0      	blx	r4
    1be2:	491a      	ldr	r1, [pc, #104]	; (1c4c <drawOptions+0x9c>)
    1be4:	481a      	ldr	r0, [pc, #104]	; (1c50 <drawOptions+0xa0>)
    1be6:	47a0      	blx	r4
    1be8:	491a      	ldr	r1, [pc, #104]	; (1c54 <drawOptions+0xa4>)
    1bea:	481b      	ldr	r0, [pc, #108]	; (1c58 <drawOptions+0xa8>)
    1bec:	47a0      	blx	r4
    1bee:	491b      	ldr	r1, [pc, #108]	; (1c5c <drawOptions+0xac>)
    1bf0:	481b      	ldr	r0, [pc, #108]	; (1c60 <drawOptions+0xb0>)
    1bf2:	47a0      	blx	r4
    1bf4:	4b1b      	ldr	r3, [pc, #108]	; (1c64 <drawOptions+0xb4>)
    1bf6:	781b      	ldrb	r3, [r3, #0]
    1bf8:	071b      	lsls	r3, r3, #28
    1bfa:	d50e      	bpl.n	1c1a <drawOptions+0x6a>
    1bfc:	4c1a      	ldr	r4, [pc, #104]	; (1c68 <drawOptions+0xb8>)
    1bfe:	7823      	ldrb	r3, [r4, #0]
    1c00:	2b7f      	cmp	r3, #127	; 0x7f
    1c02:	d902      	bls.n	1c0a <drawOptions+0x5a>
    1c04:	20ff      	movs	r0, #255	; 0xff
    1c06:	4b19      	ldr	r3, [pc, #100]	; (1c6c <drawOptions+0xbc>)
    1c08:	4798      	blx	r3
    1c0a:	7823      	ldrb	r3, [r4, #0]
    1c0c:	069b      	lsls	r3, r3, #26
    1c0e:	d504      	bpl.n	1c1a <drawOptions+0x6a>
    1c10:	4b17      	ldr	r3, [pc, #92]	; (1c70 <drawOptions+0xc0>)
    1c12:	20ff      	movs	r0, #255	; 0xff
    1c14:	4798      	blx	r3
    1c16:	4b17      	ldr	r3, [pc, #92]	; (1c74 <drawOptions+0xc4>)
    1c18:	7618      	strb	r0, [r3, #24]
    1c1a:	bd10      	pop	{r4, pc}
    1c1c:	00001b0d 	.word	0x00001b0d
    1c20:	000005d1 	.word	0x000005d1
    1c24:	200005fc 	.word	0x200005fc
    1c28:	000013f1 	.word	0x000013f1
    1c2c:	20000601 	.word	0x20000601
    1c30:	00003ce2 	.word	0x00003ce2
    1c34:	2000061c 	.word	0x2000061c
    1c38:	00003cea 	.word	0x00003cea
    1c3c:	2000063d 	.word	0x2000063d
    1c40:	00003ced 	.word	0x00003ced
    1c44:	2000065d 	.word	0x2000065d
    1c48:	00003cfd 	.word	0x00003cfd
    1c4c:	2000067d 	.word	0x2000067d
    1c50:	00003d07 	.word	0x00003d07
    1c54:	2000069d 	.word	0x2000069d
    1c58:	00003d13 	.word	0x00003d13
    1c5c:	200006dc 	.word	0x200006dc
    1c60:	00003d1b 	.word	0x00003d1b
    1c64:	20000703 	.word	0x20000703
    1c68:	2000073e 	.word	0x2000073e
    1c6c:	0000079d 	.word	0x0000079d
    1c70:	00000765 	.word	0x00000765
    1c74:	20000060 	.word	0x20000060

00001c78 <drawTime>:
    1c78:	b5f8      	push	{r3, r4, r5, r6, r7, lr}
    1c7a:	4b49      	ldr	r3, [pc, #292]	; (1da0 <drawTime+0x128>)
    1c7c:	4798      	blx	r3
    1c7e:	2100      	movs	r1, #0
    1c80:	4b48      	ldr	r3, [pc, #288]	; (1da4 <drawTime+0x12c>)
    1c82:	0008      	movs	r0, r1
    1c84:	4798      	blx	r3
    1c86:	4c48      	ldr	r4, [pc, #288]	; (1da8 <drawTime+0x130>)
    1c88:	4e48      	ldr	r6, [pc, #288]	; (1dac <drawTime+0x134>)
    1c8a:	7b65      	ldrb	r5, [r4, #13]
    1c8c:	7b63      	ldrb	r3, [r4, #13]
    1c8e:	b2ed      	uxtb	r5, r5
    1c90:	2b09      	cmp	r3, #9
    1c92:	d903      	bls.n	1c9c <drawTime+0x24>
    1c94:	2201      	movs	r2, #1
    1c96:	2103      	movs	r1, #3
    1c98:	2000      	movs	r0, #0
    1c9a:	47b0      	blx	r6
    1c9c:	4b44      	ldr	r3, [pc, #272]	; (1db0 <drawTime+0x138>)
    1c9e:	0028      	movs	r0, r5
    1ca0:	210a      	movs	r1, #10
    1ca2:	4798      	blx	r3
    1ca4:	b2ca      	uxtb	r2, r1
    1ca6:	2103      	movs	r1, #3
    1ca8:	0008      	movs	r0, r1
    1caa:	47b0      	blx	r6
    1cac:	4d41      	ldr	r5, [pc, #260]	; (1db4 <drawTime+0x13c>)
    1cae:	1cab      	adds	r3, r5, #2
    1cb0:	7fdb      	ldrb	r3, [r3, #31]
    1cb2:	07db      	lsls	r3, r3, #31
    1cb4:	d503      	bpl.n	1cbe <drawTime+0x46>
    1cb6:	220a      	movs	r2, #10
    1cb8:	2103      	movs	r1, #3
    1cba:	2007      	movs	r0, #7
    1cbc:	47b0      	blx	r6
    1cbe:	7ba7      	ldrb	r7, [r4, #14]
    1cc0:	2200      	movs	r2, #0
    1cc2:	b2ff      	uxtb	r7, r7
    1cc4:	2f09      	cmp	r7, #9
    1cc6:	d904      	bls.n	1cd2 <drawTime+0x5a>
    1cc8:	210a      	movs	r1, #10
    1cca:	0038      	movs	r0, r7
    1ccc:	4b3a      	ldr	r3, [pc, #232]	; (1db8 <drawTime+0x140>)
    1cce:	4798      	blx	r3
    1cd0:	b2c2      	uxtb	r2, r0
    1cd2:	2103      	movs	r1, #3
    1cd4:	2009      	movs	r0, #9
    1cd6:	47b0      	blx	r6
    1cd8:	4b35      	ldr	r3, [pc, #212]	; (1db0 <drawTime+0x138>)
    1cda:	210a      	movs	r1, #10
    1cdc:	0038      	movs	r0, r7
    1cde:	4798      	blx	r3
    1ce0:	200d      	movs	r0, #13
    1ce2:	b2ca      	uxtb	r2, r1
    1ce4:	2103      	movs	r1, #3
    1ce6:	47b0      	blx	r6
    1ce8:	8a2b      	ldrh	r3, [r5, #16]
    1cea:	2b00      	cmp	r3, #0
    1cec:	d039      	beq.n	1d62 <drawTime+0xea>
    1cee:	223c      	movs	r2, #60	; 0x3c
    1cf0:	3b01      	subs	r3, #1
    1cf2:	822b      	strh	r3, [r5, #16]
    1cf4:	4b31      	ldr	r3, [pc, #196]	; (1dbc <drawTime+0x144>)
    1cf6:	701a      	strb	r2, [r3, #0]
    1cf8:	3202      	adds	r2, #2
    1cfa:	73da      	strb	r2, [r3, #15]
    1cfc:	1ceb      	adds	r3, r5, #3
    1cfe:	7fdb      	ldrb	r3, [r3, #31]
    1d00:	2b01      	cmp	r3, #1
    1d02:	d034      	beq.n	1d6e <drawTime+0xf6>
    1d04:	2b00      	cmp	r3, #0
    1d06:	d02d      	beq.n	1d64 <drawTime+0xec>
    1d08:	2b02      	cmp	r3, #2
    1d0a:	d033      	beq.n	1d74 <drawTime+0xfc>
    1d0c:	1cee      	adds	r6, r5, #3
    1d0e:	7ff3      	ldrb	r3, [r6, #31]
    1d10:	2b00      	cmp	r3, #0
    1d12:	d026      	beq.n	1d62 <drawTime+0xea>
    1d14:	4b2a      	ldr	r3, [pc, #168]	; (1dc0 <drawTime+0x148>)
    1d16:	492b      	ldr	r1, [pc, #172]	; (1dc4 <drawTime+0x14c>)
    1d18:	482b      	ldr	r0, [pc, #172]	; (1dc8 <drawTime+0x150>)
    1d1a:	4798      	blx	r3
    1d1c:	4b2b      	ldr	r3, [pc, #172]	; (1dcc <drawTime+0x154>)
    1d1e:	781a      	ldrb	r2, [r3, #0]
    1d20:	b253      	sxtb	r3, r2
    1d22:	2b00      	cmp	r3, #0
    1d24:	da0c      	bge.n	1d40 <drawTime+0xc8>
    1d26:	2396      	movs	r3, #150	; 0x96
    1d28:	7ff1      	ldrb	r1, [r6, #31]
    1d2a:	005b      	lsls	r3, r3, #1
    1d2c:	822b      	strh	r3, [r5, #16]
    1d2e:	2901      	cmp	r1, #1
    1d30:	d123      	bne.n	1d7a <drawTime+0x102>
    1d32:	7b63      	ldrb	r3, [r4, #13]
    1d34:	3301      	adds	r3, #1
    1d36:	b2db      	uxtb	r3, r3
    1d38:	7363      	strb	r3, [r4, #13]
    1d3a:	2b0d      	cmp	r3, #13
    1d3c:	d100      	bne.n	1d40 <drawTime+0xc8>
    1d3e:	7361      	strb	r1, [r4, #13]
    1d40:	0653      	lsls	r3, r2, #25
    1d42:	d50e      	bpl.n	1d62 <drawTime+0xea>
    1d44:	2396      	movs	r3, #150	; 0x96
    1d46:	005b      	lsls	r3, r3, #1
    1d48:	822b      	strh	r3, [r5, #16]
    1d4a:	3503      	adds	r5, #3
    1d4c:	7feb      	ldrb	r3, [r5, #31]
    1d4e:	2b01      	cmp	r3, #1
    1d50:	d11c      	bne.n	1d8c <drawTime+0x114>
    1d52:	7b63      	ldrb	r3, [r4, #13]
    1d54:	3b01      	subs	r3, #1
    1d56:	b2db      	uxtb	r3, r3
    1d58:	7363      	strb	r3, [r4, #13]
    1d5a:	2b00      	cmp	r3, #0
    1d5c:	d101      	bne.n	1d62 <drawTime+0xea>
    1d5e:	330c      	adds	r3, #12
    1d60:	7363      	strb	r3, [r4, #13]
    1d62:	bdf8      	pop	{r3, r4, r5, r6, r7, pc}
    1d64:	4917      	ldr	r1, [pc, #92]	; (1dc4 <drawTime+0x14c>)
    1d66:	481a      	ldr	r0, [pc, #104]	; (1dd0 <drawTime+0x158>)
    1d68:	4b15      	ldr	r3, [pc, #84]	; (1dc0 <drawTime+0x148>)
    1d6a:	4798      	blx	r3
    1d6c:	e7ce      	b.n	1d0c <drawTime+0x94>
    1d6e:	4919      	ldr	r1, [pc, #100]	; (1dd4 <drawTime+0x15c>)
    1d70:	4819      	ldr	r0, [pc, #100]	; (1dd8 <drawTime+0x160>)
    1d72:	e7f9      	b.n	1d68 <drawTime+0xf0>
    1d74:	4919      	ldr	r1, [pc, #100]	; (1ddc <drawTime+0x164>)
    1d76:	481a      	ldr	r0, [pc, #104]	; (1de0 <drawTime+0x168>)
    1d78:	e7f6      	b.n	1d68 <drawTime+0xf0>
    1d7a:	7ba3      	ldrb	r3, [r4, #14]
    1d7c:	3301      	adds	r3, #1
    1d7e:	b2db      	uxtb	r3, r3
    1d80:	73a3      	strb	r3, [r4, #14]
    1d82:	2b3c      	cmp	r3, #60	; 0x3c
    1d84:	d1dc      	bne.n	1d40 <drawTime+0xc8>
    1d86:	2300      	movs	r3, #0
    1d88:	73a3      	strb	r3, [r4, #14]
    1d8a:	e7d9      	b.n	1d40 <drawTime+0xc8>
    1d8c:	7ba3      	ldrb	r3, [r4, #14]
    1d8e:	3b01      	subs	r3, #1
    1d90:	b2db      	uxtb	r3, r3
    1d92:	73a3      	strb	r3, [r4, #14]
    1d94:	2bff      	cmp	r3, #255	; 0xff
    1d96:	d1e4      	bne.n	1d62 <drawTime+0xea>
    1d98:	3bc4      	subs	r3, #196	; 0xc4
    1d9a:	73a3      	strb	r3, [r4, #14]
    1d9c:	e7e1      	b.n	1d62 <drawTime+0xea>
    1d9e:	46c0      	nop			; (mov r8, r8)
    1da0:	00001b0d 	.word	0x00001b0d
    1da4:	000005d1 	.word	0x000005d1
    1da8:	20000008 	.word	0x20000008
    1dac:	00001ab1 	.word	0x00001ab1
    1db0:	00002d09 	.word	0x00002d09
    1db4:	20000060 	.word	0x20000060
    1db8:	00002bfd 	.word	0x00002bfd
    1dbc:	200005fc 	.word	0x200005fc
    1dc0:	000013f1 	.word	0x000013f1
    1dc4:	200005fe 	.word	0x200005fe
    1dc8:	00003d4c 	.word	0x00003d4c
    1dcc:	2000073e 	.word	0x2000073e
    1dd0:	00003d2b 	.word	0x00003d2b
    1dd4:	2000063f 	.word	0x2000063f
    1dd8:	00003d38 	.word	0x00003d38
    1ddc:	20000640 	.word	0x20000640
    1de0:	00003d41 	.word	0x00003d41

00001de4 <drawTitle>:
    1de4:	b510      	push	{r4, lr}
    1de6:	4b0e      	ldr	r3, [pc, #56]	; (1e20 <drawTitle+0x3c>)
    1de8:	4798      	blx	r3
    1dea:	2005      	movs	r0, #5
    1dec:	4b0d      	ldr	r3, [pc, #52]	; (1e24 <drawTitle+0x40>)
    1dee:	4798      	blx	r3
    1df0:	2100      	movs	r1, #0
    1df2:	4b0d      	ldr	r3, [pc, #52]	; (1e28 <drawTitle+0x44>)
    1df4:	0008      	movs	r0, r1
    1df6:	4798      	blx	r3
    1df8:	223c      	movs	r2, #60	; 0x3c
    1dfa:	4b0c      	ldr	r3, [pc, #48]	; (1e2c <drawTitle+0x48>)
    1dfc:	4c0c      	ldr	r4, [pc, #48]	; (1e30 <drawTitle+0x4c>)
    1dfe:	701a      	strb	r2, [r3, #0]
    1e00:	490c      	ldr	r1, [pc, #48]	; (1e34 <drawTitle+0x50>)
    1e02:	3202      	adds	r2, #2
    1e04:	480c      	ldr	r0, [pc, #48]	; (1e38 <drawTitle+0x54>)
    1e06:	73da      	strb	r2, [r3, #15]
    1e08:	47a0      	blx	r4
    1e0a:	490c      	ldr	r1, [pc, #48]	; (1e3c <drawTitle+0x58>)
    1e0c:	480c      	ldr	r0, [pc, #48]	; (1e40 <drawTitle+0x5c>)
    1e0e:	47a0      	blx	r4
    1e10:	490c      	ldr	r1, [pc, #48]	; (1e44 <drawTitle+0x60>)
    1e12:	480d      	ldr	r0, [pc, #52]	; (1e48 <drawTitle+0x64>)
    1e14:	47a0      	blx	r4
    1e16:	2201      	movs	r2, #1
    1e18:	4b0c      	ldr	r3, [pc, #48]	; (1e4c <drawTitle+0x68>)
    1e1a:	701a      	strb	r2, [r3, #0]
    1e1c:	bd10      	pop	{r4, pc}
    1e1e:	46c0      	nop			; (mov r8, r8)
    1e20:	00001b0d 	.word	0x00001b0d
    1e24:	0000133d 	.word	0x0000133d
    1e28:	000005d1 	.word	0x000005d1
    1e2c:	200005fc 	.word	0x200005fc
    1e30:	000013f1 	.word	0x000013f1
    1e34:	200005ff 	.word	0x200005ff
    1e38:	00003d55 	.word	0x00003d55
    1e3c:	2000065d 	.word	0x2000065d
    1e40:	00003d60 	.word	0x00003d60
    1e44:	200006de 	.word	0x200006de
    1e48:	00003d6f 	.word	0x00003d6f
    1e4c:	20000845 	.word	0x20000845

00001e50 <drawNameEntryScreen>:
    1e50:	b5f8      	push	{r3, r4, r5, r6, r7, lr}
    1e52:	4b1a      	ldr	r3, [pc, #104]	; (1ebc <drawNameEntryScreen+0x6c>)
    1e54:	4798      	blx	r3
    1e56:	2100      	movs	r1, #0
    1e58:	4b19      	ldr	r3, [pc, #100]	; (1ec0 <drawNameEntryScreen+0x70>)
    1e5a:	0008      	movs	r0, r1
    1e5c:	4798      	blx	r3
    1e5e:	4c19      	ldr	r4, [pc, #100]	; (1ec4 <drawNameEntryScreen+0x74>)
    1e60:	2500      	movs	r5, #0
    1e62:	0020      	movs	r0, r4
    1e64:	4f18      	ldr	r7, [pc, #96]	; (1ec8 <drawNameEntryScreen+0x78>)
    1e66:	2203      	movs	r2, #3
    1e68:	217c      	movs	r1, #124	; 0x7c
    1e6a:	4b18      	ldr	r3, [pc, #96]	; (1ecc <drawNameEntryScreen+0x7c>)
    1e6c:	300f      	adds	r0, #15
    1e6e:	80fd      	strh	r5, [r7, #6]
    1e70:	4798      	blx	r3
    1e72:	4b17      	ldr	r3, [pc, #92]	; (1ed0 <drawNameEntryScreen+0x80>)
    1e74:	4798      	blx	r3
    1e76:	7ae3      	ldrb	r3, [r4, #11]
    1e78:	2bff      	cmp	r3, #255	; 0xff
    1e7a:	d104      	bne.n	1e86 <drawNameEntryScreen+0x36>
    1e7c:	3bf7      	subs	r3, #247	; 0xf7
    1e7e:	7063      	strb	r3, [r4, #1]
    1e80:	4b14      	ldr	r3, [pc, #80]	; (1ed4 <drawNameEntryScreen+0x84>)
    1e82:	701d      	strb	r5, [r3, #0]
    1e84:	bdf8      	pop	{r3, r4, r5, r6, r7, pc}
    1e86:	4914      	ldr	r1, [pc, #80]	; (1ed8 <drawNameEntryScreen+0x88>)
    1e88:	4814      	ldr	r0, [pc, #80]	; (1edc <drawNameEntryScreen+0x8c>)
    1e8a:	4b15      	ldr	r3, [pc, #84]	; (1ee0 <drawNameEntryScreen+0x90>)
    1e8c:	4798      	blx	r3
    1e8e:	7ae3      	ldrb	r3, [r4, #11]
    1e90:	4e14      	ldr	r6, [pc, #80]	; (1ee4 <drawNameEntryScreen+0x94>)
    1e92:	3330      	adds	r3, #48	; 0x30
    1e94:	73b3      	strb	r3, [r6, #14]
    1e96:	4914      	ldr	r1, [pc, #80]	; (1ee8 <drawNameEntryScreen+0x98>)
    1e98:	6978      	ldr	r0, [r7, #20]
    1e9a:	4b14      	ldr	r3, [pc, #80]	; (1eec <drawNameEntryScreen+0x9c>)
    1e9c:	4798      	blx	r3
    1e9e:	235d      	movs	r3, #93	; 0x5d
    1ea0:	36c7      	adds	r6, #199	; 0xc7
    1ea2:	7033      	strb	r3, [r6, #0]
    1ea4:	3b1c      	subs	r3, #28
    1ea6:	70e3      	strb	r3, [r4, #3]
    1ea8:	4911      	ldr	r1, [pc, #68]	; (1ef0 <drawNameEntryScreen+0xa0>)
    1eaa:	4b0d      	ldr	r3, [pc, #52]	; (1ee0 <drawNameEntryScreen+0x90>)
    1eac:	4811      	ldr	r0, [pc, #68]	; (1ef4 <drawNameEntryScreen+0xa4>)
    1eae:	7025      	strb	r5, [r4, #0]
    1eb0:	4798      	blx	r3
    1eb2:	2301      	movs	r3, #1
    1eb4:	4a07      	ldr	r2, [pc, #28]	; (1ed4 <drawNameEntryScreen+0x84>)
    1eb6:	823d      	strh	r5, [r7, #16]
    1eb8:	7013      	strb	r3, [r2, #0]
    1eba:	e7e3      	b.n	1e84 <drawNameEntryScreen+0x34>
    1ebc:	00001b0d 	.word	0x00001b0d
    1ec0:	000005d1 	.word	0x000005d1
    1ec4:	20000008 	.word	0x20000008
    1ec8:	20000060 	.word	0x20000060
    1ecc:	00002d6f 	.word	0x00002d6f
    1ed0:	000012b5 	.word	0x000012b5
    1ed4:	20000845 	.word	0x20000845
    1ed8:	200005fd 	.word	0x200005fd
    1edc:	00003d8c 	.word	0x00003d8c
    1ee0:	000013f1 	.word	0x000013f1
    1ee4:	200005fc 	.word	0x200005fc
    1ee8:	20000660 	.word	0x20000660
    1eec:	0000138d 	.word	0x0000138d
    1ef0:	200006dc 	.word	0x200006dc
    1ef4:	00003d99 	.word	0x00003d99

00001ef8 <drawMoonscape>:
    1ef8:	b570      	push	{r4, r5, r6, lr}
    1efa:	4b49      	ldr	r3, [pc, #292]	; (2020 <drawMoonscape+0x128>)
    1efc:	4798      	blx	r3
    1efe:	4c49      	ldr	r4, [pc, #292]	; (2024 <drawMoonscape+0x12c>)
    1f00:	2186      	movs	r1, #134	; 0x86
    1f02:	0020      	movs	r0, r4
    1f04:	220b      	movs	r2, #11
    1f06:	2389      	movs	r3, #137	; 0x89
    1f08:	302c      	adds	r0, #44	; 0x2c
    1f0a:	7001      	strb	r1, [r0, #0]
    1f0c:	1ce0      	adds	r0, r4, #3
    1f0e:	77c2      	strb	r2, [r0, #31]
    1f10:	1de0      	adds	r0, r4, #7
    1f12:	77c3      	strb	r3, [r0, #31]
    1f14:	0020      	movs	r0, r4
    1f16:	3029      	adds	r0, #41	; 0x29
    1f18:	7001      	strb	r1, [r0, #0]
    1f1a:	200e      	movs	r0, #14
    1f1c:	4e42      	ldr	r6, [pc, #264]	; (2028 <drawMoonscape+0x130>)
    1f1e:	7163      	strb	r3, [r4, #5]
    1f20:	77a3      	strb	r3, [r4, #30]
    1f22:	3b1d      	subs	r3, #29
    1f24:	72e3      	strb	r3, [r4, #11]
    1f26:	7833      	ldrb	r3, [r6, #0]
    1f28:	7022      	strb	r2, [r4, #0]
    1f2a:	1ac0      	subs	r0, r0, r3
    1f2c:	71e1      	strb	r1, [r4, #7]
    1f2e:	73e2      	strb	r2, [r4, #15]
    1f30:	b2c0      	uxtb	r0, r0
    1f32:	3a08      	subs	r2, #8
    1f34:	396c      	subs	r1, #108	; 0x6c
    1f36:	4d3d      	ldr	r5, [pc, #244]	; (202c <drawMoonscape+0x134>)
    1f38:	47a8      	blx	r5
    1f3a:	202e      	movs	r0, #46	; 0x2e
    1f3c:	7833      	ldrb	r3, [r6, #0]
    1f3e:	2203      	movs	r2, #3
    1f40:	1ac0      	subs	r0, r0, r3
    1f42:	b2c0      	uxtb	r0, r0
    1f44:	211d      	movs	r1, #29
    1f46:	47a8      	blx	r5
    1f48:	2002      	movs	r0, #2
    1f4a:	4b39      	ldr	r3, [pc, #228]	; (2030 <drawMoonscape+0x138>)
    1f4c:	4798      	blx	r3
    1f4e:	7832      	ldrb	r2, [r6, #0]
    1f50:	20a0      	movs	r0, #160	; 0xa0
    1f52:	237c      	movs	r3, #124	; 0x7c
    1f54:	07d2      	lsls	r2, r2, #31
    1f56:	d537      	bpl.n	1fc8 <drawMoonscape+0xd0>
    1f58:	220d      	movs	r2, #13
    1f5a:	2103      	movs	r1, #3
    1f5c:	47a8      	blx	r5
    1f5e:	2202      	movs	r2, #2
    1f60:	2111      	movs	r1, #17
    1f62:	2080      	movs	r0, #128	; 0x80
    1f64:	47a8      	blx	r5
    1f66:	2202      	movs	r2, #2
    1f68:	2113      	movs	r1, #19
    1f6a:	2087      	movs	r0, #135	; 0x87
    1f6c:	47a8      	blx	r5
    1f6e:	2205      	movs	r2, #5
    1f70:	2115      	movs	r1, #21
    1f72:	208b      	movs	r0, #139	; 0x8b
    1f74:	47a8      	blx	r5
    1f76:	2200      	movs	r2, #0
    1f78:	18a3      	adds	r3, r4, r2
    1f7a:	0019      	movs	r1, r3
    1f7c:	3180      	adds	r1, #128	; 0x80
    1f7e:	7808      	ldrb	r0, [r1, #0]
    1f80:	33b0      	adds	r3, #176	; 0xb0
    1f82:	7408      	strb	r0, [r1, #16]
    1f84:	3120      	adds	r1, #32
    1f86:	7809      	ldrb	r1, [r1, #0]
    1f88:	3201      	adds	r2, #1
    1f8a:	7019      	strb	r1, [r3, #0]
    1f8c:	2a10      	cmp	r2, #16
    1f8e:	d1f3      	bne.n	1f78 <drawMoonscape+0x80>
    1f90:	2500      	movs	r5, #0
    1f92:	4b28      	ldr	r3, [pc, #160]	; (2034 <drawMoonscape+0x13c>)
    1f94:	4798      	blx	r3
    1f96:	002b      	movs	r3, r5
    1f98:	3501      	adds	r5, #1
    1f9a:	33e0      	adds	r3, #224	; 0xe0
    1f9c:	54e0      	strb	r0, [r4, r3]
    1f9e:	2d20      	cmp	r5, #32
    1fa0:	d1f7      	bne.n	1f92 <drawMoonscape+0x9a>
    1fa2:	2500      	movs	r5, #0
    1fa4:	4b24      	ldr	r3, [pc, #144]	; (2038 <drawMoonscape+0x140>)
    1fa6:	34de      	adds	r4, #222	; 0xde
    1fa8:	80dd      	strh	r5, [r3, #6]
    1faa:	4b24      	ldr	r3, [pc, #144]	; (203c <drawMoonscape+0x144>)
    1fac:	4798      	blx	r3
    1fae:	4b24      	ldr	r3, [pc, #144]	; (2040 <drawMoonscape+0x148>)
    1fb0:	4798      	blx	r3
    1fb2:	4924      	ldr	r1, [pc, #144]	; (2044 <drawMoonscape+0x14c>)
    1fb4:	4824      	ldr	r0, [pc, #144]	; (2048 <drawMoonscape+0x150>)
    1fb6:	4b25      	ldr	r3, [pc, #148]	; (204c <drawMoonscape+0x154>)
    1fb8:	4798      	blx	r3
    1fba:	4b25      	ldr	r3, [pc, #148]	; (2050 <drawMoonscape+0x158>)
    1fbc:	781b      	ldrb	r3, [r3, #0]
    1fbe:	3341      	adds	r3, #65	; 0x41
    1fc0:	7023      	strb	r3, [r4, #0]
    1fc2:	4b24      	ldr	r3, [pc, #144]	; (2054 <drawMoonscape+0x15c>)
    1fc4:	825d      	strh	r5, [r3, #18]
    1fc6:	bd70      	pop	{r4, r5, r6, pc}
    1fc8:	5423      	strb	r3, [r4, r0]
    1fca:	3001      	adds	r0, #1
    1fcc:	28c0      	cmp	r0, #192	; 0xc0
    1fce:	d1fb      	bne.n	1fc8 <drawMoonscape+0xd0>
    1fd0:	2203      	movs	r2, #3
    1fd2:	2160      	movs	r1, #96	; 0x60
    1fd4:	3840      	subs	r0, #64	; 0x40
    1fd6:	47a8      	blx	r5
    1fd8:	2203      	movs	r2, #3
    1fda:	2170      	movs	r1, #112	; 0x70
    1fdc:	20a0      	movs	r0, #160	; 0xa0
    1fde:	47a8      	blx	r5
    1fe0:	2202      	movs	r2, #2
    1fe2:	2163      	movs	r1, #99	; 0x63
    1fe4:	2084      	movs	r0, #132	; 0x84
    1fe6:	47a8      	blx	r5
    1fe8:	2202      	movs	r2, #2
    1fea:	2173      	movs	r1, #115	; 0x73
    1fec:	20a4      	movs	r0, #164	; 0xa4
    1fee:	47a8      	blx	r5
    1ff0:	2202      	movs	r2, #2
    1ff2:	2165      	movs	r1, #101	; 0x65
    1ff4:	2087      	movs	r0, #135	; 0x87
    1ff6:	47a8      	blx	r5
    1ff8:	2202      	movs	r2, #2
    1ffa:	2175      	movs	r1, #117	; 0x75
    1ffc:	20a7      	movs	r0, #167	; 0xa7
    1ffe:	47a8      	blx	r5
    2000:	2203      	movs	r2, #3
    2002:	2167      	movs	r1, #103	; 0x67
    2004:	208a      	movs	r0, #138	; 0x8a
    2006:	47a8      	blx	r5
    2008:	2203      	movs	r2, #3
    200a:	2177      	movs	r1, #119	; 0x77
    200c:	20aa      	movs	r0, #170	; 0xaa
    200e:	47a8      	blx	r5
    2010:	2202      	movs	r2, #2
    2012:	216a      	movs	r1, #106	; 0x6a
    2014:	208d      	movs	r0, #141	; 0x8d
    2016:	47a8      	blx	r5
    2018:	2202      	movs	r2, #2
    201a:	217a      	movs	r1, #122	; 0x7a
    201c:	20ad      	movs	r0, #173	; 0xad
    201e:	e7a9      	b.n	1f74 <drawMoonscape+0x7c>
    2020:	00001b0d 	.word	0x00001b0d
    2024:	200005fc 	.word	0x200005fc
    2028:	20000705 	.word	0x20000705
    202c:	00001321 	.word	0x00001321
    2030:	0000133d 	.word	0x0000133d
    2034:	000012f5 	.word	0x000012f5
    2038:	20000060 	.word	0x20000060
    203c:	00000c45 	.word	0x00000c45
    2040:	00000c55 	.word	0x00000c55
    2044:	200006ce 	.word	0x200006ce
    2048:	00003daa 	.word	0x00003daa
    204c:	000013f1 	.word	0x000013f1
    2050:	20000844 	.word	0x20000844
    2054:	20000008 	.word	0x20000008

00002058 <updateHighScores>:
    2058:	b5f0      	push	{r4, r5, r6, r7, lr}
    205a:	4928      	ldr	r1, [pc, #160]	; (20fc <updateHighScores+0xa4>)
    205c:	b085      	sub	sp, #20
    205e:	7acb      	ldrb	r3, [r1, #11]
    2060:	3b01      	subs	r3, #1
    2062:	b2db      	uxtb	r3, r3
    2064:	72cb      	strb	r3, [r1, #11]
    2066:	2b04      	cmp	r3, #4
    2068:	d915      	bls.n	2096 <updateHighScores+0x3e>
    206a:	2003      	movs	r0, #3
    206c:	4a24      	ldr	r2, [pc, #144]	; (2100 <updateHighScores+0xa8>)
    206e:	4358      	muls	r0, r3
    2070:	6955      	ldr	r5, [r2, #20]
    2072:	7bce      	ldrb	r6, [r1, #15]
    2074:	4a23      	ldr	r2, [pc, #140]	; (2104 <updateHighScores+0xac>)
    2076:	009b      	lsls	r3, r3, #2
    2078:	5486      	strb	r6, [r0, r2]
    207a:	1812      	adds	r2, r2, r0
    207c:	7c08      	ldrb	r0, [r1, #16]
    207e:	7050      	strb	r0, [r2, #1]
    2080:	7c48      	ldrb	r0, [r1, #17]
    2082:	7090      	strb	r0, [r2, #2]
    2084:	4a20      	ldr	r2, [pc, #128]	; (2108 <updateHighScores+0xb0>)
    2086:	509d      	str	r5, [r3, r2]
    2088:	230a      	movs	r3, #10
    208a:	2200      	movs	r2, #0
    208c:	704b      	strb	r3, [r1, #1]
    208e:	4b1f      	ldr	r3, [pc, #124]	; (210c <updateHighScores+0xb4>)
    2090:	701a      	strb	r2, [r3, #0]
    2092:	b005      	add	sp, #20
    2094:	bdf0      	pop	{r4, r5, r6, r7, pc}
    2096:	2003      	movs	r0, #3
    2098:	4358      	muls	r0, r3
    209a:	4d1a      	ldr	r5, [pc, #104]	; (2104 <updateHighScores+0xac>)
    209c:	3803      	subs	r0, #3
    209e:	1940      	adds	r0, r0, r5
    20a0:	9003      	str	r0, [sp, #12]
    20a2:	481b      	ldr	r0, [pc, #108]	; (2110 <updateHighScores+0xb8>)
    20a4:	4a1b      	ldr	r2, [pc, #108]	; (2114 <updateHighScores+0xbc>)
    20a6:	7845      	ldrb	r5, [r0, #1]
    20a8:	7806      	ldrb	r6, [r0, #0]
    20aa:	7880      	ldrb	r0, [r0, #2]
    20ac:	4c1a      	ldr	r4, [pc, #104]	; (2118 <updateHighScores+0xc0>)
    20ae:	4684      	mov	ip, r0
    20b0:	2000      	movs	r0, #0
    20b2:	9002      	str	r0, [sp, #8]
    20b4:	9001      	str	r0, [sp, #4]
    20b6:	9f03      	ldr	r7, [sp, #12]
    20b8:	4297      	cmp	r7, r2
    20ba:	d10f      	bne.n	20dc <updateHighScores+0x84>
    20bc:	9a01      	ldr	r2, [sp, #4]
    20be:	2a00      	cmp	r2, #0
    20c0:	d001      	beq.n	20c6 <updateHighScores+0x6e>
    20c2:	4a13      	ldr	r2, [pc, #76]	; (2110 <updateHighScores+0xb8>)
    20c4:	7016      	strb	r6, [r2, #0]
    20c6:	9a02      	ldr	r2, [sp, #8]
    20c8:	2a00      	cmp	r2, #0
    20ca:	d001      	beq.n	20d0 <updateHighScores+0x78>
    20cc:	4a10      	ldr	r2, [pc, #64]	; (2110 <updateHighScores+0xb8>)
    20ce:	7055      	strb	r5, [r2, #1]
    20d0:	2800      	cmp	r0, #0
    20d2:	d0ca      	beq.n	206a <updateHighScores+0x12>
    20d4:	4660      	mov	r0, ip
    20d6:	4a0e      	ldr	r2, [pc, #56]	; (2110 <updateHighScores+0xb8>)
    20d8:	7090      	strb	r0, [r2, #2]
    20da:	e7c6      	b.n	206a <updateHighScores+0x12>
    20dc:	7890      	ldrb	r0, [r2, #2]
    20de:	7816      	ldrb	r6, [r2, #0]
    20e0:	7150      	strb	r0, [r2, #5]
    20e2:	4684      	mov	ip, r0
    20e4:	6820      	ldr	r0, [r4, #0]
    20e6:	7855      	ldrb	r5, [r2, #1]
    20e8:	6060      	str	r0, [r4, #4]
    20ea:	2001      	movs	r0, #1
    20ec:	70d6      	strb	r6, [r2, #3]
    20ee:	7115      	strb	r5, [r2, #4]
    20f0:	3c04      	subs	r4, #4
    20f2:	3a03      	subs	r2, #3
    20f4:	9001      	str	r0, [sp, #4]
    20f6:	9002      	str	r0, [sp, #8]
    20f8:	e7dd      	b.n	20b6 <updateHighScores+0x5e>
    20fa:	46c0      	nop			; (mov r8, r8)
    20fc:	20000008 	.word	0x20000008
    2100:	20000060 	.word	0x20000060
    2104:	20000728 	.word	0x20000728
    2108:	20000708 	.word	0x20000708
    210c:	20000845 	.word	0x20000845
    2110:	200006fc 	.word	0x200006fc
    2114:	20000734 	.word	0x20000734
    2118:	20000718 	.word	0x20000718

0000211c <sendTiles>:
    211c:	b570      	push	{r4, r5, r6, lr}
    211e:	2580      	movs	r5, #128	; 0x80
    2120:	4c05      	ldr	r4, [pc, #20]	; (2138 <sendTiles+0x1c>)
    2122:	006d      	lsls	r5, r5, #1
    2124:	61a5      	str	r5, [r4, #24]
    2126:	4b05      	ldr	r3, [pc, #20]	; (213c <sendTiles+0x20>)
    2128:	4798      	blx	r3
    212a:	4805      	ldr	r0, [pc, #20]	; (2140 <sendTiles+0x24>)
    212c:	4905      	ldr	r1, [pc, #20]	; (2144 <sendTiles+0x28>)
    212e:	3004      	adds	r0, #4
    2130:	4b05      	ldr	r3, [pc, #20]	; (2148 <sendTiles+0x2c>)
    2132:	4798      	blx	r3
    2134:	6165      	str	r5, [r4, #20]
    2136:	bd70      	pop	{r4, r5, r6, pc}
    2138:	41004400 	.word	0x41004400
    213c:	00000329 	.word	0x00000329
    2140:	00003780 	.word	0x00003780
    2144:	200005fc 	.word	0x200005fc
    2148:	00000499 	.word	0x00000499

0000214c <gameAction>:
    214c:	b5f7      	push	{r0, r1, r2, r4, r5, r6, r7, lr}
    214e:	4bc6      	ldr	r3, [pc, #792]	; (2468 <gameAction+0x31c>)
    2150:	4798      	blx	r3
    2152:	4bc6      	ldr	r3, [pc, #792]	; (246c <gameAction+0x320>)
    2154:	4ac5      	ldr	r2, [pc, #788]	; (246c <gameAction+0x320>)
    2156:	885b      	ldrh	r3, [r3, #2]
    2158:	2700      	movs	r7, #0
    215a:	3301      	adds	r3, #1
    215c:	8053      	strh	r3, [r2, #2]
    215e:	4bc4      	ldr	r3, [pc, #784]	; (2470 <gameAction+0x324>)
    2160:	4798      	blx	r3
    2162:	4bc4      	ldr	r3, [pc, #784]	; (2474 <gameAction+0x328>)
    2164:	4798      	blx	r3
    2166:	4bc4      	ldr	r3, [pc, #784]	; (2478 <gameAction+0x32c>)
    2168:	49c4      	ldr	r1, [pc, #784]	; (247c <gameAction+0x330>)
    216a:	8a5a      	ldrh	r2, [r3, #18]
    216c:	428a      	cmp	r2, r1
    216e:	d147      	bne.n	2200 <gameAction+0xb4>
    2170:	7a9d      	ldrb	r5, [r3, #10]
    2172:	230f      	movs	r3, #15
    2174:	401d      	ands	r5, r3
    2176:	42bd      	cmp	r5, r7
    2178:	d000      	beq.n	217c <gameAction+0x30>
    217a:	e0c2      	b.n	2302 <gameAction+0x1b6>
    217c:	2700      	movs	r7, #0
    217e:	4bc0      	ldr	r3, [pc, #768]	; (2480 <gameAction+0x334>)
    2180:	4cc0      	ldr	r4, [pc, #768]	; (2484 <gameAction+0x338>)
    2182:	7818      	ldrb	r0, [r3, #0]
    2184:	49c0      	ldr	r1, [pc, #768]	; (2488 <gameAction+0x33c>)
    2186:	47a0      	blx	r4
    2188:	4bc0      	ldr	r3, [pc, #768]	; (248c <gameAction+0x340>)
    218a:	49c1      	ldr	r1, [pc, #772]	; (2490 <gameAction+0x344>)
    218c:	7818      	ldrb	r0, [r3, #0]
    218e:	47a0      	blx	r4
    2190:	4bc0      	ldr	r3, [pc, #768]	; (2494 <gameAction+0x348>)
    2192:	49c1      	ldr	r1, [pc, #772]	; (2498 <gameAction+0x34c>)
    2194:	7818      	ldrb	r0, [r3, #0]
    2196:	47a0      	blx	r4
    2198:	4bc0      	ldr	r3, [pc, #768]	; (249c <gameAction+0x350>)
    219a:	49c1      	ldr	r1, [pc, #772]	; (24a0 <gameAction+0x354>)
    219c:	7818      	ldrb	r0, [r3, #0]
    219e:	47a0      	blx	r4
    21a0:	220f      	movs	r2, #15
    21a2:	4db5      	ldr	r5, [pc, #724]	; (2478 <gameAction+0x32c>)
    21a4:	7aab      	ldrb	r3, [r5, #10]
    21a6:	4393      	bics	r3, r2
    21a8:	d02a      	beq.n	2200 <gameAction+0xb4>
    21aa:	4bbe      	ldr	r3, [pc, #760]	; (24a4 <gameAction+0x358>)
    21ac:	2003      	movs	r0, #3
    21ae:	4798      	blx	r3
    21b0:	4bbd      	ldr	r3, [pc, #756]	; (24a8 <gameAction+0x35c>)
    21b2:	0006      	movs	r6, r0
    21b4:	781c      	ldrb	r4, [r3, #0]
    21b6:	223c      	movs	r2, #60	; 0x3c
    21b8:	2c01      	cmp	r4, #1
    21ba:	d904      	bls.n	21c6 <gameAction+0x7a>
    21bc:	4bbb      	ldr	r3, [pc, #748]	; (24ac <gameAction+0x360>)
    21be:	781b      	ldrb	r3, [r3, #0]
    21c0:	2b00      	cmp	r3, #0
    21c2:	d100      	bne.n	21c6 <gameAction+0x7a>
    21c4:	3a14      	subs	r2, #20
    21c6:	7aab      	ldrb	r3, [r5, #10]
    21c8:	069b      	lsls	r3, r3, #26
    21ca:	d401      	bmi.n	21d0 <gameAction+0x84>
    21cc:	2601      	movs	r6, #1
    21ce:	4006      	ands	r6, r0
    21d0:	7a6b      	ldrb	r3, [r5, #9]
    21d2:	3b01      	subs	r3, #1
    21d4:	b2db      	uxtb	r3, r3
    21d6:	726b      	strb	r3, [r5, #9]
    21d8:	2b00      	cmp	r3, #0
    21da:	d111      	bne.n	2200 <gameAction+0xb4>
    21dc:	00a4      	lsls	r4, r4, #2
    21de:	200f      	movs	r0, #15
    21e0:	4bb0      	ldr	r3, [pc, #704]	; (24a4 <gameAction+0x358>)
    21e2:	1b14      	subs	r4, r2, r4
    21e4:	4798      	blx	r3
    21e6:	b2e4      	uxtb	r4, r4
    21e8:	1820      	adds	r0, r4, r0
    21ea:	b2c0      	uxtb	r0, r0
    21ec:	2e01      	cmp	r6, #1
    21ee:	d900      	bls.n	21f2 <gameAction+0xa6>
    21f0:	e10e      	b.n	2410 <gameAction+0x2c4>
    21f2:	2101      	movs	r1, #1
    21f4:	40b1      	lsls	r1, r6
    21f6:	7268      	strb	r0, [r5, #9]
    21f8:	b2c9      	uxtb	r1, r1
    21fa:	207f      	movs	r0, #127	; 0x7f
    21fc:	4bac      	ldr	r3, [pc, #688]	; (24b0 <gameAction+0x364>)
    21fe:	4798      	blx	r3
    2200:	4bac      	ldr	r3, [pc, #688]	; (24b4 <gameAction+0x368>)
    2202:	4a9a      	ldr	r2, [pc, #616]	; (246c <gameAction+0x320>)
    2204:	781b      	ldrb	r3, [r3, #0]
    2206:	88d2      	ldrh	r2, [r2, #6]
    2208:	4c9b      	ldr	r4, [pc, #620]	; (2478 <gameAction+0x32c>)
    220a:	189b      	adds	r3, r3, r2
    220c:	4a97      	ldr	r2, [pc, #604]	; (246c <gameAction+0x320>)
    220e:	8a60      	ldrh	r0, [r4, #18]
    2210:	80d3      	strh	r3, [r2, #6]
    2212:	4b9a      	ldr	r3, [pc, #616]	; (247c <gameAction+0x330>)
    2214:	4298      	cmp	r0, r3
    2216:	d010      	beq.n	223a <gameAction+0xee>
    2218:	4ba7      	ldr	r3, [pc, #668]	; (24b8 <gameAction+0x36c>)
    221a:	b2c0      	uxtb	r0, r0
    221c:	2106      	movs	r1, #6
    221e:	4798      	blx	r3
    2220:	4ba4      	ldr	r3, [pc, #656]	; (24b4 <gameAction+0x368>)
    2222:	8a62      	ldrh	r2, [r4, #18]
    2224:	781b      	ldrb	r3, [r3, #0]
    2226:	189b      	adds	r3, r3, r2
    2228:	b29b      	uxth	r3, r3
    222a:	8263      	strh	r3, [r4, #18]
    222c:	2bff      	cmp	r3, #255	; 0xff
    222e:	d904      	bls.n	223a <gameAction+0xee>
    2230:	4ba2      	ldr	r3, [pc, #648]	; (24bc <gameAction+0x370>)
    2232:	4798      	blx	r3
    2234:	2301      	movs	r3, #1
    2236:	425b      	negs	r3, r3
    2238:	8263      	strh	r3, [r4, #18]
    223a:	4b8c      	ldr	r3, [pc, #560]	; (246c <gameAction+0x320>)
    223c:	88db      	ldrh	r3, [r3, #6]
    223e:	43db      	mvns	r3, r3
    2240:	075b      	lsls	r3, r3, #29
    2242:	d10b      	bne.n	225c <gameAction+0x110>
    2244:	78a3      	ldrb	r3, [r4, #2]
    2246:	3301      	adds	r3, #1
    2248:	b2db      	uxtb	r3, r3
    224a:	2b00      	cmp	r3, #0
    224c:	d100      	bne.n	2250 <gameAction+0x104>
    224e:	e0e1      	b.n	2414 <gameAction+0x2c8>
    2250:	70a3      	strb	r3, [r4, #2]
    2252:	4b9b      	ldr	r3, [pc, #620]	; (24c0 <gameAction+0x374>)
    2254:	78a5      	ldrb	r5, [r4, #2]
    2256:	4798      	blx	r3
    2258:	4b8b      	ldr	r3, [pc, #556]	; (2488 <gameAction+0x33c>)
    225a:	5558      	strb	r0, [r3, r5]
    225c:	2101      	movs	r1, #1
    225e:	4b83      	ldr	r3, [pc, #524]	; (246c <gameAction+0x320>)
    2260:	1d1a      	adds	r2, r3, #4
    2262:	885b      	ldrh	r3, [r3, #2]
    2264:	400b      	ands	r3, r1
    2266:	7fd1      	ldrb	r1, [r2, #31]
    2268:	185b      	adds	r3, r3, r1
    226a:	77d3      	strb	r3, [r2, #31]
    226c:	4b7f      	ldr	r3, [pc, #508]	; (246c <gameAction+0x320>)
    226e:	795b      	ldrb	r3, [r3, #5]
    2270:	2b00      	cmp	r3, #0
    2272:	d021      	beq.n	22b8 <gameAction+0x16c>
    2274:	2203      	movs	r2, #3
    2276:	2010      	movs	r0, #16
    2278:	4b92      	ldr	r3, [pc, #584]	; (24c4 <gameAction+0x378>)
    227a:	21a0      	movs	r1, #160	; 0xa0
    227c:	4798      	blx	r3
    227e:	2313      	movs	r3, #19
    2280:	22a3      	movs	r2, #163	; 0xa3
    2282:	4881      	ldr	r0, [pc, #516]	; (2488 <gameAction+0x33c>)
    2284:	54c2      	strb	r2, [r0, r3]
    2286:	3301      	adds	r3, #1
    2288:	2b20      	cmp	r3, #32
    228a:	d1fb      	bne.n	2284 <gameAction+0x138>
    228c:	221f      	movs	r2, #31
    228e:	26a7      	movs	r6, #167	; 0xa7
    2290:	4b8d      	ldr	r3, [pc, #564]	; (24c8 <gameAction+0x37c>)
    2292:	4d7d      	ldr	r5, [pc, #500]	; (2488 <gameAction+0x33c>)
    2294:	781b      	ldrb	r3, [r3, #0]
    2296:	0899      	lsrs	r1, r3, #2
    2298:	1a51      	subs	r1, r2, r1
    229a:	b2c9      	uxtb	r1, r1
    229c:	428a      	cmp	r2, r1
    229e:	dd00      	ble.n	22a2 <gameAction+0x156>
    22a0:	e0ba      	b.n	2418 <gameAction+0x2cc>
    22a2:	2203      	movs	r2, #3
    22a4:	4013      	ands	r3, r2
    22a6:	d001      	beq.n	22ac <gameAction+0x160>
    22a8:	3b5d      	subs	r3, #93	; 0x5d
    22aa:	5443      	strb	r3, [r0, r1]
    22ac:	4b6f      	ldr	r3, [pc, #444]	; (246c <gameAction+0x320>)
    22ae:	2080      	movs	r0, #128	; 0x80
    22b0:	8859      	ldrh	r1, [r3, #2]
    22b2:	2301      	movs	r3, #1
    22b4:	4019      	ands	r1, r3
    22b6:	d001      	beq.n	22bc <gameAction+0x170>
    22b8:	2100      	movs	r1, #0
    22ba:	0008      	movs	r0, r1
    22bc:	4b7e      	ldr	r3, [pc, #504]	; (24b8 <gameAction+0x36c>)
    22be:	4798      	blx	r3
    22c0:	4d7d      	ldr	r5, [pc, #500]	; (24b8 <gameAction+0x36c>)
    22c2:	2101      	movs	r1, #1
    22c4:	2000      	movs	r0, #0
    22c6:	47a8      	blx	r5
    22c8:	4b68      	ldr	r3, [pc, #416]	; (246c <gameAction+0x320>)
    22ca:	2102      	movs	r1, #2
    22cc:	1d1e      	adds	r6, r3, #4
    22ce:	7ff0      	ldrb	r0, [r6, #31]
    22d0:	0840      	lsrs	r0, r0, #1
    22d2:	47a8      	blx	r5
    22d4:	7ff0      	ldrb	r0, [r6, #31]
    22d6:	2103      	movs	r1, #3
    22d8:	0840      	lsrs	r0, r0, #1
    22da:	47a8      	blx	r5
    22dc:	7ff0      	ldrb	r0, [r6, #31]
    22de:	2104      	movs	r1, #4
    22e0:	47a8      	blx	r5
    22e2:	7ff0      	ldrb	r0, [r6, #31]
    22e4:	2105      	movs	r1, #5
    22e6:	47a8      	blx	r5
    22e8:	4b60      	ldr	r3, [pc, #384]	; (246c <gameAction+0x320>)
    22ea:	2107      	movs	r1, #7
    22ec:	7998      	ldrb	r0, [r3, #6]
    22ee:	47a8      	blx	r5
    22f0:	4b5e      	ldr	r3, [pc, #376]	; (246c <gameAction+0x320>)
    22f2:	88db      	ldrh	r3, [r3, #6]
    22f4:	2bff      	cmp	r3, #255	; 0xff
    22f6:	d900      	bls.n	22fa <gameAction+0x1ae>
    22f8:	e091      	b.n	241e <gameAction+0x2d2>
    22fa:	2f00      	cmp	r7, #0
    22fc:	d000      	beq.n	2300 <gameAction+0x1b4>
    22fe:	e097      	b.n	2430 <gameAction+0x2e4>
    2300:	bdf7      	pop	{r0, r1, r2, r4, r5, r6, r7, pc}
    2302:	495f      	ldr	r1, [pc, #380]	; (2480 <gameAction+0x334>)
    2304:	4b61      	ldr	r3, [pc, #388]	; (248c <gameAction+0x340>)
    2306:	780a      	ldrb	r2, [r1, #0]
    2308:	781b      	ldrb	r3, [r3, #0]
    230a:	4c64      	ldr	r4, [pc, #400]	; (249c <gameAction+0x350>)
    230c:	4293      	cmp	r3, r2
    230e:	d969      	bls.n	23e4 <gameAction+0x298>
    2310:	4b56      	ldr	r3, [pc, #344]	; (246c <gameAction+0x320>)
    2312:	8b9b      	ldrh	r3, [r3, #28]
    2314:	2b00      	cmp	r3, #0
    2316:	d100      	bne.n	231a <gameAction+0x1ce>
    2318:	e730      	b.n	217c <gameAction+0x30>
    231a:	3b01      	subs	r3, #1
    231c:	4853      	ldr	r0, [pc, #332]	; (246c <gameAction+0x320>)
    231e:	b29b      	uxth	r3, r3
    2320:	8383      	strh	r3, [r0, #28]
    2322:	2b00      	cmp	r3, #0
    2324:	d000      	beq.n	2328 <gameAction+0x1dc>
    2326:	e729      	b.n	217c <gameAction+0x30>
    2328:	3201      	adds	r2, #1
    232a:	700a      	strb	r2, [r1, #0]
    232c:	4e5d      	ldr	r6, [pc, #372]	; (24a4 <gameAction+0x358>)
    232e:	2d02      	cmp	r5, #2
    2330:	d022      	beq.n	2378 <gameAction+0x22c>
    2332:	2d03      	cmp	r5, #3
    2334:	d030      	beq.n	2398 <gameAction+0x24c>
    2336:	2d01      	cmp	r5, #1
    2338:	d113      	bne.n	2362 <gameAction+0x216>
    233a:	0028      	movs	r0, r5
    233c:	47b0      	blx	r6
    233e:	0043      	lsls	r3, r0, #1
    2340:	4862      	ldr	r0, [pc, #392]	; (24cc <gameAction+0x380>)
    2342:	3006      	adds	r0, #6
    2344:	18c0      	adds	r0, r0, r3
    2346:	233e      	movs	r3, #62	; 0x3e
    2348:	5ec7      	ldrsh	r7, [r0, r3]
    234a:	0028      	movs	r0, r5
    234c:	47b0      	blx	r6
    234e:	00c0      	lsls	r0, r0, #3
    2350:	b241      	sxtb	r1, r0
    2352:	2310      	movs	r3, #16
    2354:	002a      	movs	r2, r5
    2356:	0038      	movs	r0, r7
    2358:	4d5d      	ldr	r5, [pc, #372]	; (24d0 <gameAction+0x384>)
    235a:	47a8      	blx	r5
    235c:	7823      	ldrb	r3, [r4, #0]
    235e:	18c0      	adds	r0, r0, r3
    2360:	7020      	strb	r0, [r4, #0]
    2362:	4b50      	ldr	r3, [pc, #320]	; (24a4 <gameAction+0x358>)
    2364:	2007      	movs	r0, #7
    2366:	4798      	blx	r3
    2368:	2303      	movs	r3, #3
    236a:	4358      	muls	r0, r3
    236c:	4b3f      	ldr	r3, [pc, #252]	; (246c <gameAction+0x320>)
    236e:	8b5b      	ldrh	r3, [r3, #26]
    2370:	18c0      	adds	r0, r0, r3
    2372:	4b3e      	ldr	r3, [pc, #248]	; (246c <gameAction+0x320>)
    2374:	8398      	strh	r0, [r3, #28]
    2376:	e701      	b.n	217c <gameAction+0x30>
    2378:	2001      	movs	r0, #1
    237a:	47b0      	blx	r6
    237c:	0043      	lsls	r3, r0, #1
    237e:	4853      	ldr	r0, [pc, #332]	; (24cc <gameAction+0x380>)
    2380:	3006      	adds	r0, #6
    2382:	18c0      	adds	r0, r0, r3
    2384:	233e      	movs	r3, #62	; 0x3e
    2386:	5ec5      	ldrsh	r5, [r0, r3]
    2388:	2001      	movs	r0, #1
    238a:	47b0      	blx	r6
    238c:	00c0      	lsls	r0, r0, #3
    238e:	b241      	sxtb	r1, r0
    2390:	2320      	movs	r3, #32
    2392:	2201      	movs	r2, #1
    2394:	0028      	movs	r0, r5
    2396:	e7df      	b.n	2358 <gameAction+0x20c>
    2398:	2001      	movs	r0, #1
    239a:	47b0      	blx	r6
    239c:	4b4b      	ldr	r3, [pc, #300]	; (24cc <gameAction+0x380>)
    239e:	0007      	movs	r7, r0
    23a0:	3306      	adds	r3, #6
    23a2:	9301      	str	r3, [sp, #4]
    23a4:	9a01      	ldr	r2, [sp, #4]
    23a6:	0043      	lsls	r3, r0, #1
    23a8:	18d3      	adds	r3, r2, r3
    23aa:	2001      	movs	r0, #1
    23ac:	253e      	movs	r5, #62	; 0x3e
    23ae:	5f5d      	ldrsh	r5, [r3, r5]
    23b0:	47b0      	blx	r6
    23b2:	00c0      	lsls	r0, r0, #3
    23b4:	b241      	sxtb	r1, r0
    23b6:	2201      	movs	r2, #1
    23b8:	2310      	movs	r3, #16
    23ba:	0028      	movs	r0, r5
    23bc:	4d44      	ldr	r5, [pc, #272]	; (24d0 <gameAction+0x384>)
    23be:	47a8      	blx	r5
    23c0:	7823      	ldrb	r3, [r4, #0]
    23c2:	18c0      	adds	r0, r0, r3
    23c4:	427b      	negs	r3, r7
    23c6:	415f      	adcs	r7, r3
    23c8:	9b01      	ldr	r3, [sp, #4]
    23ca:	007f      	lsls	r7, r7, #1
    23cc:	19df      	adds	r7, r3, r7
    23ce:	7020      	strb	r0, [r4, #0]
    23d0:	2001      	movs	r0, #1
    23d2:	233e      	movs	r3, #62	; 0x3e
    23d4:	5eff      	ldrsh	r7, [r7, r3]
    23d6:	47b0      	blx	r6
    23d8:	00c0      	lsls	r0, r0, #3
    23da:	b241      	sxtb	r1, r0
    23dc:	2320      	movs	r3, #32
    23de:	2201      	movs	r2, #1
    23e0:	0038      	movs	r0, r7
    23e2:	e7ba      	b.n	235a <gameAction+0x20e>
    23e4:	7827      	ldrb	r7, [r4, #0]
    23e6:	2f00      	cmp	r7, #0
    23e8:	d000      	beq.n	23ec <gameAction+0x2a0>
    23ea:	e6c7      	b.n	217c <gameAction+0x30>
    23ec:	4a29      	ldr	r2, [pc, #164]	; (2494 <gameAction+0x348>)
    23ee:	700f      	strb	r7, [r1, #0]
    23f0:	7813      	ldrb	r3, [r2, #0]
    23f2:	3b01      	subs	r3, #1
    23f4:	b2db      	uxtb	r3, r3
    23f6:	7013      	strb	r3, [r2, #0]
    23f8:	2b00      	cmp	r3, #0
    23fa:	d003      	beq.n	2404 <gameAction+0x2b8>
    23fc:	2350      	movs	r3, #80	; 0x50
    23fe:	4a1b      	ldr	r2, [pc, #108]	; (246c <gameAction+0x320>)
    2400:	8393      	strh	r3, [r2, #28]
    2402:	e6bc      	b.n	217e <gameAction+0x32>
    2404:	4b33      	ldr	r3, [pc, #204]	; (24d4 <gameAction+0x388>)
    2406:	2701      	movs	r7, #1
    2408:	781a      	ldrb	r2, [r3, #0]
    240a:	4b33      	ldr	r3, [pc, #204]	; (24d8 <gameAction+0x38c>)
    240c:	701a      	strb	r2, [r3, #0]
    240e:	e6b6      	b.n	217e <gameAction+0x32>
    2410:	3014      	adds	r0, #20
    2412:	e6ee      	b.n	21f2 <gameAction+0xa6>
    2414:	23e0      	movs	r3, #224	; 0xe0
    2416:	e71b      	b.n	2250 <gameAction+0x104>
    2418:	54ae      	strb	r6, [r5, r2]
    241a:	3a01      	subs	r2, #1
    241c:	e73e      	b.n	229c <gameAction+0x150>
    241e:	4a13      	ldr	r2, [pc, #76]	; (246c <gameAction+0x320>)
    2420:	3b01      	subs	r3, #1
    2422:	3bff      	subs	r3, #255	; 0xff
    2424:	80d3      	strh	r3, [r2, #6]
    2426:	8a63      	ldrh	r3, [r4, #18]
    2428:	4a14      	ldr	r2, [pc, #80]	; (247c <gameAction+0x330>)
    242a:	4293      	cmp	r3, r2
    242c:	d000      	beq.n	2430 <gameAction+0x2e4>
    242e:	e764      	b.n	22fa <gameAction+0x1ae>
    2430:	4a29      	ldr	r2, [pc, #164]	; (24d8 <gameAction+0x38c>)
    2432:	492a      	ldr	r1, [pc, #168]	; (24dc <gameAction+0x390>)
    2434:	7813      	ldrb	r3, [r2, #0]
    2436:	7809      	ldrb	r1, [r1, #0]
    2438:	185b      	adds	r3, r3, r1
    243a:	4926      	ldr	r1, [pc, #152]	; (24d4 <gameAction+0x388>)
    243c:	b2db      	uxtb	r3, r3
    243e:	7809      	ldrb	r1, [r1, #0]
    2440:	7013      	strb	r3, [r2, #0]
    2442:	4299      	cmp	r1, r3
    2444:	d900      	bls.n	2448 <gameAction+0x2fc>
    2446:	e75b      	b.n	2300 <gameAction+0x1b4>
    2448:	2100      	movs	r1, #0
    244a:	2301      	movs	r3, #1
    244c:	7011      	strb	r1, [r2, #0]
    244e:	4a19      	ldr	r2, [pc, #100]	; (24b4 <gameAction+0x368>)
    2450:	8261      	strh	r1, [r4, #18]
    2452:	7013      	strb	r3, [r2, #0]
    2454:	4a15      	ldr	r2, [pc, #84]	; (24ac <gameAction+0x360>)
    2456:	7813      	ldrb	r3, [r2, #0]
    2458:	1c58      	adds	r0, r3, #1
    245a:	7010      	strb	r0, [r2, #0]
    245c:	4a0a      	ldr	r2, [pc, #40]	; (2488 <gameAction+0x33c>)
    245e:	3342      	adds	r3, #66	; 0x42
    2460:	32de      	adds	r2, #222	; 0xde
    2462:	7013      	strb	r3, [r2, #0]
    2464:	e74c      	b.n	2300 <gameAction+0x1b4>
    2466:	46c0      	nop			; (mov r8, r8)
    2468:	0000211d 	.word	0x0000211d
    246c:	20000060 	.word	0x20000060
    2470:	00000ce9 	.word	0x00000ce9
    2474:	00001481 	.word	0x00001481
    2478:	20000008 	.word	0x20000008
    247c:	0000ffff 	.word	0x0000ffff
    2480:	20000704 	.word	0x20000704
    2484:	0000138d 	.word	0x0000138d
    2488:	200005fc 	.word	0x200005fc
    248c:	20000848 	.word	0x20000848
    2490:	20000601 	.word	0x20000601
    2494:	20000725 	.word	0x20000725
    2498:	20000606 	.word	0x20000606
    249c:	200005e8 	.word	0x200005e8
    24a0:	2000061c 	.word	0x2000061c
    24a4:	00000445 	.word	0x00000445
    24a8:	20000705 	.word	0x20000705
    24ac:	20000844 	.word	0x20000844
    24b0:	00000a21 	.word	0x00000a21
    24b4:	20000841 	.word	0x20000841
    24b8:	00000605 	.word	0x00000605
    24bc:	00001129 	.word	0x00001129
    24c0:	000012f5 	.word	0x000012f5
    24c4:	00001321 	.word	0x00001321
    24c8:	2000073d 	.word	0x2000073d
    24cc:	00003c80 	.word	0x00003c80
    24d0:	00000b0d 	.word	0x00000b0d
    24d4:	20000846 	.word	0x20000846
    24d8:	20000702 	.word	0x20000702
    24dc:	20000842 	.word	0x20000842

000024e0 <nextRow>:
    24e0:	b510      	push	{r4, lr}
    24e2:	4806      	ldr	r0, [pc, #24]	; (24fc <nextRow+0x1c>)
    24e4:	4c06      	ldr	r4, [pc, #24]	; (2500 <nextRow+0x20>)
    24e6:	22ff      	movs	r2, #255	; 0xff
    24e8:	0021      	movs	r1, r4
    24ea:	3004      	adds	r0, #4
    24ec:	4b05      	ldr	r3, [pc, #20]	; (2504 <nextRow+0x24>)
    24ee:	4798      	blx	r3
    24f0:	2210      	movs	r2, #16
    24f2:	2120      	movs	r1, #32
    24f4:	0020      	movs	r0, r4
    24f6:	4b04      	ldr	r3, [pc, #16]	; (2508 <nextRow+0x28>)
    24f8:	4798      	blx	r3
    24fa:	bd10      	pop	{r4, pc}
    24fc:	00003780 	.word	0x00003780
    2500:	2000060c 	.word	0x2000060c
    2504:	00000391 	.word	0x00000391
    2508:	00002d6f 	.word	0x00002d6f

0000250c <gotoSleep>:
    250c:	2201      	movs	r2, #1
    250e:	b510      	push	{r4, lr}
    2510:	4b04      	ldr	r3, [pc, #16]	; (2524 <gotoSleep+0x18>)
    2512:	2000      	movs	r0, #0
    2514:	3305      	adds	r3, #5
    2516:	77da      	strb	r2, [r3, #31]
    2518:	4b03      	ldr	r3, [pc, #12]	; (2528 <gotoSleep+0x1c>)
    251a:	4798      	blx	r3
    251c:	2000      	movs	r0, #0
    251e:	4b03      	ldr	r3, [pc, #12]	; (252c <gotoSleep+0x20>)
    2520:	4798      	blx	r3
    2522:	bd10      	pop	{r4, pc}
    2524:	20000060 	.word	0x20000060
    2528:	00000861 	.word	0x00000861
    252c:	00000441 	.word	0x00000441

00002530 <gameStatus>:
    2530:	b5f8      	push	{r3, r4, r5, r6, r7, lr}
    2532:	4b41      	ldr	r3, [pc, #260]	; (2638 <gameStatus+0x108>)
    2534:	0006      	movs	r6, r0
    2536:	4798      	blx	r3
    2538:	4b40      	ldr	r3, [pc, #256]	; (263c <gameStatus+0x10c>)
    253a:	4a40      	ldr	r2, [pc, #256]	; (263c <gameStatus+0x10c>)
    253c:	885b      	ldrh	r3, [r3, #2]
    253e:	3301      	adds	r3, #1
    2540:	b29b      	uxth	r3, r3
    2542:	8053      	strh	r3, [r2, #2]
    2544:	069b      	lsls	r3, r3, #26
    2546:	d505      	bpl.n	2554 <gameStatus+0x24>
    2548:	2e00      	cmp	r6, #0
    254a:	d103      	bne.n	2554 <gameStatus+0x24>
    254c:	493c      	ldr	r1, [pc, #240]	; (2640 <gameStatus+0x110>)
    254e:	483d      	ldr	r0, [pc, #244]	; (2644 <gameStatus+0x114>)
    2550:	4b3d      	ldr	r3, [pc, #244]	; (2648 <gameStatus+0x118>)
    2552:	4798      	blx	r3
    2554:	4c3d      	ldr	r4, [pc, #244]	; (264c <gameStatus+0x11c>)
    2556:	47a0      	blx	r4
    2558:	4f3d      	ldr	r7, [pc, #244]	; (2650 <gameStatus+0x120>)
    255a:	4d3b      	ldr	r5, [pc, #236]	; (2648 <gameStatus+0x118>)
    255c:	0039      	movs	r1, r7
    255e:	483d      	ldr	r0, [pc, #244]	; (2654 <gameStatus+0x124>)
    2560:	47a8      	blx	r5
    2562:	4b3d      	ldr	r3, [pc, #244]	; (2658 <gameStatus+0x128>)
    2564:	493d      	ldr	r1, [pc, #244]	; (265c <gameStatus+0x12c>)
    2566:	7818      	ldrb	r0, [r3, #0]
    2568:	4b3d      	ldr	r3, [pc, #244]	; (2660 <gameStatus+0x130>)
    256a:	4798      	blx	r3
    256c:	47a0      	blx	r4
    256e:	0039      	movs	r1, r7
    2570:	483c      	ldr	r0, [pc, #240]	; (2664 <gameStatus+0x134>)
    2572:	47a8      	blx	r5
    2574:	4b31      	ldr	r3, [pc, #196]	; (263c <gameStatus+0x10c>)
    2576:	4939      	ldr	r1, [pc, #228]	; (265c <gameStatus+0x12c>)
    2578:	6958      	ldr	r0, [r3, #20]
    257a:	4b39      	ldr	r3, [pc, #228]	; (2660 <gameStatus+0x130>)
    257c:	4798      	blx	r3
    257e:	47a0      	blx	r4
    2580:	4839      	ldr	r0, [pc, #228]	; (2668 <gameStatus+0x138>)
    2582:	0039      	movs	r1, r7
    2584:	47a8      	blx	r5
    2586:	4b39      	ldr	r3, [pc, #228]	; (266c <gameStatus+0x13c>)
    2588:	7818      	ldrb	r0, [r3, #0]
    258a:	28ff      	cmp	r0, #255	; 0xff
    258c:	d002      	beq.n	2594 <gameStatus+0x64>
    258e:	4933      	ldr	r1, [pc, #204]	; (265c <gameStatus+0x12c>)
    2590:	4b33      	ldr	r3, [pc, #204]	; (2660 <gameStatus+0x130>)
    2592:	4798      	blx	r3
    2594:	47a0      	blx	r4
    2596:	0039      	movs	r1, r7
    2598:	4835      	ldr	r0, [pc, #212]	; (2670 <gameStatus+0x140>)
    259a:	47a8      	blx	r5
    259c:	47a0      	blx	r4
    259e:	0039      	movs	r1, r7
    25a0:	4834      	ldr	r0, [pc, #208]	; (2674 <gameStatus+0x144>)
    25a2:	47a8      	blx	r5
    25a4:	4b34      	ldr	r3, [pc, #208]	; (2678 <gameStatus+0x148>)
    25a6:	4835      	ldr	r0, [pc, #212]	; (267c <gameStatus+0x14c>)
    25a8:	781a      	ldrb	r2, [r3, #0]
    25aa:	2303      	movs	r3, #3
    25ac:	4353      	muls	r3, r2
    25ae:	b2db      	uxtb	r3, r3
    25b0:	0019      	movs	r1, r3
    25b2:	8a47      	ldrh	r7, [r0, #18]
    25b4:	4832      	ldr	r0, [pc, #200]	; (2680 <gameStatus+0x150>)
    25b6:	3110      	adds	r1, #16
    25b8:	b249      	sxtb	r1, r1
    25ba:	4287      	cmp	r7, r0
    25bc:	d106      	bne.n	25cc <gameStatus+0x9c>
    25be:	2a04      	cmp	r2, #4
    25c0:	d804      	bhi.n	25cc <gameStatus+0x9c>
    25c2:	227d      	movs	r2, #125	; 0x7d
    25c4:	2e01      	cmp	r6, #1
    25c6:	d005      	beq.n	25d4 <gameStatus+0xa4>
    25c8:	3311      	adds	r3, #17
    25ca:	b259      	sxtb	r1, r3
    25cc:	2225      	movs	r2, #37	; 0x25
    25ce:	2e02      	cmp	r6, #2
    25d0:	d000      	beq.n	25d4 <gameStatus+0xa4>
    25d2:	3258      	adds	r2, #88	; 0x58
    25d4:	4b19      	ldr	r3, [pc, #100]	; (263c <gameStatus+0x10c>)
    25d6:	8858      	ldrh	r0, [r3, #2]
    25d8:	4b2a      	ldr	r3, [pc, #168]	; (2684 <gameStatus+0x154>)
    25da:	0700      	lsls	r0, r0, #28
    25dc:	d51a      	bpl.n	2614 <gameStatus+0xe4>
    25de:	545a      	strb	r2, [r3, r1]
    25e0:	47a0      	blx	r4
    25e2:	2e00      	cmp	r6, #0
    25e4:	d01f      	beq.n	2626 <gameStatus+0xf6>
    25e6:	47a0      	blx	r4
    25e8:	2e02      	cmp	r6, #2
    25ea:	d115      	bne.n	2618 <gameStatus+0xe8>
    25ec:	4926      	ldr	r1, [pc, #152]	; (2688 <gameStatus+0x158>)
    25ee:	4827      	ldr	r0, [pc, #156]	; (268c <gameStatus+0x15c>)
    25f0:	47a8      	blx	r5
    25f2:	47a0      	blx	r4
    25f4:	4b26      	ldr	r3, [pc, #152]	; (2690 <gameStatus+0x160>)
    25f6:	4798      	blx	r3
    25f8:	220c      	movs	r2, #12
    25fa:	4b26      	ldr	r3, [pc, #152]	; (2694 <gameStatus+0x164>)
    25fc:	781b      	ldrb	r3, [r3, #0]
    25fe:	4013      	ands	r3, r2
    2600:	4293      	cmp	r3, r2
    2602:	d106      	bne.n	2612 <gameStatus+0xe2>
    2604:	2e00      	cmp	r6, #0
    2606:	d104      	bne.n	2612 <gameStatus+0xe2>
    2608:	4b23      	ldr	r3, [pc, #140]	; (2698 <gameStatus+0x168>)
    260a:	3a0b      	subs	r2, #11
    260c:	701a      	strb	r2, [r3, #0]
    260e:	4b23      	ldr	r3, [pc, #140]	; (269c <gameStatus+0x16c>)
    2610:	4798      	blx	r3
    2612:	bdf8      	pop	{r3, r4, r5, r6, r7, pc}
    2614:	3202      	adds	r2, #2
    2616:	e7e2      	b.n	25de <gameStatus+0xae>
    2618:	4b08      	ldr	r3, [pc, #32]	; (263c <gameStatus+0x10c>)
    261a:	885b      	ldrh	r3, [r3, #2]
    261c:	071b      	lsls	r3, r3, #28
    261e:	d5e8      	bpl.n	25f2 <gameStatus+0xc2>
    2620:	491f      	ldr	r1, [pc, #124]	; (26a0 <gameStatus+0x170>)
    2622:	4820      	ldr	r0, [pc, #128]	; (26a4 <gameStatus+0x174>)
    2624:	e7e4      	b.n	25f0 <gameStatus+0xc0>
    2626:	4f20      	ldr	r7, [pc, #128]	; (26a8 <gameStatus+0x178>)
    2628:	4820      	ldr	r0, [pc, #128]	; (26ac <gameStatus+0x17c>)
    262a:	0039      	movs	r1, r7
    262c:	47a8      	blx	r5
    262e:	47a0      	blx	r4
    2630:	0039      	movs	r1, r7
    2632:	481f      	ldr	r0, [pc, #124]	; (26b0 <gameStatus+0x180>)
    2634:	e7dc      	b.n	25f0 <gameStatus+0xc0>
    2636:	46c0      	nop			; (mov r8, r8)
    2638:	0000088b 	.word	0x0000088b
    263c:	20000060 	.word	0x20000060
    2640:	20000616 	.word	0x20000616
    2644:	00003db9 	.word	0x00003db9
    2648:	000013f1 	.word	0x000013f1
    264c:	000024e1 	.word	0x000024e1
    2650:	2000060c 	.word	0x2000060c
    2654:	00003dc0 	.word	0x00003dc0
    2658:	20000705 	.word	0x20000705
    265c:	20000612 	.word	0x20000612
    2660:	0000138d 	.word	0x0000138d
    2664:	00003dc7 	.word	0x00003dc7
    2668:	00003dce 	.word	0x00003dce
    266c:	2000073f 	.word	0x2000073f
    2670:	00003dd5 	.word	0x00003dd5
    2674:	00003de6 	.word	0x00003de6
    2678:	20000844 	.word	0x20000844
    267c:	20000008 	.word	0x20000008
    2680:	0000ffff 	.word	0x0000ffff
    2684:	200005fc 	.word	0x200005fc
    2688:	20000610 	.word	0x20000610
    268c:	00003df7 	.word	0x00003df7
    2690:	00000889 	.word	0x00000889
    2694:	20000703 	.word	0x20000703
    2698:	200006ff 	.word	0x200006ff
    269c:	0000250d 	.word	0x0000250d
    26a0:	2000060f 	.word	0x2000060f
    26a4:	00003e01 	.word	0x00003e01
    26a8:	20000611 	.word	0x20000611
    26ac:	00003e0c 	.word	0x00003e0c
    26b0:	00003e18 	.word	0x00003e18

000026b4 <gameFrame>:
    26b4:	b5f7      	push	{r0, r1, r2, r4, r5, r6, r7, lr}
    26b6:	4bb3      	ldr	r3, [pc, #716]	; (2984 <gameFrame+0x2d0>)
    26b8:	4798      	blx	r3
    26ba:	466a      	mov	r2, sp
    26bc:	9000      	str	r0, [sp, #0]
    26be:	7812      	ldrb	r2, [r2, #0]
    26c0:	4bb1      	ldr	r3, [pc, #708]	; (2988 <gameFrame+0x2d4>)
    26c2:	2701      	movs	r7, #1
    26c4:	701a      	strb	r2, [r3, #0]
    26c6:	2300      	movs	r3, #0
    26c8:	469c      	mov	ip, r3
    26ca:	001e      	movs	r6, r3
    26cc:	001d      	movs	r5, r3
    26ce:	4aaf      	ldr	r2, [pc, #700]	; (298c <gameFrame+0x2d8>)
    26d0:	4caf      	ldr	r4, [pc, #700]	; (2990 <gameFrame+0x2dc>)
    26d2:	7013      	strb	r3, [r2, #0]
    26d4:	4aaf      	ldr	r2, [pc, #700]	; (2994 <gameFrame+0x2e0>)
    26d6:	7811      	ldrb	r1, [r2, #0]
    26d8:	4aaf      	ldr	r2, [pc, #700]	; (2998 <gameFrame+0x2e4>)
    26da:	7812      	ldrb	r2, [r2, #0]
    26dc:	9201      	str	r2, [sp, #4]
    26de:	4aaf      	ldr	r2, [pc, #700]	; (299c <gameFrame+0x2e8>)
    26e0:	9800      	ldr	r0, [sp, #0]
    26e2:	5caa      	ldrb	r2, [r5, r2]
    26e4:	4202      	tst	r2, r0
    26e6:	d058      	beq.n	279a <gameFrame+0xe6>
    26e8:	9801      	ldr	r0, [sp, #4]
    26ea:	4010      	ands	r0, r2
    26ec:	d04f      	beq.n	278e <gameFrame+0xda>
    26ee:	4316      	orrs	r6, r2
    26f0:	46bc      	mov	ip, r7
    26f2:	3501      	adds	r5, #1
    26f4:	2d07      	cmp	r5, #7
    26f6:	d1f2      	bne.n	26de <gameFrame+0x2a>
    26f8:	4662      	mov	r2, ip
    26fa:	4da4      	ldr	r5, [pc, #656]	; (298c <gameFrame+0x2d8>)
    26fc:	2a00      	cmp	r2, #0
    26fe:	d100      	bne.n	2702 <gameFrame+0x4e>
    2700:	e178      	b.n	29f4 <gameFrame+0x340>
    2702:	702e      	strb	r6, [r5, #0]
    2704:	2b00      	cmp	r3, #0
    2706:	d001      	beq.n	270c <gameFrame+0x58>
    2708:	4ba2      	ldr	r3, [pc, #648]	; (2994 <gameFrame+0x2e0>)
    270a:	7019      	strb	r1, [r3, #0]
    270c:	782a      	ldrb	r2, [r5, #0]
    270e:	07d3      	lsls	r3, r2, #31
    2710:	d507      	bpl.n	2722 <gameFrame+0x6e>
    2712:	7863      	ldrb	r3, [r4, #1]
    2714:	b259      	sxtb	r1, r3
    2716:	2900      	cmp	r1, #0
    2718:	da03      	bge.n	2722 <gameFrame+0x6e>
    271a:	2b90      	cmp	r3, #144	; 0x90
    271c:	d140      	bne.n	27a0 <gameFrame+0xec>
    271e:	3b10      	subs	r3, #16
    2720:	7063      	strb	r3, [r4, #1]
    2722:	2108      	movs	r1, #8
    2724:	9800      	ldr	r0, [sp, #0]
    2726:	4008      	ands	r0, r1
    2728:	d120      	bne.n	276c <gameFrame+0xb8>
    272a:	06d3      	lsls	r3, r2, #27
    272c:	d50d      	bpl.n	274a <gameFrame+0x96>
    272e:	7863      	ldrb	r3, [r4, #1]
    2730:	420b      	tst	r3, r1
    2732:	d00a      	beq.n	274a <gameFrame+0x96>
    2734:	2796      	movs	r7, #150	; 0x96
    2736:	4e9a      	ldr	r6, [pc, #616]	; (29a0 <gameFrame+0x2ec>)
    2738:	007f      	lsls	r7, r7, #1
    273a:	8237      	strh	r7, [r6, #16]
    273c:	3301      	adds	r3, #1
    273e:	4e99      	ldr	r6, [pc, #612]	; (29a4 <gameFrame+0x2f0>)
    2740:	b2db      	uxtb	r3, r3
    2742:	7030      	strb	r0, [r6, #0]
    2744:	2b0d      	cmp	r3, #13
    2746:	d031      	beq.n	27ac <gameFrame+0xf8>
    2748:	7063      	strb	r3, [r4, #1]
    274a:	0693      	lsls	r3, r2, #26
    274c:	d50e      	bpl.n	276c <gameFrame+0xb8>
    274e:	7863      	ldrb	r3, [r4, #1]
    2750:	071a      	lsls	r2, r3, #28
    2752:	d50b      	bpl.n	276c <gameFrame+0xb8>
    2754:	2100      	movs	r1, #0
    2756:	4a93      	ldr	r2, [pc, #588]	; (29a4 <gameFrame+0x2f0>)
    2758:	3b01      	subs	r3, #1
    275a:	7011      	strb	r1, [r2, #0]
    275c:	312d      	adds	r1, #45	; 0x2d
    275e:	4a90      	ldr	r2, [pc, #576]	; (29a0 <gameFrame+0x2ec>)
    2760:	31ff      	adds	r1, #255	; 0xff
    2762:	b2db      	uxtb	r3, r3
    2764:	8211      	strh	r1, [r2, #16]
    2766:	2b07      	cmp	r3, #7
    2768:	d022      	beq.n	27b0 <gameFrame+0xfc>
    276a:	7063      	strb	r3, [r4, #1]
    276c:	7863      	ldrb	r3, [r4, #1]
    276e:	2b09      	cmp	r3, #9
    2770:	d100      	bne.n	2774 <gameFrame+0xc0>
    2772:	e08c      	b.n	288e <gameFrame+0x1da>
    2774:	d848      	bhi.n	2808 <gameFrame+0x154>
    2776:	2b06      	cmp	r3, #6
    2778:	d100      	bne.n	277c <gameFrame+0xc8>
    277a:	e07a      	b.n	2872 <gameFrame+0x1be>
    277c:	d81a      	bhi.n	27b4 <gameFrame+0x100>
    277e:	2b05      	cmp	r3, #5
    2780:	d100      	bne.n	2784 <gameFrame+0xd0>
    2782:	e0a2      	b.n	28ca <gameFrame+0x216>
    2784:	2280      	movs	r2, #128	; 0x80
    2786:	4b88      	ldr	r3, [pc, #544]	; (29a8 <gameFrame+0x2f4>)
    2788:	0052      	lsls	r2, r2, #1
    278a:	619a      	str	r2, [r3, #24]
    278c:	bdf7      	pop	{r0, r1, r2, r4, r5, r6, r7, pc}
    278e:	4211      	tst	r1, r2
    2790:	d0af      	beq.n	26f2 <gameFrame+0x3e>
    2792:	4316      	orrs	r6, r2
    2794:	0001      	movs	r1, r0
    2796:	003b      	movs	r3, r7
    2798:	e7aa      	b.n	26f0 <gameFrame+0x3c>
    279a:	4311      	orrs	r1, r2
    279c:	003b      	movs	r3, r7
    279e:	e7a8      	b.n	26f2 <gameFrame+0x3e>
    27a0:	2390      	movs	r3, #144	; 0x90
    27a2:	2120      	movs	r1, #32
    27a4:	7063      	strb	r3, [r4, #1]
    27a6:	4b7e      	ldr	r3, [pc, #504]	; (29a0 <gameFrame+0x2ec>)
    27a8:	8059      	strh	r1, [r3, #2]
    27aa:	e7ba      	b.n	2722 <gameFrame+0x6e>
    27ac:	7061      	strb	r1, [r4, #1]
    27ae:	e7cc      	b.n	274a <gameFrame+0x96>
    27b0:	230c      	movs	r3, #12
    27b2:	e7da      	b.n	276a <gameFrame+0xb6>
    27b4:	2b07      	cmp	r3, #7
    27b6:	d04e      	beq.n	2856 <gameFrame+0x1a2>
    27b8:	2b08      	cmp	r3, #8
    27ba:	d1e3      	bne.n	2784 <gameFrame+0xd0>
    27bc:	4b79      	ldr	r3, [pc, #484]	; (29a4 <gameFrame+0x2f0>)
    27be:	781b      	ldrb	r3, [r3, #0]
    27c0:	2b00      	cmp	r3, #0
    27c2:	d101      	bne.n	27c8 <gameFrame+0x114>
    27c4:	4b79      	ldr	r3, [pc, #484]	; (29ac <gameFrame+0x2f8>)
    27c6:	4798      	blx	r3
    27c8:	4b79      	ldr	r3, [pc, #484]	; (29b0 <gameFrame+0x2fc>)
    27ca:	4798      	blx	r3
    27cc:	4c74      	ldr	r4, [pc, #464]	; (29a0 <gameFrame+0x2ec>)
    27ce:	8863      	ldrh	r3, [r4, #2]
    27d0:	3301      	adds	r3, #1
    27d2:	b29b      	uxth	r3, r3
    27d4:	8063      	strh	r3, [r4, #2]
    27d6:	07db      	lsls	r3, r3, #31
    27d8:	d502      	bpl.n	27e0 <gameFrame+0x12c>
    27da:	88e3      	ldrh	r3, [r4, #6]
    27dc:	3301      	adds	r3, #1
    27de:	80e3      	strh	r3, [r4, #6]
    27e0:	88e0      	ldrh	r0, [r4, #6]
    27e2:	4e74      	ldr	r6, [pc, #464]	; (29b4 <gameFrame+0x300>)
    27e4:	0840      	lsrs	r0, r0, #1
    27e6:	b2c0      	uxtb	r0, r0
    27e8:	2105      	movs	r1, #5
    27ea:	47b0      	blx	r6
    27ec:	88e0      	ldrh	r0, [r4, #6]
    27ee:	2106      	movs	r1, #6
    27f0:	0840      	lsrs	r0, r0, #1
    27f2:	b2c0      	uxtb	r0, r0
    27f4:	47b0      	blx	r6
    27f6:	79a0      	ldrb	r0, [r4, #6]
    27f8:	2107      	movs	r1, #7
    27fa:	47b0      	blx	r6
    27fc:	782b      	ldrb	r3, [r5, #0]
    27fe:	075b      	lsls	r3, r3, #29
    2800:	d5c0      	bpl.n	2784 <gameFrame+0xd0>
    2802:	4b6d      	ldr	r3, [pc, #436]	; (29b8 <gameFrame+0x304>)
    2804:	4798      	blx	r3
    2806:	e7bd      	b.n	2784 <gameFrame+0xd0>
    2808:	2b0c      	cmp	r3, #12
    280a:	d010      	beq.n	282e <gameFrame+0x17a>
    280c:	d807      	bhi.n	281e <gameFrame+0x16a>
    280e:	2b0a      	cmp	r3, #10
    2810:	d053      	beq.n	28ba <gameFrame+0x206>
    2812:	2b0b      	cmp	r3, #11
    2814:	d1b6      	bne.n	2784 <gameFrame+0xd0>
    2816:	4b66      	ldr	r3, [pc, #408]	; (29b0 <gameFrame+0x2fc>)
    2818:	4798      	blx	r3
    281a:	4b68      	ldr	r3, [pc, #416]	; (29bc <gameFrame+0x308>)
    281c:	e7f2      	b.n	2804 <gameFrame+0x150>
    281e:	2b80      	cmp	r3, #128	; 0x80
    2820:	d025      	beq.n	286e <gameFrame+0x1ba>
    2822:	2b90      	cmp	r3, #144	; 0x90
    2824:	d1ae      	bne.n	2784 <gameFrame+0xd0>
    2826:	2000      	movs	r0, #0
    2828:	4b65      	ldr	r3, [pc, #404]	; (29c0 <gameFrame+0x30c>)
    282a:	4798      	blx	r3
    282c:	e7aa      	b.n	2784 <gameFrame+0xd0>
    282e:	4d5d      	ldr	r5, [pc, #372]	; (29a4 <gameFrame+0x2f0>)
    2830:	782b      	ldrb	r3, [r5, #0]
    2832:	2b00      	cmp	r3, #0
    2834:	d101      	bne.n	283a <gameFrame+0x186>
    2836:	4b63      	ldr	r3, [pc, #396]	; (29c4 <gameFrame+0x310>)
    2838:	4798      	blx	r3
    283a:	4b63      	ldr	r3, [pc, #396]	; (29c8 <gameFrame+0x314>)
    283c:	4798      	blx	r3
    283e:	7ee3      	ldrb	r3, [r4, #27]
    2840:	2b00      	cmp	r3, #0
    2842:	d09f      	beq.n	2784 <gameFrame+0xd0>
    2844:	3b01      	subs	r3, #1
    2846:	b2db      	uxtb	r3, r3
    2848:	76e3      	strb	r3, [r4, #27]
    284a:	2b00      	cmp	r3, #0
    284c:	d19a      	bne.n	2784 <gameFrame+0xd0>
    284e:	2208      	movs	r2, #8
    2850:	702b      	strb	r3, [r5, #0]
    2852:	7062      	strb	r2, [r4, #1]
    2854:	e796      	b.n	2784 <gameFrame+0xd0>
    2856:	4b5a      	ldr	r3, [pc, #360]	; (29c0 <gameFrame+0x30c>)
    2858:	2001      	movs	r0, #1
    285a:	4798      	blx	r3
    285c:	4b50      	ldr	r3, [pc, #320]	; (29a0 <gameFrame+0x2ec>)
    285e:	885b      	ldrh	r3, [r3, #2]
    2860:	2b78      	cmp	r3, #120	; 0x78
    2862:	d000      	beq.n	2866 <gameFrame+0x1b2>
    2864:	e78e      	b.n	2784 <gameFrame+0xd0>
    2866:	3308      	adds	r3, #8
    2868:	7063      	strb	r3, [r4, #1]
    286a:	4b58      	ldr	r3, [pc, #352]	; (29cc <gameFrame+0x318>)
    286c:	e7ca      	b.n	2804 <gameFrame+0x150>
    286e:	4b58      	ldr	r3, [pc, #352]	; (29d0 <gameFrame+0x31c>)
    2870:	e7c8      	b.n	2804 <gameFrame+0x150>
    2872:	4b53      	ldr	r3, [pc, #332]	; (29c0 <gameFrame+0x30c>)
    2874:	2002      	movs	r0, #2
    2876:	4798      	blx	r3
    2878:	4b49      	ldr	r3, [pc, #292]	; (29a0 <gameFrame+0x2ec>)
    287a:	885b      	ldrh	r3, [r3, #2]
    287c:	2bb4      	cmp	r3, #180	; 0xb4
    287e:	d000      	beq.n	2882 <gameFrame+0x1ce>
    2880:	e780      	b.n	2784 <gameFrame+0xd0>
    2882:	2200      	movs	r2, #0
    2884:	3baf      	subs	r3, #175	; 0xaf
    2886:	7063      	strb	r3, [r4, #1]
    2888:	4b46      	ldr	r3, [pc, #280]	; (29a4 <gameFrame+0x2f0>)
    288a:	701a      	strb	r2, [r3, #0]
    288c:	e77a      	b.n	2784 <gameFrame+0xd0>
    288e:	4b48      	ldr	r3, [pc, #288]	; (29b0 <gameFrame+0x2fc>)
    2890:	4798      	blx	r3
    2892:	4b50      	ldr	r3, [pc, #320]	; (29d4 <gameFrame+0x320>)
    2894:	4798      	blx	r3
    2896:	782b      	ldrb	r3, [r5, #0]
    2898:	071b      	lsls	r3, r3, #28
    289a:	d400      	bmi.n	289e <gameFrame+0x1ea>
    289c:	e772      	b.n	2784 <gameFrame+0xd0>
    289e:	2296      	movs	r2, #150	; 0x96
    28a0:	4b3f      	ldr	r3, [pc, #252]	; (29a0 <gameFrame+0x2ec>)
    28a2:	0052      	lsls	r2, r2, #1
    28a4:	821a      	strh	r2, [r3, #16]
    28a6:	3303      	adds	r3, #3
    28a8:	7fda      	ldrb	r2, [r3, #31]
    28aa:	3201      	adds	r2, #1
    28ac:	b2d2      	uxtb	r2, r2
    28ae:	2a03      	cmp	r2, #3
    28b0:	d001      	beq.n	28b6 <gameFrame+0x202>
    28b2:	77da      	strb	r2, [r3, #31]
    28b4:	e766      	b.n	2784 <gameFrame+0xd0>
    28b6:	2200      	movs	r2, #0
    28b8:	e7fb      	b.n	28b2 <gameFrame+0x1fe>
    28ba:	4b3a      	ldr	r3, [pc, #232]	; (29a4 <gameFrame+0x2f0>)
    28bc:	781b      	ldrb	r3, [r3, #0]
    28be:	2b00      	cmp	r3, #0
    28c0:	d101      	bne.n	28c6 <gameFrame+0x212>
    28c2:	4b45      	ldr	r3, [pc, #276]	; (29d8 <gameFrame+0x324>)
    28c4:	4798      	blx	r3
    28c6:	4b3a      	ldr	r3, [pc, #232]	; (29b0 <gameFrame+0x2fc>)
    28c8:	e79c      	b.n	2804 <gameFrame+0x150>
    28ca:	4b36      	ldr	r3, [pc, #216]	; (29a4 <gameFrame+0x2f0>)
    28cc:	781b      	ldrb	r3, [r3, #0]
    28ce:	2b00      	cmp	r3, #0
    28d0:	d101      	bne.n	28d6 <gameFrame+0x222>
    28d2:	4b42      	ldr	r3, [pc, #264]	; (29dc <gameFrame+0x328>)
    28d4:	4798      	blx	r3
    28d6:	4b42      	ldr	r3, [pc, #264]	; (29e0 <gameFrame+0x32c>)
    28d8:	4798      	blx	r3
    28da:	4b42      	ldr	r3, [pc, #264]	; (29e4 <gameFrame+0x330>)
    28dc:	7be6      	ldrb	r6, [r4, #15]
    28de:	001a      	movs	r2, r3
    28e0:	0018      	movs	r0, r3
    28e2:	32a7      	adds	r2, #167	; 0xa7
    28e4:	7811      	ldrb	r1, [r2, #0]
    28e6:	0022      	movs	r2, r4
    28e8:	3060      	adds	r0, #96	; 0x60
    28ea:	7006      	strb	r6, [r0, #0]
    28ec:	0018      	movs	r0, r3
    28ee:	320f      	adds	r2, #15
    28f0:	7856      	ldrb	r6, [r2, #1]
    28f2:	3061      	adds	r0, #97	; 0x61
    28f4:	7006      	strb	r6, [r0, #0]
    28f6:	7890      	ldrb	r0, [r2, #2]
    28f8:	4e29      	ldr	r6, [pc, #164]	; (29a0 <gameFrame+0x2ec>)
    28fa:	3362      	adds	r3, #98	; 0x62
    28fc:	7018      	strb	r0, [r3, #0]
    28fe:	8a33      	ldrh	r3, [r6, #16]
    2900:	2b00      	cmp	r3, #0
    2902:	d00c      	beq.n	291e <gameFrame+0x26a>
    2904:	3301      	adds	r3, #1
    2906:	b29b      	uxth	r3, r3
    2908:	8233      	strh	r3, [r6, #16]
    290a:	2b5a      	cmp	r3, #90	; 0x5a
    290c:	d101      	bne.n	2912 <gameFrame+0x25e>
    290e:	4b36      	ldr	r3, [pc, #216]	; (29e8 <gameFrame+0x334>)
    2910:	4798      	blx	r3
    2912:	4b27      	ldr	r3, [pc, #156]	; (29b0 <gameFrame+0x2fc>)
    2914:	4798      	blx	r3
    2916:	8873      	ldrh	r3, [r6, #2]
    2918:	3301      	adds	r3, #1
    291a:	8073      	strh	r3, [r6, #2]
    291c:	e732      	b.n	2784 <gameFrame+0xd0>
    291e:	8870      	ldrh	r0, [r6, #2]
    2920:	7823      	ldrb	r3, [r4, #0]
    2922:	0700      	lsls	r0, r0, #28
    2924:	d52b      	bpl.n	297e <gameFrame+0x2ca>
    2926:	207c      	movs	r0, #124	; 0x7c
    2928:	54d0      	strb	r0, [r2, r3]
    292a:	782a      	ldrb	r2, [r5, #0]
    292c:	0713      	lsls	r3, r2, #28
    292e:	d508      	bpl.n	2942 <gameFrame+0x28e>
    2930:	7823      	ldrb	r3, [r4, #0]
    2932:	2b00      	cmp	r3, #0
    2934:	d005      	beq.n	2942 <gameFrame+0x28e>
    2936:	1e58      	subs	r0, r3, #1
    2938:	7020      	strb	r0, [r4, #0]
    293a:	0020      	movs	r0, r4
    293c:	257c      	movs	r5, #124	; 0x7c
    293e:	300f      	adds	r0, #15
    2940:	54c5      	strb	r5, [r0, r3]
    2942:	0753      	lsls	r3, r2, #29
    2944:	d50a      	bpl.n	295c <gameFrame+0x2a8>
    2946:	0020      	movs	r0, r4
    2948:	7823      	ldrb	r3, [r4, #0]
    294a:	300f      	adds	r0, #15
    294c:	54c1      	strb	r1, [r0, r3]
    294e:	3301      	adds	r3, #1
    2950:	b2db      	uxtb	r3, r3
    2952:	7023      	strb	r3, [r4, #0]
    2954:	2b03      	cmp	r3, #3
    2956:	d101      	bne.n	295c <gameFrame+0x2a8>
    2958:	3b02      	subs	r3, #2
    295a:	8233      	strh	r3, [r6, #16]
    295c:	06d3      	lsls	r3, r2, #27
    295e:	d505      	bpl.n	296c <gameFrame+0x2b8>
    2960:	78e3      	ldrb	r3, [r4, #3]
    2962:	3301      	adds	r3, #1
    2964:	b2db      	uxtb	r3, r3
    2966:	2b5a      	cmp	r3, #90	; 0x5a
    2968:	d840      	bhi.n	29ec <gameFrame+0x338>
    296a:	70e3      	strb	r3, [r4, #3]
    296c:	0693      	lsls	r3, r2, #26
    296e:	d5d0      	bpl.n	2912 <gameFrame+0x25e>
    2970:	78e3      	ldrb	r3, [r4, #3]
    2972:	3b01      	subs	r3, #1
    2974:	b2db      	uxtb	r3, r3
    2976:	2b40      	cmp	r3, #64	; 0x40
    2978:	d93a      	bls.n	29f0 <gameFrame+0x33c>
    297a:	70e3      	strb	r3, [r4, #3]
    297c:	e7c9      	b.n	2912 <gameFrame+0x25e>
    297e:	54d1      	strb	r1, [r2, r3]
    2980:	e7d3      	b.n	292a <gameFrame+0x276>
    2982:	46c0      	nop			; (mov r8, r8)
    2984:	000003c9 	.word	0x000003c9
    2988:	20000703 	.word	0x20000703
    298c:	2000073e 	.word	0x2000073e
    2990:	20000008 	.word	0x20000008
    2994:	200006ff 	.word	0x200006ff
    2998:	200005e9 	.word	0x200005e9
    299c:	2000001c 	.word	0x2000001c
    29a0:	20000060 	.word	0x20000060
    29a4:	20000845 	.word	0x20000845
    29a8:	41004400 	.word	0x41004400
    29ac:	00001de5 	.word	0x00001de5
    29b0:	0000211d 	.word	0x0000211d
    29b4:	00000605 	.word	0x00000605
    29b8:	000010fd 	.word	0x000010fd
    29bc:	00001bb1 	.word	0x00001bb1
    29c0:	00002531 	.word	0x00002531
    29c4:	00001249 	.word	0x00001249
    29c8:	00000329 	.word	0x00000329
    29cc:	00001ef9 	.word	0x00001ef9
    29d0:	0000214d 	.word	0x0000214d
    29d4:	00001c79 	.word	0x00001c79
    29d8:	00001b25 	.word	0x00001b25
    29dc:	00001e51 	.word	0x00001e51
    29e0:	0000126d 	.word	0x0000126d
    29e4:	200005fc 	.word	0x200005fc
    29e8:	00002059 	.word	0x00002059
    29ec:	2341      	movs	r3, #65	; 0x41
    29ee:	e7bc      	b.n	296a <gameFrame+0x2b6>
    29f0:	235a      	movs	r3, #90	; 0x5a
    29f2:	e7c2      	b.n	297a <gameFrame+0x2c6>
    29f4:	2b00      	cmp	r3, #0
    29f6:	d000      	beq.n	29fa <gameFrame+0x346>
    29f8:	e686      	b.n	2708 <gameFrame+0x54>
    29fa:	782a      	ldrb	r2, [r5, #0]
    29fc:	e691      	b.n	2722 <gameFrame+0x6e>
    29fe:	46c0      	nop			; (mov r8, r8)

00002a00 <systemLoop>:
    2a00:	b510      	push	{r4, lr}
    2a02:	4b07      	ldr	r3, [pc, #28]	; (2a20 <systemLoop+0x20>)
    2a04:	1d58      	adds	r0, r3, #5
    2a06:	3306      	adds	r3, #6
    2a08:	7fc2      	ldrb	r2, [r0, #31]
    2a0a:	b2d2      	uxtb	r2, r2
    2a0c:	2a00      	cmp	r2, #0
    2a0e:	d1fb      	bne.n	2a08 <systemLoop+0x8>
    2a10:	7fd9      	ldrb	r1, [r3, #31]
    2a12:	2910      	cmp	r1, #16
    2a14:	d1f8      	bne.n	2a08 <systemLoop+0x8>
    2a16:	77da      	strb	r2, [r3, #31]
    2a18:	4b02      	ldr	r3, [pc, #8]	; (2a24 <systemLoop+0x24>)
    2a1a:	4798      	blx	r3
    2a1c:	e7f1      	b.n	2a02 <systemLoop+0x2>
    2a1e:	46c0      	nop			; (mov r8, r8)
    2a20:	20000060 	.word	0x20000060
    2a24:	000026b5 	.word	0x000026b5

00002a28 <writeDefaultHighScores>:
    2a28:	b5f0      	push	{r4, r5, r6, r7, lr}
    2a2a:	2201      	movs	r2, #1
    2a2c:	2503      	movs	r5, #3
    2a2e:	2441      	movs	r4, #65	; 0x41
    2a30:	2042      	movs	r0, #66	; 0x42
    2a32:	2143      	movs	r1, #67	; 0x43
    2a34:	002b      	movs	r3, r5
    2a36:	4353      	muls	r3, r2
    2a38:	4e09      	ldr	r6, [pc, #36]	; (2a60 <writeDefaultHighScores+0x38>)
    2a3a:	4f0a      	ldr	r7, [pc, #40]	; (2a64 <writeDefaultHighScores+0x3c>)
    2a3c:	199b      	adds	r3, r3, r6
    2a3e:	1ede      	subs	r6, r3, #3
    2a40:	7034      	strb	r4, [r6, #0]
    2a42:	1e9e      	subs	r6, r3, #2
    2a44:	3b01      	subs	r3, #1
    2a46:	7030      	strb	r0, [r6, #0]
    2a48:	7019      	strb	r1, [r3, #0]
    2a4a:	4b07      	ldr	r3, [pc, #28]	; (2a68 <writeDefaultHighScores+0x40>)
    2a4c:	0096      	lsls	r6, r2, #2
    2a4e:	4353      	muls	r3, r2
    2a50:	19db      	adds	r3, r3, r7
    2a52:	4f06      	ldr	r7, [pc, #24]	; (2a6c <writeDefaultHighScores+0x44>)
    2a54:	3e04      	subs	r6, #4
    2a56:	3201      	adds	r2, #1
    2a58:	51bb      	str	r3, [r7, r6]
    2a5a:	2a08      	cmp	r2, #8
    2a5c:	d1ea      	bne.n	2a34 <writeDefaultHighScores+0xc>
    2a5e:	bdf0      	pop	{r4, r5, r6, r7, pc}
    2a60:	20000728 	.word	0x20000728
    2a64:	0000157c 	.word	0x0000157c
    2a68:	fffffe0c 	.word	0xfffffe0c
    2a6c:	20000708 	.word	0x20000708

00002a70 <gameSetup>:
    2a70:	b510      	push	{r4, lr}
    2a72:	4b03      	ldr	r3, [pc, #12]	; (2a80 <gameSetup+0x10>)
    2a74:	4798      	blx	r3
    2a76:	2000      	movs	r0, #0
    2a78:	4b02      	ldr	r3, [pc, #8]	; (2a84 <gameSetup+0x14>)
    2a7a:	4798      	blx	r3
    2a7c:	bd10      	pop	{r4, pc}
    2a7e:	46c0      	nop			; (mov r8, r8)
    2a80:	00002a29 	.word	0x00002a29
    2a84:	00000721 	.word	0x00000721

00002a88 <SysTick_Handler>:
    2a88:	b510      	push	{r4, lr}
    2a8a:	4a04      	ldr	r2, [pc, #16]	; (2a9c <SysTick_Handler+0x14>)
    2a8c:	3206      	adds	r2, #6
    2a8e:	7fd3      	ldrb	r3, [r2, #31]
    2a90:	3301      	adds	r3, #1
    2a92:	b2db      	uxtb	r3, r3
    2a94:	77d3      	strb	r3, [r2, #31]
    2a96:	4b02      	ldr	r3, [pc, #8]	; (2aa0 <SysTick_Handler+0x18>)
    2a98:	4798      	blx	r3
    2a9a:	bd10      	pop	{r4, pc}
    2a9c:	20000060 	.word	0x20000060
    2aa0:	000003d5 	.word	0x000003d5

00002aa4 <main>:
    2aa4:	b570      	push	{r4, r5, r6, lr}
    2aa6:	4b33      	ldr	r3, [pc, #204]	; (2b74 <main+0xd0>)
    2aa8:	4798      	blx	r3
    2aaa:	4b33      	ldr	r3, [pc, #204]	; (2b78 <main+0xd4>)
    2aac:	4798      	blx	r3
    2aae:	2304      	movs	r3, #4
    2ab0:	4c32      	ldr	r4, [pc, #200]	; (2b7c <main+0xd8>)
    2ab2:	2580      	movs	r5, #128	; 0x80
    2ab4:	60a3      	str	r3, [r4, #8]
    2ab6:	61a3      	str	r3, [r4, #24]
    2ab8:	33fd      	adds	r3, #253	; 0xfd
    2aba:	33ff      	adds	r3, #255	; 0xff
    2abc:	60a3      	str	r3, [r4, #8]
    2abe:	61a3      	str	r3, [r4, #24]
    2ac0:	2380      	movs	r3, #128	; 0x80
    2ac2:	006d      	lsls	r5, r5, #1
    2ac4:	045b      	lsls	r3, r3, #17
    2ac6:	60a3      	str	r3, [r4, #8]
    2ac8:	61a3      	str	r3, [r4, #24]
    2aca:	60a5      	str	r5, [r4, #8]
    2acc:	4b2c      	ldr	r3, [pc, #176]	; (2b80 <main+0xdc>)
    2ace:	6165      	str	r5, [r4, #20]
    2ad0:	4798      	blx	r3
    2ad2:	4b2c      	ldr	r3, [pc, #176]	; (2b84 <main+0xe0>)
    2ad4:	4798      	blx	r3
    2ad6:	2120      	movs	r1, #32
    2ad8:	4a2b      	ldr	r2, [pc, #172]	; (2b88 <main+0xe4>)
    2ada:	482c      	ldr	r0, [pc, #176]	; (2b8c <main+0xe8>)
    2adc:	6a13      	ldr	r3, [r2, #32]
    2ade:	430b      	orrs	r3, r1
    2ae0:	6213      	str	r3, [r2, #32]
    2ae2:	4a2b      	ldr	r2, [pc, #172]	; (2b90 <main+0xec>)
    2ae4:	4b2b      	ldr	r3, [pc, #172]	; (2b94 <main+0xf0>)
    2ae6:	805a      	strh	r2, [r3, #2]
    2ae8:	2300      	movs	r3, #0
    2aea:	4a2b      	ldr	r2, [pc, #172]	; (2b98 <main+0xf4>)
    2aec:	6013      	str	r3, [r2, #0]
    2aee:	6410      	str	r0, [r2, #64]	; 0x40
    2af0:	2002      	movs	r0, #2
    2af2:	63d0      	str	r0, [r2, #60]	; 0x3c
    2af4:	20a0      	movs	r0, #160	; 0xa0
    2af6:	0140      	lsls	r0, r0, #5
    2af8:	6153      	str	r3, [r2, #20]
    2afa:	6010      	str	r0, [r2, #0]
    2afc:	4827      	ldr	r0, [pc, #156]	; (2b9c <main+0xf8>)
    2afe:	4308      	orrs	r0, r1
    2b00:	62a0      	str	r0, [r4, #40]	; 0x28
    2b02:	60a1      	str	r1, [r4, #8]
    2b04:	6493      	str	r3, [r2, #72]	; 0x48
    2b06:	4926      	ldr	r1, [pc, #152]	; (2ba0 <main+0xfc>)
    2b08:	4a26      	ldr	r2, [pc, #152]	; (2ba4 <main+0x100>)
    2b0a:	4827      	ldr	r0, [pc, #156]	; (2ba8 <main+0x104>)
    2b0c:	600b      	str	r3, [r1, #0]
    2b0e:	604a      	str	r2, [r1, #4]
    2b10:	6a02      	ldr	r2, [r0, #32]
    2b12:	0212      	lsls	r2, r2, #8
    2b14:	0a12      	lsrs	r2, r2, #8
    2b16:	6202      	str	r2, [r0, #32]
    2b18:	2207      	movs	r2, #7
    2b1a:	608b      	str	r3, [r1, #8]
    2b1c:	600a      	str	r2, [r1, #0]
    2b1e:	4a23      	ldr	r2, [pc, #140]	; (2bac <main+0x108>)
    2b20:	6811      	ldr	r1, [r2, #0]
    2b22:	430d      	orrs	r5, r1
    2b24:	6015      	str	r5, [r2, #0]
    2b26:	4922      	ldr	r1, [pc, #136]	; (2bb0 <main+0x10c>)
    2b28:	4a22      	ldr	r2, [pc, #136]	; (2bb4 <main+0x110>)
    2b2a:	8011      	strh	r1, [r2, #0]
    2b2c:	2103      	movs	r1, #3
    2b2e:	4a22      	ldr	r2, [pc, #136]	; (2bb8 <main+0x114>)
    2b30:	7011      	strb	r1, [r2, #0]
    2b32:	4922      	ldr	r1, [pc, #136]	; (2bbc <main+0x118>)
    2b34:	780a      	ldrb	r2, [r1, #0]
    2b36:	b2d2      	uxtb	r2, r2
    2b38:	700a      	strb	r2, [r1, #0]
    2b3a:	4a21      	ldr	r2, [pc, #132]	; (2bc0 <main+0x11c>)
    2b3c:	7013      	strb	r3, [r2, #0]
    2b3e:	4a21      	ldr	r2, [pc, #132]	; (2bc4 <main+0x120>)
    2b40:	0011      	movs	r1, r2
    2b42:	7813      	ldrb	r3, [r2, #0]
    2b44:	b25b      	sxtb	r3, r3
    2b46:	2b00      	cmp	r3, #0
    2b48:	dbfb      	blt.n	2b42 <main+0x9e>
    2b4a:	4b1f      	ldr	r3, [pc, #124]	; (2bc8 <main+0x124>)
    2b4c:	889a      	ldrh	r2, [r3, #4]
    2b4e:	b292      	uxth	r2, r2
    2b50:	809a      	strh	r2, [r3, #4]
    2b52:	780a      	ldrb	r2, [r1, #0]
    2b54:	b252      	sxtb	r2, r2
    2b56:	2a00      	cmp	r2, #0
    2b58:	dbfb      	blt.n	2b52 <main+0xae>
    2b5a:	2202      	movs	r2, #2
    2b5c:	7819      	ldrb	r1, [r3, #0]
    2b5e:	430a      	orrs	r2, r1
    2b60:	701a      	strb	r2, [r3, #0]
    2b62:	7e5c      	ldrb	r4, [r3, #25]
    2b64:	09e4      	lsrs	r4, r4, #7
    2b66:	d1fc      	bne.n	2b62 <main+0xbe>
    2b68:	4b18      	ldr	r3, [pc, #96]	; (2bcc <main+0x128>)
    2b6a:	4798      	blx	r3
    2b6c:	4b18      	ldr	r3, [pc, #96]	; (2bd0 <main+0x12c>)
    2b6e:	4798      	blx	r3
    2b70:	0020      	movs	r0, r4
    2b72:	bd70      	pop	{r4, r5, r6, pc}
    2b74:	000001ad 	.word	0x000001ad
    2b78:	000001bd 	.word	0x000001bd
    2b7c:	41004400 	.word	0x41004400
    2b80:	0000088d 	.word	0x0000088d
    2b84:	000007c9 	.word	0x000007c9
    2b88:	40000400 	.word	0x40000400
    2b8c:	00001770 	.word	0x00001770
    2b90:	00004011 	.word	0x00004011
    2b94:	40000c00 	.word	0x40000c00
    2b98:	42001400 	.word	0x42001400
    2b9c:	55030000 	.word	0x55030000
    2ba0:	e000e010 	.word	0xe000e010
    2ba4:	0000bb80 	.word	0x0000bb80
    2ba8:	e000ed00 	.word	0xe000ed00
    2bac:	40000420 	.word	0x40000420
    2bb0:	00004013 	.word	0x00004013
    2bb4:	40000c02 	.word	0x40000c02
    2bb8:	42002001 	.word	0x42002001
    2bbc:	42002002 	.word	0x42002002
    2bc0:	42002003 	.word	0x42002003
    2bc4:	42002019 	.word	0x42002019
    2bc8:	42002000 	.word	0x42002000
    2bcc:	00002a71 	.word	0x00002a71
    2bd0:	00002a01 	.word	0x00002a01

00002bd4 <__gnu_thumb1_case_uqi>:
    2bd4:	b402      	push	{r1}
    2bd6:	4671      	mov	r1, lr
    2bd8:	0849      	lsrs	r1, r1, #1
    2bda:	0049      	lsls	r1, r1, #1
    2bdc:	5c09      	ldrb	r1, [r1, r0]
    2bde:	0049      	lsls	r1, r1, #1
    2be0:	448e      	add	lr, r1
    2be2:	bc02      	pop	{r1}
    2be4:	4770      	bx	lr
    2be6:	46c0      	nop			; (mov r8, r8)

00002be8 <__gnu_thumb1_case_uhi>:
    2be8:	b403      	push	{r0, r1}
    2bea:	4671      	mov	r1, lr
    2bec:	0849      	lsrs	r1, r1, #1
    2bee:	0040      	lsls	r0, r0, #1
    2bf0:	0049      	lsls	r1, r1, #1
    2bf2:	5a09      	ldrh	r1, [r1, r0]
    2bf4:	0049      	lsls	r1, r1, #1
    2bf6:	448e      	add	lr, r1
    2bf8:	bc03      	pop	{r0, r1}
    2bfa:	4770      	bx	lr

00002bfc <__udivsi3>:
    2bfc:	2200      	movs	r2, #0
    2bfe:	0843      	lsrs	r3, r0, #1
    2c00:	428b      	cmp	r3, r1
    2c02:	d374      	bcc.n	2cee <__udivsi3+0xf2>
    2c04:	0903      	lsrs	r3, r0, #4
    2c06:	428b      	cmp	r3, r1
    2c08:	d35f      	bcc.n	2cca <__udivsi3+0xce>
    2c0a:	0a03      	lsrs	r3, r0, #8
    2c0c:	428b      	cmp	r3, r1
    2c0e:	d344      	bcc.n	2c9a <__udivsi3+0x9e>
    2c10:	0b03      	lsrs	r3, r0, #12
    2c12:	428b      	cmp	r3, r1
    2c14:	d328      	bcc.n	2c68 <__udivsi3+0x6c>
    2c16:	0c03      	lsrs	r3, r0, #16
    2c18:	428b      	cmp	r3, r1
    2c1a:	d30d      	bcc.n	2c38 <__udivsi3+0x3c>
    2c1c:	22ff      	movs	r2, #255	; 0xff
    2c1e:	0209      	lsls	r1, r1, #8
    2c20:	ba12      	rev	r2, r2
    2c22:	0c03      	lsrs	r3, r0, #16
    2c24:	428b      	cmp	r3, r1
    2c26:	d302      	bcc.n	2c2e <__udivsi3+0x32>
    2c28:	1212      	asrs	r2, r2, #8
    2c2a:	0209      	lsls	r1, r1, #8
    2c2c:	d065      	beq.n	2cfa <__udivsi3+0xfe>
    2c2e:	0b03      	lsrs	r3, r0, #12
    2c30:	428b      	cmp	r3, r1
    2c32:	d319      	bcc.n	2c68 <__udivsi3+0x6c>
    2c34:	e000      	b.n	2c38 <__udivsi3+0x3c>
    2c36:	0a09      	lsrs	r1, r1, #8
    2c38:	0bc3      	lsrs	r3, r0, #15
    2c3a:	428b      	cmp	r3, r1
    2c3c:	d301      	bcc.n	2c42 <__udivsi3+0x46>
    2c3e:	03cb      	lsls	r3, r1, #15
    2c40:	1ac0      	subs	r0, r0, r3
    2c42:	4152      	adcs	r2, r2
    2c44:	0b83      	lsrs	r3, r0, #14
    2c46:	428b      	cmp	r3, r1
    2c48:	d301      	bcc.n	2c4e <__udivsi3+0x52>
    2c4a:	038b      	lsls	r3, r1, #14
    2c4c:	1ac0      	subs	r0, r0, r3
    2c4e:	4152      	adcs	r2, r2
    2c50:	0b43      	lsrs	r3, r0, #13
    2c52:	428b      	cmp	r3, r1
    2c54:	d301      	bcc.n	2c5a <__udivsi3+0x5e>
    2c56:	034b      	lsls	r3, r1, #13
    2c58:	1ac0      	subs	r0, r0, r3
    2c5a:	4152      	adcs	r2, r2
    2c5c:	0b03      	lsrs	r3, r0, #12
    2c5e:	428b      	cmp	r3, r1
    2c60:	d301      	bcc.n	2c66 <__udivsi3+0x6a>
    2c62:	030b      	lsls	r3, r1, #12
    2c64:	1ac0      	subs	r0, r0, r3
    2c66:	4152      	adcs	r2, r2
    2c68:	0ac3      	lsrs	r3, r0, #11
    2c6a:	428b      	cmp	r3, r1
    2c6c:	d301      	bcc.n	2c72 <__udivsi3+0x76>
    2c6e:	02cb      	lsls	r3, r1, #11
    2c70:	1ac0      	subs	r0, r0, r3
    2c72:	4152      	adcs	r2, r2
    2c74:	0a83      	lsrs	r3, r0, #10
    2c76:	428b      	cmp	r3, r1
    2c78:	d301      	bcc.n	2c7e <__udivsi3+0x82>
    2c7a:	028b      	lsls	r3, r1, #10
    2c7c:	1ac0      	subs	r0, r0, r3
    2c7e:	4152      	adcs	r2, r2
    2c80:	0a43      	lsrs	r3, r0, #9
    2c82:	428b      	cmp	r3, r1
    2c84:	d301      	bcc.n	2c8a <__udivsi3+0x8e>
    2c86:	024b      	lsls	r3, r1, #9
    2c88:	1ac0      	subs	r0, r0, r3
    2c8a:	4152      	adcs	r2, r2
    2c8c:	0a03      	lsrs	r3, r0, #8
    2c8e:	428b      	cmp	r3, r1
    2c90:	d301      	bcc.n	2c96 <__udivsi3+0x9a>
    2c92:	020b      	lsls	r3, r1, #8
    2c94:	1ac0      	subs	r0, r0, r3
    2c96:	4152      	adcs	r2, r2
    2c98:	d2cd      	bcs.n	2c36 <__udivsi3+0x3a>
    2c9a:	09c3      	lsrs	r3, r0, #7
    2c9c:	428b      	cmp	r3, r1
    2c9e:	d301      	bcc.n	2ca4 <__udivsi3+0xa8>
    2ca0:	01cb      	lsls	r3, r1, #7
    2ca2:	1ac0      	subs	r0, r0, r3
    2ca4:	4152      	adcs	r2, r2
    2ca6:	0983      	lsrs	r3, r0, #6
    2ca8:	428b      	cmp	r3, r1
    2caa:	d301      	bcc.n	2cb0 <__udivsi3+0xb4>
    2cac:	018b      	lsls	r3, r1, #6
    2cae:	1ac0      	subs	r0, r0, r3
    2cb0:	4152      	adcs	r2, r2
    2cb2:	0943      	lsrs	r3, r0, #5
    2cb4:	428b      	cmp	r3, r1
    2cb6:	d301      	bcc.n	2cbc <__udivsi3+0xc0>
    2cb8:	014b      	lsls	r3, r1, #5
    2cba:	1ac0      	subs	r0, r0, r3
    2cbc:	4152      	adcs	r2, r2
    2cbe:	0903      	lsrs	r3, r0, #4
    2cc0:	428b      	cmp	r3, r1
    2cc2:	d301      	bcc.n	2cc8 <__udivsi3+0xcc>
    2cc4:	010b      	lsls	r3, r1, #4
    2cc6:	1ac0      	subs	r0, r0, r3
    2cc8:	4152      	adcs	r2, r2
    2cca:	08c3      	lsrs	r3, r0, #3
    2ccc:	428b      	cmp	r3, r1
    2cce:	d301      	bcc.n	2cd4 <__udivsi3+0xd8>
    2cd0:	00cb      	lsls	r3, r1, #3
    2cd2:	1ac0      	subs	r0, r0, r3
    2cd4:	4152      	adcs	r2, r2
    2cd6:	0883      	lsrs	r3, r0, #2
    2cd8:	428b      	cmp	r3, r1
    2cda:	d301      	bcc.n	2ce0 <__udivsi3+0xe4>
    2cdc:	008b      	lsls	r3, r1, #2
    2cde:	1ac0      	subs	r0, r0, r3
    2ce0:	4152      	adcs	r2, r2
    2ce2:	0843      	lsrs	r3, r0, #1
    2ce4:	428b      	cmp	r3, r1
    2ce6:	d301      	bcc.n	2cec <__udivsi3+0xf0>
    2ce8:	004b      	lsls	r3, r1, #1
    2cea:	1ac0      	subs	r0, r0, r3
    2cec:	4152      	adcs	r2, r2
    2cee:	1a41      	subs	r1, r0, r1
    2cf0:	d200      	bcs.n	2cf4 <__udivsi3+0xf8>
    2cf2:	4601      	mov	r1, r0
    2cf4:	4152      	adcs	r2, r2
    2cf6:	4610      	mov	r0, r2
    2cf8:	4770      	bx	lr
    2cfa:	e7ff      	b.n	2cfc <__udivsi3+0x100>
    2cfc:	b501      	push	{r0, lr}
    2cfe:	2000      	movs	r0, #0
    2d00:	f000 f806 	bl	2d10 <__aeabi_idiv0>
    2d04:	bd02      	pop	{r1, pc}
    2d06:	46c0      	nop			; (mov r8, r8)

00002d08 <__aeabi_uidivmod>:
    2d08:	2900      	cmp	r1, #0
    2d0a:	d0f7      	beq.n	2cfc <__udivsi3+0x100>
    2d0c:	e776      	b.n	2bfc <__udivsi3>
    2d0e:	4770      	bx	lr

00002d10 <__aeabi_idiv0>:
    2d10:	4770      	bx	lr
    2d12:	46c0      	nop			; (mov r8, r8)

00002d14 <__libc_init_array>:
    2d14:	b570      	push	{r4, r5, r6, lr}
    2d16:	2600      	movs	r6, #0
    2d18:	4d0c      	ldr	r5, [pc, #48]	; (2d4c <__libc_init_array+0x38>)
    2d1a:	4c0d      	ldr	r4, [pc, #52]	; (2d50 <__libc_init_array+0x3c>)
    2d1c:	1b64      	subs	r4, r4, r5
    2d1e:	10a4      	asrs	r4, r4, #2
    2d20:	42a6      	cmp	r6, r4
    2d22:	d109      	bne.n	2d38 <__libc_init_array+0x24>
    2d24:	2600      	movs	r6, #0
    2d26:	f001 f87d 	bl	3e24 <_init>
    2d2a:	4d0a      	ldr	r5, [pc, #40]	; (2d54 <__libc_init_array+0x40>)
    2d2c:	4c0a      	ldr	r4, [pc, #40]	; (2d58 <__libc_init_array+0x44>)
    2d2e:	1b64      	subs	r4, r4, r5
    2d30:	10a4      	asrs	r4, r4, #2
    2d32:	42a6      	cmp	r6, r4
    2d34:	d105      	bne.n	2d42 <__libc_init_array+0x2e>
    2d36:	bd70      	pop	{r4, r5, r6, pc}
    2d38:	00b3      	lsls	r3, r6, #2
    2d3a:	58eb      	ldr	r3, [r5, r3]
    2d3c:	4798      	blx	r3
    2d3e:	3601      	adds	r6, #1
    2d40:	e7ee      	b.n	2d20 <__libc_init_array+0xc>
    2d42:	00b3      	lsls	r3, r6, #2
    2d44:	58eb      	ldr	r3, [r5, r3]
    2d46:	4798      	blx	r3
    2d48:	3601      	adds	r6, #1
    2d4a:	e7f2      	b.n	2d32 <__libc_init_array+0x1e>
    2d4c:	00003e30 	.word	0x00003e30
    2d50:	00003e30 	.word	0x00003e30
    2d54:	00003e30 	.word	0x00003e30
    2d58:	00003e34 	.word	0x00003e34

00002d5c <memcpy>:
    2d5c:	2300      	movs	r3, #0
    2d5e:	b510      	push	{r4, lr}
    2d60:	429a      	cmp	r2, r3
    2d62:	d100      	bne.n	2d66 <memcpy+0xa>
    2d64:	bd10      	pop	{r4, pc}
    2d66:	5ccc      	ldrb	r4, [r1, r3]
    2d68:	54c4      	strb	r4, [r0, r3]
    2d6a:	3301      	adds	r3, #1
    2d6c:	e7f8      	b.n	2d60 <memcpy+0x4>

00002d6e <memset>:
    2d6e:	0003      	movs	r3, r0
    2d70:	1882      	adds	r2, r0, r2
    2d72:	4293      	cmp	r3, r2
    2d74:	d100      	bne.n	2d78 <memset+0xa>
    2d76:	4770      	bx	lr
    2d78:	7019      	strb	r1, [r3, #0]
    2d7a:	3301      	adds	r3, #1
    2d7c:	e7f9      	b.n	2d72 <memset+0x4>
	...

00002d80 <superUFO>:
    2d80:	1020 e0c0 f0f0 f8f8 fcfc fefe ffff ffff      ...............
    2d90:	ffff ffff ffff ffff fefe fcfc f8f8 f0f0     ................
    2da0:	c0e0 0f07 1f1f 1f1f 1f1f 1f1f 3f1f 7f3f     .............??.
    2db0:	ffff ffff 3f7f 1f3f 1f1f 1f1f 1f1f 1f1f     .....??.........
    2dc0:	070f 4000 6060 5070 4848 6464 7272 7a7a     ...@``pPHHddrrzz
    2dd0:	7a7a 7a7a 7e7a 7e7e 7c7c 7878 7070 6060     zzzzz~~~||xxpp``
    2de0:	0040 0300 0b0b 0b0b 080b 0808 1b08 3b1b     @..............;
    2df0:	7b7b 6b7b 1b2b 081b 0808 0b08 0b0b 0b0b     {{{k+...........
    2e00:	0003                                        ..

00002e02 <smallRock>:
    2e02:	1008 e080 fefc fcfe 80f8 ffff ffff ffff     ................
    2e12:	ffff e080 eabc fcfe 80f8 fefb ffff ffff     ................
    2e22:	fff7                                        ..

00002e24 <largeRock>:
    2e24:	1010 e0c0 fcf8 fefe fefe fefe f8fc e0f0     ................
    2e34:	80c0 ffff ffff ffff ffff ffff ffff ffff     ................
    2e44:	ffff e0c0 d4b8 fefa fefe fabe d8fc e0b0     ................
    2e54:	80c0 fef7 ffff ffff ffff ffff ffff ffff     ................
    2e64:	f7fe                                        ..

00002e66 <smallPit>:
    2e66:	0810 0301 0703 0f07 7f1f ffff 1f3f 030f     ............?...
    2e76:	0101 fcfe f8fc f0f8 80e0 0000 e0c0 fcf0     ................
    2e86:	fefe                                        ..

00002e88 <largePit>:
    2e88:	0818 0301 0703 0f07 0f0f 3f1f ff7f ffff     ...........?....
    2e98:	ffff 3fff 0f1f 0307 0101 fcfe f8fc f0f8     ...?............
    2ea8:	f0f0 c0e0 0080 0000 0000 c000 f0e0 fcf8     ................
    2eb8:	fefe                                        ..

00002eba <evilWave>:
    2eba:	0808 7f0f fffc fcff 0f7f 0c07 c670 70c6     ............p..p
    2eca:	070c                                        ..

00002ecc <evilBomb>:
    2ecc:	0808 7830 fffe ffff 317b 3000 f668 79fd     ..0x....{1.0h..y
    2edc:	0031                                        1.

00002ede <ufo>:
    2ede:	0810 7c38 7c7c 7e7e ffff ffff 7e7e 7c7c     ..8|||~~....~~||
    2eee:	387c 2800 2828 2024 6c68 4e6e 2c2c 2828     |8.((($ hlnN,,((
    2efe:	0028                                        (.

00002f00 <balls>:
    2f00:	1010 1c00 7f3e 7f7f fcfe e0c0 f0f0 e0f0     ....>...........
    2f10:	00c0 0000 7c38 fefe 7fff 033f 0707 0307     ....8|....?.....
    2f20:	0001 0000 3a1c 3e3e 805c c000 a0e0 c0e0     .....:>>\.......
    2f30:	0000 0000 3800 7c7c 3a5c 0100 0303 0103     .....8||\:......
	...

00002f42 <bulletMan>:
    2f42:	0810 3c18 7f7e ffff ffff ffff ffff a5ff     ...<~...........
    2f52:	8181 1800 3c34 7e7e 7e7e 247e 0024 0024     ....4<~~~~~$$.$.
	...

00002f64 <mediumExplode>:
    2f64:	1010 c600 fedf f8fc f0f0 f0fe f0e0 4c78     ..............xL
    2f74:	0046 0301 ff47 3f7f 1f1f 7f3f 1f3f 1e0f     F...G..?..?.?...
    2f84:	201c 0000 1c46 b0b8 c0c0 c0f4 b060 4408     . ..F.......`..D
    2f94:	0000 0100 4501 1f31 050f 3f1f 1603 0c06     .....E1....?....
    2fa4:	0010 df0f 2be3 3812 1c9c c03b 96c4 7327     .....+.8..;...'s
    2fb4:	1e3f 7970 fafb 4164 300c e372 71fb 9958     ?.py..dA.0r..qX.
    2fc4:	1e3f 0b06 2ac1 1800 0c0c 0001 92c0 2103     ?....*.........!
    2fd4:	1e31 7060 cad9 0140 2008 c260 61f3 9018     1.`p..@.. `..a..
    2fe4:	1e31 4746 0201 4024 0c00 0000 3212 89a8     1.FG..$@.....2..
    2ff4:	2623 f270 94c2 40b4 0810 6000 0231 8098     #&p....@...`1...
    3004:	78f0 0146 0200 0020 0400 0000 1200 8820     .xF... ....... .
    3014:	2201 c270 1480 00a0 0010 4000 0220 8010     ."p........@ ...
    3024:	7080                                        .p

00003026 <dualShot>:
    3026:	0808 7f06 7fff ff7f 067f 0600 00af af00     ................
    3036:	0006                                        ..

00003038 <buggie>:
    3038:	0818 f878 f8f8 ffff fcfe f8f8 fef8 ffff     ..x.............
    3048:	ffff ffff feff fcfc 70f8 7000 7070 7e70     .........p.pppp~
    3058:	7874 7070 7070 7e7e 7272 7272 7472 7878     txpppp~~rrrrrtxx
    3068:	0070                                        p.

0000306a <wheel>:
    306a:	0808 1800 7e3c 3c7e 0018 0000 2c18 1834     ....<~~<.....,4.
	...

0000307c <vertExplode>:
    307c:	1810 0000 0000 0000 f8e0 00e0 0000 0000     ................
    308c:	0000 0000 0cc0 f0fc ffff e0ff e8e0 0018     ................
    309c:	8000 7070 fff1 ffff ffff ff7f 7fff effe     ..pp............
    30ac:	40e3 0000 0000 0000 d000 0000 0000 0000     .@..............
    30bc:	0000 0000 0480 e030 ff80 80e0 60c0 0008     ......0......`..
    30cc:	8000 2020 52a0 7d74 37ff 7d3f 3ebf 426c     ..  .Rt}.7?}.>lB
    30dc:	0040 4000 84c0 f87c fec0 f0fe 8e7e fef8     @..@..|.....~...
    30ec:	0006 1000 ff71 ff9e ffff fcff cffc 3cf7     ....q..........<
    30fc:	020e 0c00 7138 7f7f 03ff 0307 ffff 0813     ....8q..........
    310c:	0404 4000 0480 c078 7e00 0080 0e70 f880     ...@..x..~..p...
    311c:	0006 1000 9e61 9300 7ce0 fcef 08c0 30c7     ....a....|.....0
    312c:	020c 0800 0130 7706 0000 0003 fe01 0803     ....0..w........
    313c:	0400 0f06 3323 eeff 6706 fb83 6ee2 c3e7     ....#3...g...n..
    314c:	3e1f 0200 1b33 c673 7c1c ff00 00ff 0c78     .>..3.s..|....x.
    315c:	8086 0400 000c 0100 0006 1800 0001 0000     ................
    316c:	0101 0106 1321 e036 2702 7b03 2022 c326     ....!.6..'.{" &.
    317c:	1e07 0200 0911 c432 0018 0000 007f 0438     ......2.......8.
    318c:	8002 0400 0000 0000 0002 0800 0000 0000     ................
    319c:	0000 7f3c e367 00c0 0804 1020 e141 ffe7     ..<.g..... .A...
    31ac:	7cfe 0700 0c0f 4008 0482 0000 2040 0f09     .|.....@....@ ..
    31bc:	000e 1818 0000 0000 0000 0000 3030 0000     ............00..
    31cc:	0606 663c c143 0080 0004 1000 4100 e6c1     ..<fC........A..
    31dc:	187c 0700 080c 4000 0002 0000 2000 0800     |......@..... ..
    31ec:	0006 0010 0000 0000 0000 0000 2000 0000     ............. ..
    31fc:	0400                                        ..

000031fe <blaster>:
    31fe:	0810 0018 5a42 5a18 5a5a ffff ffff 7eff     ....BZ.ZZZ.....~
    320e:	183c 0018 1842 1800 1842 7e5a 7e76 347a     <...B...B.Z~v~z4
    321e:	0018 4242 5a18 5a5a 7e18 ffff ffff 7eff     ..BB.ZZZ.~.....~
    322e:	183c 0042 1800 1842 2400 6e7e 7e7e 2c5e     <.B...B..$~n~~^,
    323e:	0018                                        ..

00003240 <jumpVelocity>:
    3240:	fffd ffff fffe ffff ffff ffff ffff ffff     ................
    3250:	0000 0000 ffff ffff 0000 0000 0000 0000     ................
	...
    3268:	0001 0000 0000 0000 0001 0000 0001 0000     ................
    3278:	0002 0000 0003 0000                         ........

00003280 <wastefulUncompressedMGClogo>:
	...
    3294:	0000 f0e0 80f8 0000 0000 0000 0000 e080     ................
    32a4:	e0f0 0000 0000 c080 0080 0000 0000 0000     ................
    32b4:	0000 c000 fef8 003c 0000 0000 0000 0000     ......<.........
    32c4:	0000 0000 0000 0080 0000 c080 80c0 0000     ................
    32d4:	0000 0000 8080 0080 1818 9818 fefc 1dff     ................
    32e4:	0c0c 000c 0000 0000 0000 0000 0000 0000     ................
	...
    3314:	0000 ff1f 1fff 703c e0e0 3060 0e1c ff03     ......<p..`0....
    3324:	07ff 0000 0300 c3c3 0000 0000 0000 e0c0     ................
    3334:	1870 ff8c c7ff 0000 8000 78e0 fcfc c080     p..........x....
    3344:	fef8 00fe 7cc0 000f 7f60 ddf9 c1c7 60c0     .....|..`......`
    3354:	1830 c306 ffcf 60ff 1830 070e ff7f 60f3     0......`0......`
    3364:	1030 0000 0000 0000 0000 0000 0000 0000     0...............
	...
    3380:	e0e0 f0f0 f0f0 f0f0 f0f0 f0f0 78f0 7878     .............xxx
    3390:	7878 0000 0000 3f00 407f 0000 0000 0000     xx.....?.@......
    33a0:	0000 3f00 001f 0c00 0306 0f03 1c1f 0c0c     ...?............
    33b0:	9f07 9d9f 878c 8081 8381 8787 8183 0000     ................
    33c0:	0701 c74f c1c0 0707 0001 e000 e0e0 e1e0     ..O.............
    33d0:	e0e1 e0e0 f0f0 f1f1 f1f3 f0f0 00c0 0000     ................
    33e0:	f800 f8f8 38f8 3838 3838 3c3c 3c3c fc3c     .....88888<<<<<.
    33f0:	fcfc 00f8 0000 0000 0000 0000 0000 0000     ................
    3400:	f111 f0f0 00e0 0000 0000 c000 c0c0 e0e0     ................
    3410:	e0e0 00c0 0000 1c04 1c1c 1e1c 1e1e 1e1e     ................
    3420:	0e1e 0e0e fe0e feff 00f0 0000 ff00 ffff     ................
    3430:	0787 0707 ffff 07ff 0303 ff03 ffff 00fc     ................
    3440:	0000 ff00 ffff 00ff 0000 ff00 ffff 00ff     ................
	...
    3458:	ff00 ffff 00ff 0000 ff00 ffff 00ff 0000     ................
    3468:	0000 0000 0000 0700 ffff f0ff 0000 0000     ................
	...
    3480:	ff00 ffff 00ff 0000 0000 0100 0101 ff01     ................
    3490:	ffff 00ff 0000 3c00 fefe 0efe 0e0e 0e0e     .......<........
    34a0:	0e0e 0f0f 8707 ffff 80ff 0000 1f00 ffff     ................
    34b0:	00ff 0000 ff00 ffff 0000 0100 ffff e0ff     ................
    34c0:	0000 0700 ffff f8ff 0000 0100 7fff 7c7f     ...............|
	...
    34d8:	0300 3f3f 3e3f 0000 0000 1f1f 1c1f 1c1c     ..???>..........
    34e8:	1e1e 1e1e 1e1e 8e9e ffbf ffff 0080 0000     ................
	...
    3500:	0100 3f1f 3f3f 3c3c 1c1c 1c1c 1c1c 1e1e     ...???<<........
    3510:	1f1f 8e1f 8080 c0c0 0f0f 0f0f 0f0f c7cf     ................
    3520:	07c7 0707 0707 0707 0307 0000 f080 7373     ..............ss
    3530:	00c3 0000 0300 0101 e000 f8f0 b9f9 01b9     ................
    3540:	0000 0000 3000 fcf8 dcfc 80dc 0000 0000     .....0..........
    3550:	0000 fe3e 80fe 0000 0000 0000 fc30 cefe     ..>.........0...
    3560:	8787 8487 0000 0000 0701 0707 0707 0707     ................
    3570:	0707 0307 0001 0000 0000 0000 0000 0000     ................
	...
    3590:	3e00 7f7f e1e3 e1e1 00c0 0000 0000 7f07     .>..............
    35a0:	707f 7070 0070 0000 0000 3c30 0f3f 0606     .pppp.....0<?...
    35b0:	3f0f 183c 0000 0000 1c04 1d1d 0f1f 070f     .?<.............
    35c0:	0000 0000 0200 0e0e 0f0e 0307 0000 0000     ................
    35d0:	0000 0700 0707 0000 0000 0000 0000 21e1     ...............!
    35e0:	2323 2323 00e0 e000 2020 a020 e020 0000     ####....   . ...
    35f0:	20e0 2020 2020 00e0 e000 2020 2020 e020     .     ....     .
	...
    365c:	0000 88f9 8888 8888 00cf ff00 8080 bf80     ................
    366c:	ff80 0000 88f9 8888 8888 00cf f900 8888     ................
    367c:	8888 cf88                                   ....

00003680 <sineWave>:
    3680:	1110 1212 1413 1515 1716 1818 1a19 1b1a     ................
    3690:	1c1b 1d1c 1e1d 1e1e 1f1f 201f 2020 2020     ...........     
    36a0:	2020 2020 2020 1f1f 1e1f 1e1e 1d1d 1c1c           ..........
    36b0:	1b1b 1a1a 1819 1718 1516 1415 1213 1112     ................
    36c0:	0f10 0e0e 0c0d 0b0b 090a 0808 0607 0506     ................
    36d0:	0405 0304 0203 0202 0101 0001 0000 0000     ................
    36e0:	0000 0000 0000 0101 0201 0202 0303 0404     ................
    36f0:	0505 0606 0807 0908 0b0a 0c0b 0e0d 0f0e     ................

00003700 <makeDigits>:
    3700:	001f 0000 0011 0000 001f 0000 0000 0000     ................
    3710:	001f 0000 0000 0000 001d 0000 0015 0000     ................
    3720:	0017 0000 0011 0000 0015 0000 001f 0000     ................
    3730:	0007 0000 0004 0000 001f 0000 0017 0000     ................
    3740:	0015 0000 001d 0000 001f 0000 0015 0000     ................
    3750:	001d 0000 0001 0000 0001 0000 001f 0000     ................
    3760:	001f 0000 0015 0000 001f 0000 0007 0000     ................
    3770:	0005 0000 001f 0000 000a 0000 0000 0000     ................
    3780:	0000 0000                                   ....

00003784 <tileData>:
    3784:	fefe fefe fefe fefe fcfc fcfc fcfc fcfc     ................
    3794:	f8f8 f8f8 f8f8 f8f8 0b13 0205 0000 0301     ................
    37a4:	0001 0004 0101 1201 0202 0404 4804 0808     .............H..
    37b4:	9088 b090 98b0 9898 4c58 262c 1316 0703     ........XL,&....
    37c4:	0307 0a06 0202 0414 4c44 2c4c 1626 0b13     ........DLL,&...
    37d4:	0509 0404 0002 0000 0000 0000 0002 0000     ................
    37e4:	0109 0602 1216 1212 1313 1313 0b13 0909     ................
    37f4:	0909 0405 0404 0204 0202 0102 0101 0001     ................
    3804:	0000 0002 0000 0004 0000 c080 c0e0 8080     ................
    3814:	80c0 8080 0000 0000 8080 c0c0 3060 7870     ............`0px
    3824:	3030 20a0 4040 8080 8080 c080 c0c0 c0c0     00. @@..........
    3834:	6060 6060 3030 b030 5898 4c4c 0e0c 0c0e     ````000..XLL....
    3844:	2808 0808 5008 1010 2020 4040 4040 8080     .(...P..  @@@@..
    3854:	0000 5040 2cb8 fe7c f7fe ff7f ffff ffff     ..@P.,|.........
    3864:	fefe fcfc f0f8 00c0 0100 1500 4902 0a12     .............I..
    3874:	240a 1515 0a09 0b23 0b8b 0a23 0b23 0b23     .$....#...#.#.#.
	...
    388c:	0000 de00 dede 0000 1e00 001e 1e00 001e     ................
    389c:	6c00 fefe fe6c 6cfe 4800 545c 54fe 2474     .l..l..l.H\T.Tt$
    38ac:	7230 b0bc 30fc 32fc 6000 9ef4 6eba a0e4     0r...0.2.`...n..
    38bc:	7030 b2bc 32f8 30fc 0000 7c00 c6fe 0082     0p...2.0...|....
    38cc:	0000 c682 7cfe 0000 5410 387c 7c38 1054     .....|...T|88|T.
    38dc:	1800 7e18 187e 0018 0000 e080 60e0 0000     ...~~........`..
    38ec:	1800 1818 1818 0018 0000 e000 e0e0 0000     ................
    38fc:	c000 3060 0c18 0004 7c00 fefe 82fe 7cfe     ..`0.....|.....|
    390c:	0000 fc0c fefe 00fe c400 f2e6 dede ccde     ................
    391c:	4400 92d6 fefe 7cfe 3e00 303e fe3e 30fe     .D.....|.>>0>..0
    392c:	5e00 dade dada 72fa 7c00 8afe fafa 72fa     .^.....r.|.....r
    393c:	0200 f202 fefa 060e 6c00 92fe fefe 6cfe     .........l.....l
    394c:	1c00 a2be fefe 7cfe 0000 6c00 6c6c 0000     .......|...lll..
    395c:	0000 ec80 6cec 0000 0000 3810 fe7c 0000     .....l.....8|...
    396c:	6c00 6c6c 6c6c 006c 0000 7cfe 1038 0000     .llllll....|8...
    397c:	0c00 d206 deda 040e 7c00 c6fe aaba bcb6     .........|......
    398c:	fc00 12fe fefe fcfe fe00 fefe 92fe 6cfe     ...............l
    399c:	7c00 fefe 82fe 44c6 fe00 fefe 82fe 7cfe     .|.....D.......|
    39ac:	fe00 fefe 92fe 8292 fe00 fefe 12fe 0212     ................
    39bc:	7c00 fefe 82fe e4a6 fe00 10fe fefe fefe     .|..............
    39cc:	8200 fefe fefe 0082 4000 82c2 fefe 027e     .........@....~.
    39dc:	fe00 fefe 38fe c6ee fe00 fefe 80fe 8080     .....8..........
    39ec:	fe00 1efe 1efc fefe fe00 fefe 381c fefe     .............8..
    39fc:	7c00 82fe fefe 7cfe fe00 fefe 22fe 1c3e     .|.....|.....">.
    3a0c:	7c00 a2fe fefe 7cfe fe00 fefe 22fe dcfe     .|.....|....."..
    3a1c:	4c00 9ede f2fe 64f6 0200 fe02 fefe 0202     .L.....d........
    3a2c:	7e00 80fe fefe 7efe 3e00 e07e fefe 3e7e     .~.....~.>~...~>
    3a3c:	7e00 e0fe e07c 7efe c600 7cee 7c38 c6ee     .~..|..~...|8|..
    3a4c:	0e00 fe1e fef8 0e1e e200 faf2 befe 8e9e     ................
	...
    3a6c:	2000 3830 383c 2030 1000 7030 70f0 1030     . 08<80 ..0p.p0.
    3a7c:	3000 fc78 78fc 0030 0000 fc00 c000 a0e0     .0x..x0.........
    3a8c:	b8fc ffb8 a0b0 baf4 a1a1 a5a1 b4ae c0e0     ................
    3a9c:	1418 ff34 d61e 1e16 171f 1e17 fe1e 3cff     ..4............<
    3aac:	8000 d0e0 fcd8 d0de e0f0 e080 ffc0 80c0     ................
    3abc:	0000 00fc 0000 7438 de56 d676 7c5c 0038     ......8tV.v.\|8.
    3acc:	9000 90f0 0000 0000 00c0 fe00 5858 7a5f     ............XX_z
    3adc:	5a5e 7e5e 7f7f c0e0 0000 0f06 060f 0000     ^Z^~............
    3aec:	0000 7f00 407f 4040 4040 7f40 407f 4040     .....@@@@@@..@@@
    3afc:	4040 7f40 007f 0000 c080 9f20 5150 5252     @@@....... .PQRR
    3b0c:	000e 0000 0000 0000 0000 1c08 1614 c123     ..............#.
    3b1c:	8080 01fe 03fc 0000 0000 0000 0300 fcff     ................
    3b2c:	22c1 8a17 2243 0213 4283 3323 3f3a e377     ."..C"...B#3:?w.
    3b3c:	20c0 901f 2848 0828 070c 0704 080c 0808     . ..H((.........
    3b4c:	1018 e03f 80c0 8080 f0ff 0910 23c5 0810     ..?..........#..
    3b5c:	0000 0000 1e0c e1f3 8080 8080 8080 8080     ................
    3b6c:	7e18 1e18 1ada 187c 4040 6040 4060 4040     .~....|.@@@``@@@
    3b7c:	cf0c 0f0c 0d3d 0cce 0000 0000 0000 8000     ....=...........
    3b8c:	8040 0000 0000 0000 0000 0000 8000 50e0     @..............P
    3b9c:	c0a0 0080 0080 0000 0000 e000 1638 2868     ............8.h(
    3bac:	6050 0080 0000 0000 0000 0002 0000 0000     P`..............
    3bbc:	0000 0000 0000 7080 d028 c0e0 0080 0000     .......p(.......
    3bcc:	0000 0800 0000 0000 0000 0002 0020 0000     ............ ...
    3bdc:	0000 0000 0000 4080 30a0 1638 2241 0804     .......@.08.A"..
    3bec:	8070 8000 4080 40a0 4080 08b0 1728 3c4a     p....@.@.@..(.J<
    3bfc:	349a 6038 00c0 4080 0501 1c0a 229a 0011     .48`...@....."..
    3c0c:	0500 0f0a 0814 5010 9428 250a 0d01 0802     .......P(..%....
    3c1c:	0105 2703 0d06 080e 451e 0d1a 0a10 0000     ...'.....E......
    3c2c:	0100 0712 0a85 0804 5010 9428 250a 1e11     .........P(..%..
    3c3c:	7028 d050 822c 0143 0204 0140 160b 703c     (pP.,.C...@...<p
    3c4c:	d050 9428 2244 0201 140a 7038 8850 0804     P.(.D"....8pP...
    3c5c:	1428 3444 250a 0902 0084 0001 0800 0000     (.D4.%..........
    3c6c:	0000 0001 0102 0384 0323 0204 0001 0000     ........#.......
    3c7c:	0000 0100 0782 0906 497f 0036 413e 003e     .........I6.>A>.
    3c8c:	4946 0031 4946 0031 0808 4908 1c2a 0008     FI1.FI1....I*...
	...
    3ca8:	0000 007f 0000 0000 007f 007f 0000 007f     ................
    3cb8:	007f 007f 007f 007f 007f 007f               ............

00003cc4 <enemySpawnSide>:
    3cc4:	fff0 0080 4520 5458 4152 4c20 4649 2145     .... EXTRA LIFE!
    3cd4:	2020 5400 504f 5320 4f43 4552 0053 504f       .TOP SCORES.OP
    3ce4:	4954 4e4f 0053 2b42 4400 574f 3d4e 4c43     TIONS.B+.DOWN=CL
    3cf4:	2052 4353 524f 5345 5500 3d50 4e49 4556     R SCORES.UP=INVE
    3d04:	5452 4c00 4645 3d54 4f52 4154 4554 4100     RT.LEFT=ROTATE.A
    3d14:	533d 454c 5045 4d00 4e45 3d55 4157 454b     =SLEEP.MENU=WAKE
    3d24:	5320 454c 5045 4200 3d20 5320 5445 5420      SLEEP.B = SET T
    3d34:	4d49 0045 5e5d 4820 554f 5352 4d00 4e49     IME.]^ HOURS.MIN
    3d44:	5455 5345 5d20 005e 2042 203d 454e 5458     UTES ]^.B = NEXT
    3d54:	4d00 4f4f 204e 4f46 4352 0045 2041 203d     .MOON FORCE.A = 
    3d64:	5453 5241 2054 4147 454d 4d00 4347 3220     START GAME.MGC 2
    3d74:	3230 2032 2020 4720 4d41 2045 5942 4220     022    GAME BY B
    3d84:	4e45 4820 4345 004b 4948 4847 5320 4f43     EN HECK.HIGH SCO
    3d94:	4552 2320 4200 523d 4255 2020 2020 3d41     RE #.B=RUB    A=
    3da4:	4e45 4554 0052 4843 4345 504b 494f 544e     ENTER.CHECKPOINT
    3db4:	2820 2930 5000 5541 4553 0044 5453 4741      (0).PAUSED.STAG
    3dc4:	3a45 5300 4f43 4552 003a 494c 4556 3a53     E:.SCORE:.LIVES:
    3dd4:	4100 2020 2042 4320 2020 2044 4520 2020     .A  B  C  D  E  
    3de4:	0046 7e6d 6e7e 7e7e 7e6e 6e7e 7e7e 7e6e     F.m~~n~~n~~n~~n~
    3df4:	6f7e 4700 4d41 2045 564f 5245 4700 5445     ~o.GAME OVER.GET
    3e04:	2020 4552 4441 0059 2b42 2041 203d 4c53       READY.B+A = SL
    3e14:	4545 0050 454d 554e 3d20 5720 4b41 0045     EEP.MENU = WAKE.

00003e24 <_init>:
    3e24:	b5f8      	push	{r3, r4, r5, r6, r7, lr}
    3e26:	46c0      	nop			; (mov r8, r8)
    3e28:	bcf8      	pop	{r3, r4, r5, r6, r7}
    3e2a:	bc08      	pop	{r3}
    3e2c:	469e      	mov	lr, r3
    3e2e:	4770      	bx	lr

00003e30 <__init_array_start>:
    3e30:	000000b5 	.word	0x000000b5

00003e34 <_fini>:
    3e34:	b5f8      	push	{r3, r4, r5, r6, r7, lr}
    3e36:	46c0      	nop			; (mov r8, r8)
    3e38:	bcf8      	pop	{r3, r4, r5, r6, r7}
    3e3a:	bc08      	pop	{r3}
    3e3c:	469e      	mov	lr, r3
    3e3e:	4770      	bx	lr

00003e40 <__fini_array_start>:
    3e40:	0000008d 	.word	0x0000008d
