
Tester.elf:     file format elf32-littlearm

Sections:
Idx Name          Size      VMA       LMA       File off  Algn
  0 .text         0000049c  00000000  00000000  00010000  2**2
                  CONTENTS, ALLOC, LOAD, READONLY, CODE
  1 .relocate     00000434  20000000  0000049c  00020000  2**3
                  CONTENTS, ALLOC, LOAD, DATA
  2 .bss          00000040  20000434  000008d0  00020434  2**2
                  ALLOC
  3 .stack        00000404  20000474  00000910  00020434  2**0
                  ALLOC
  4 .ARM.attributes 00000028  00000000  00000000  00020434  2**0
                  CONTENTS, READONLY
  5 .comment      00000059  00000000  00000000  0002045c  2**0
                  CONTENTS, READONLY
  6 .debug_frame  000001c0  00000000  00000000  000204b8  2**2
                  CONTENTS, READONLY, DEBUGGING

Disassembly of section .text:

00000000 <exception_table>:
   0:	78 08 00 20 f1 00 00 00 ed 00 00 00 ed 00 00 00     x.. ............
	...
  2c:	ed 00 00 00 00 00 00 00 00 00 00 00 ed 00 00 00     ................
  3c:	ed 00 00 00 ed 00 00 00 ed 00 00 00 ed 00 00 00     ................
  4c:	ed 00 00 00 ed 00 00 00 ed 00 00 00 ed 00 00 00     ................
  5c:	ed 00 00 00 ed 00 00 00 ed 00 00 00 ed 00 00 00     ................
  6c:	00 00 00 00 ed 00 00 00 ed 00 00 00 ed 00 00 00     ................
  7c:	ed 00 00 00 ed 00 00 00 ed 00 00 00 ed 00 00 00     ................

0000008c <__do_global_dtors_aux>:
  8c:	b510      	push	{r4, lr}
  8e:	4c06      	ldr	r4, [pc, #24]	; (a8 <__do_global_dtors_aux+0x1c>)
  90:	7823      	ldrb	r3, [r4, #0]
  92:	2b00      	cmp	r3, #0
  94:	d107      	bne.n	a6 <__do_global_dtors_aux+0x1a>
  96:	4b05      	ldr	r3, [pc, #20]	; (ac <__do_global_dtors_aux+0x20>)
  98:	2b00      	cmp	r3, #0
  9a:	d002      	beq.n	a2 <__do_global_dtors_aux+0x16>
  9c:	4804      	ldr	r0, [pc, #16]	; (b0 <__do_global_dtors_aux+0x24>)
  9e:	e000      	b.n	a2 <__do_global_dtors_aux+0x16>
  a0:	bf00      	nop
  a2:	2301      	movs	r3, #1
  a4:	7023      	strb	r3, [r4, #0]
  a6:	bd10      	pop	{r4, pc}
  a8:	20000434 	.word	0x20000434
  ac:	00000000 	.word	0x00000000
  b0:	0000049c 	.word	0x0000049c

000000b4 <frame_dummy>:
  b4:	4b08      	ldr	r3, [pc, #32]	; (d8 <frame_dummy+0x24>)
  b6:	b510      	push	{r4, lr}
  b8:	2b00      	cmp	r3, #0
  ba:	d003      	beq.n	c4 <frame_dummy+0x10>
  bc:	4907      	ldr	r1, [pc, #28]	; (dc <frame_dummy+0x28>)
  be:	4808      	ldr	r0, [pc, #32]	; (e0 <frame_dummy+0x2c>)
  c0:	e000      	b.n	c4 <frame_dummy+0x10>
  c2:	bf00      	nop
  c4:	4807      	ldr	r0, [pc, #28]	; (e4 <frame_dummy+0x30>)
  c6:	6803      	ldr	r3, [r0, #0]
  c8:	2b00      	cmp	r3, #0
  ca:	d100      	bne.n	ce <frame_dummy+0x1a>
  cc:	bd10      	pop	{r4, pc}
  ce:	4b06      	ldr	r3, [pc, #24]	; (e8 <frame_dummy+0x34>)
  d0:	2b00      	cmp	r3, #0
  d2:	d0fb      	beq.n	cc <frame_dummy+0x18>
  d4:	4798      	blx	r3
  d6:	e7f9      	b.n	cc <frame_dummy+0x18>
  d8:	00000000 	.word	0x00000000
  dc:	20000438 	.word	0x20000438
  e0:	0000049c 	.word	0x0000049c
  e4:	0000049c 	.word	0x0000049c
  e8:	00000000 	.word	0x00000000

000000ec <Dummy_Handler>:
  ec:	e7fe      	b.n	ec <Dummy_Handler>
	...

000000f0 <Reset_Handler>:
  f0:	4821      	ldr	r0, [pc, #132]	; (178 <Reset_Handler+0x88>)
  f2:	4922      	ldr	r1, [pc, #136]	; (17c <Reset_Handler+0x8c>)
  f4:	b570      	push	{r4, r5, r6, lr}
  f6:	4288      	cmp	r0, r1
  f8:	d004      	beq.n	104 <Reset_Handler+0x14>
  fa:	2300      	movs	r3, #0
  fc:	4c20      	ldr	r4, [pc, #128]	; (180 <Reset_Handler+0x90>)
  fe:	18ca      	adds	r2, r1, r3
 100:	42a2      	cmp	r2, r4
 102:	d332      	bcc.n	16a <Reset_Handler+0x7a>
 104:	2100      	movs	r1, #0
 106:	4b1f      	ldr	r3, [pc, #124]	; (184 <Reset_Handler+0x94>)
 108:	4a1f      	ldr	r2, [pc, #124]	; (188 <Reset_Handler+0x98>)
 10a:	4293      	cmp	r3, r2
 10c:	d331      	bcc.n	172 <Reset_Handler+0x82>
 10e:	21ff      	movs	r1, #255	; 0xff
 110:	4b1e      	ldr	r3, [pc, #120]	; (18c <Reset_Handler+0x9c>)
 112:	4a1f      	ldr	r2, [pc, #124]	; (190 <Reset_Handler+0xa0>)
 114:	438b      	bics	r3, r1
 116:	6093      	str	r3, [r2, #8]
 118:	2202      	movs	r2, #2
 11a:	250c      	movs	r5, #12
 11c:	2408      	movs	r4, #8
 11e:	2630      	movs	r6, #48	; 0x30
 120:	4b1c      	ldr	r3, [pc, #112]	; (194 <Reset_Handler+0xa4>)
 122:	481d      	ldr	r0, [pc, #116]	; (198 <Reset_Handler+0xa8>)
 124:	625a      	str	r2, [r3, #36]	; 0x24
 126:	78c3      	ldrb	r3, [r0, #3]
 128:	39fc      	subs	r1, #252	; 0xfc
 12a:	438b      	bics	r3, r1
 12c:	4313      	orrs	r3, r2
 12e:	70c3      	strb	r3, [r0, #3]
 130:	78c3      	ldrb	r3, [r0, #3]
 132:	43ab      	bics	r3, r5
 134:	4323      	orrs	r3, r4
 136:	70c3      	strb	r3, [r0, #3]
 138:	4b18      	ldr	r3, [pc, #96]	; (19c <Reset_Handler+0xac>)
 13a:	7b98      	ldrb	r0, [r3, #14]
 13c:	43b0      	bics	r0, r6
 13e:	0006      	movs	r6, r0
 140:	2020      	movs	r0, #32
 142:	4330      	orrs	r0, r6
 144:	7398      	strb	r0, [r3, #14]
 146:	7b98      	ldrb	r0, [r3, #14]
 148:	43a8      	bics	r0, r5
 14a:	4304      	orrs	r4, r0
 14c:	739c      	strb	r4, [r3, #14]
 14e:	7b98      	ldrb	r0, [r3, #14]
 150:	4388      	bics	r0, r1
 152:	4302      	orrs	r2, r0
 154:	739a      	strb	r2, [r3, #14]
 156:	2380      	movs	r3, #128	; 0x80
 158:	4a11      	ldr	r2, [pc, #68]	; (1a0 <Reset_Handler+0xb0>)
 15a:	6851      	ldr	r1, [r2, #4]
 15c:	430b      	orrs	r3, r1
 15e:	6053      	str	r3, [r2, #4]
 160:	4b10      	ldr	r3, [pc, #64]	; (1a4 <Reset_Handler+0xb4>)
 162:	4798      	blx	r3
 164:	4b10      	ldr	r3, [pc, #64]	; (1a8 <Reset_Handler+0xb8>)
 166:	4798      	blx	r3
 168:	e7fe      	b.n	168 <Reset_Handler+0x78>
 16a:	58c5      	ldr	r5, [r0, r3]
 16c:	3304      	adds	r3, #4
 16e:	6015      	str	r5, [r2, #0]
 170:	e7c5      	b.n	fe <Reset_Handler+0xe>
 172:	c302      	stmia	r3!, {r1}
 174:	e7c9      	b.n	10a <Reset_Handler+0x1a>
 176:	46c0      	nop			; (mov r8, r8)
 178:	0000049c 	.word	0x0000049c
 17c:	20000000 	.word	0x20000000
 180:	20000434 	.word	0x20000434
 184:	20000434 	.word	0x20000434
 188:	20000474 	.word	0x20000474
 18c:	00000000 	.word	0x00000000
 190:	e000ed00 	.word	0xe000ed00
 194:	410070fc 	.word	0x410070fc
 198:	41005000 	.word	0x41005000
 19c:	41004800 	.word	0x41004800
 1a0:	41004000 	.word	0x41004000
 1a4:	000002d5 	.word	0x000002d5
 1a8:	0000027d 	.word	0x0000027d

000001ac <SystemInit>:
 1ac:	4a01      	ldr	r2, [pc, #4]	; (1b4 <SystemInit+0x8>)
 1ae:	4b02      	ldr	r3, [pc, #8]	; (1b8 <SystemInit+0xc>)
 1b0:	601a      	str	r2, [r3, #0]
 1b2:	4770      	bx	lr
 1b4:	000f4240 	.word	0x000f4240
 1b8:	20000000 	.word	0x20000000

000001bc <clocksInit48Mhz>:
 1bc:	b530      	push	{r4, r5, lr}
 1be:	4b25      	ldr	r3, [pc, #148]	; (254 <clocksInit48Mhz+0x98>)
 1c0:	4925      	ldr	r1, [pc, #148]	; (258 <clocksInit48Mhz+0x9c>)
 1c2:	6a1a      	ldr	r2, [r3, #32]
 1c4:	4825      	ldr	r0, [pc, #148]	; (25c <clocksInit48Mhz+0xa0>)
 1c6:	400a      	ands	r2, r1
 1c8:	2180      	movs	r1, #128	; 0x80
 1ca:	621a      	str	r2, [r3, #32]
 1cc:	6a1a      	ldr	r2, [r3, #32]
 1ce:	438a      	bics	r2, r1
 1d0:	621a      	str	r2, [r3, #32]
 1d2:	6842      	ldr	r2, [r0, #4]
 1d4:	3962      	subs	r1, #98	; 0x62
 1d6:	438a      	bics	r2, r1
 1d8:	0011      	movs	r1, r2
 1da:	2202      	movs	r2, #2
 1dc:	430a      	orrs	r2, r1
 1de:	6042      	str	r2, [r0, #4]
 1e0:	491f      	ldr	r1, [pc, #124]	; (260 <clocksInit48Mhz+0xa4>)
 1e2:	4a20      	ldr	r2, [pc, #128]	; (264 <clocksInit48Mhz+0xa8>)
 1e4:	6091      	str	r1, [r2, #8]
 1e6:	4920      	ldr	r1, [pc, #128]	; (268 <clocksInit48Mhz+0xac>)
 1e8:	6051      	str	r1, [r2, #4]
 1ea:	7851      	ldrb	r1, [r2, #1]
 1ec:	09c9      	lsrs	r1, r1, #7
 1ee:	d1fc      	bne.n	1ea <clocksInit48Mhz+0x2e>
 1f0:	2182      	movs	r1, #130	; 0x82
 1f2:	2080      	movs	r0, #128	; 0x80
 1f4:	01c9      	lsls	r1, r1, #7
 1f6:	8051      	strh	r1, [r2, #2]
 1f8:	8c99      	ldrh	r1, [r3, #36]	; 0x24
 1fa:	4381      	bics	r1, r0
 1fc:	8499      	strh	r1, [r3, #36]	; 0x24
 1fe:	68d9      	ldr	r1, [r3, #12]
 200:	06c9      	lsls	r1, r1, #27
 202:	d5fc      	bpl.n	1fe <clocksInit48Mhz+0x42>
 204:	2181      	movs	r1, #129	; 0x81
 206:	0089      	lsls	r1, r1, #2
 208:	8499      	strh	r1, [r3, #36]	; 0x24
 20a:	68d9      	ldr	r1, [r3, #12]
 20c:	06c9      	lsls	r1, r1, #27
 20e:	d5fc      	bpl.n	20a <clocksInit48Mhz+0x4e>
 210:	4916      	ldr	r1, [pc, #88]	; (26c <clocksInit48Mhz+0xb0>)
 212:	6808      	ldr	r0, [r1, #0]
 214:	4916      	ldr	r1, [pc, #88]	; (270 <clocksInit48Mhz+0xb4>)
 216:	0e85      	lsrs	r5, r0, #26
 218:	6809      	ldr	r1, [r1, #0]
 21a:	02ad      	lsls	r5, r5, #10
 21c:	058c      	lsls	r4, r1, #22
 21e:	0da4      	lsrs	r4, r4, #22
 220:	432c      	orrs	r4, r5
 222:	0589      	lsls	r1, r1, #22
 224:	629c      	str	r4, [r3, #40]	; 0x28
 226:	0dc9      	lsrs	r1, r1, #23
 228:	4c12      	ldr	r4, [pc, #72]	; (274 <clocksInit48Mhz+0xb8>)
 22a:	0409      	lsls	r1, r1, #16
 22c:	0ec0      	lsrs	r0, r0, #27
 22e:	4321      	orrs	r1, r4
 230:	0680      	lsls	r0, r0, #26
 232:	4308      	orrs	r0, r1
 234:	2102      	movs	r1, #2
 236:	62d8      	str	r0, [r3, #44]	; 0x2c
 238:	8c98      	ldrh	r0, [r3, #36]	; 0x24
 23a:	4301      	orrs	r1, r0
 23c:	8499      	strh	r1, [r3, #36]	; 0x24
 23e:	68d9      	ldr	r1, [r3, #12]
 240:	0649      	lsls	r1, r1, #25
 242:	d5fc      	bpl.n	23e <clocksInit48Mhz+0x82>
 244:	2300      	movs	r3, #0
 246:	6093      	str	r3, [r2, #8]
 248:	4b0b      	ldr	r3, [pc, #44]	; (278 <clocksInit48Mhz+0xbc>)
 24a:	6053      	str	r3, [r2, #4]
 24c:	7853      	ldrb	r3, [r2, #1]
 24e:	09db      	lsrs	r3, r3, #7
 250:	d1fc      	bne.n	24c <clocksInit48Mhz+0x90>
 252:	bd30      	pop	{r4, r5, pc}
 254:	40000800 	.word	0x40000800
 258:	fffffcff 	.word	0xfffffcff
 25c:	41004000 	.word	0x41004000
 260:	0000fa01 	.word	0x0000fa01
 264:	40000c00 	.word	0x40000c00
 268:	00030601 	.word	0x00030601
 26c:	00806024 	.word	0x00806024
 270:	00806028 	.word	0x00806028
 274:	000005dc 	.word	0x000005dc
 278:	00030700 	.word	0x00030700

0000027c <main>:
 27c:	b510      	push	{r4, lr}
 27e:	4b0d      	ldr	r3, [pc, #52]	; (2b4 <main+0x38>)
 280:	4798      	blx	r3
 282:	4b0d      	ldr	r3, [pc, #52]	; (2b8 <main+0x3c>)
 284:	4798      	blx	r3
 286:	2220      	movs	r2, #32
 288:	490c      	ldr	r1, [pc, #48]	; (2bc <main+0x40>)
 28a:	2002      	movs	r0, #2
 28c:	6a0b      	ldr	r3, [r1, #32]
 28e:	2400      	movs	r4, #0
 290:	4313      	orrs	r3, r2
 292:	620b      	str	r3, [r1, #32]
 294:	490a      	ldr	r1, [pc, #40]	; (2c0 <main+0x44>)
 296:	4b0b      	ldr	r3, [pc, #44]	; (2c4 <main+0x48>)
 298:	8059      	strh	r1, [r3, #2]
 29a:	2101      	movs	r1, #1
 29c:	4b0a      	ldr	r3, [pc, #40]	; (2c8 <main+0x4c>)
 29e:	601c      	str	r4, [r3, #0]
 2a0:	6419      	str	r1, [r3, #64]	; 0x40
 2a2:	63d8      	str	r0, [r3, #60]	; 0x3c
 2a4:	615c      	str	r4, [r3, #20]
 2a6:	6018      	str	r0, [r3, #0]
 2a8:	4808      	ldr	r0, [pc, #32]	; (2cc <main+0x50>)
 2aa:	4302      	orrs	r2, r0
 2ac:	4808      	ldr	r0, [pc, #32]	; (2d0 <main+0x54>)
 2ae:	6282      	str	r2, [r0, #40]	; 0x28
 2b0:	6499      	str	r1, [r3, #72]	; 0x48
 2b2:	e7fe      	b.n	2b2 <main+0x36>
 2b4:	000001ad 	.word	0x000001ad
 2b8:	000001bd 	.word	0x000001bd
 2bc:	40000400 	.word	0x40000400
 2c0:	00004011 	.word	0x00004011
 2c4:	40000c00 	.word	0x40000c00
 2c8:	42001400 	.word	0x42001400
 2cc:	55030000 	.word	0x55030000
 2d0:	41004400 	.word	0x41004400

000002d4 <__libc_init_array>:
 2d4:	b570      	push	{r4, r5, r6, lr}
 2d6:	4e0d      	ldr	r6, [pc, #52]	; (30c <__libc_init_array+0x38>)
 2d8:	4d0d      	ldr	r5, [pc, #52]	; (310 <__libc_init_array+0x3c>)
 2da:	2400      	movs	r4, #0
 2dc:	1bad      	subs	r5, r5, r6
 2de:	10ad      	asrs	r5, r5, #2
 2e0:	d005      	beq.n	2ee <__libc_init_array+0x1a>
 2e2:	00a3      	lsls	r3, r4, #2
 2e4:	58f3      	ldr	r3, [r6, r3]
 2e6:	3401      	adds	r4, #1
 2e8:	4798      	blx	r3
 2ea:	42a5      	cmp	r5, r4
 2ec:	d1f9      	bne.n	2e2 <__libc_init_array+0xe>
 2ee:	f000 f8c3 	bl	478 <_init>
 2f2:	4e08      	ldr	r6, [pc, #32]	; (314 <__libc_init_array+0x40>)
 2f4:	4d08      	ldr	r5, [pc, #32]	; (318 <__libc_init_array+0x44>)
 2f6:	2400      	movs	r4, #0
 2f8:	1bad      	subs	r5, r5, r6
 2fa:	10ad      	asrs	r5, r5, #2
 2fc:	d005      	beq.n	30a <__libc_init_array+0x36>
 2fe:	00a3      	lsls	r3, r4, #2
 300:	58f3      	ldr	r3, [r6, r3]
 302:	3401      	adds	r4, #1
 304:	4798      	blx	r3
 306:	42a5      	cmp	r5, r4
 308:	d1f9      	bne.n	2fe <__libc_init_array+0x2a>
 30a:	bd70      	pop	{r4, r5, r6, pc}
 30c:	00000484 	.word	0x00000484
 310:	00000484 	.word	0x00000484
 314:	00000484 	.word	0x00000484
 318:	0000048c 	.word	0x0000048c

0000031c <register_fini>:
 31c:	4b03      	ldr	r3, [pc, #12]	; (32c <register_fini+0x10>)
 31e:	b510      	push	{r4, lr}
 320:	2b00      	cmp	r3, #0
 322:	d002      	beq.n	32a <register_fini+0xe>
 324:	4802      	ldr	r0, [pc, #8]	; (330 <register_fini+0x14>)
 326:	f000 f805 	bl	334 <atexit>
 32a:	bd10      	pop	{r4, pc}
 32c:	00000000 	.word	0x00000000
 330:	00000345 	.word	0x00000345

00000334 <atexit>:
 334:	b510      	push	{r4, lr}
 336:	0001      	movs	r1, r0
 338:	2300      	movs	r3, #0
 33a:	2200      	movs	r2, #0
 33c:	2000      	movs	r0, #0
 33e:	f000 f81f 	bl	380 <__register_exitproc>
 342:	bd10      	pop	{r4, pc}

00000344 <__libc_fini_array>:
 344:	b570      	push	{r4, r5, r6, lr}
 346:	4b09      	ldr	r3, [pc, #36]	; (36c <__libc_fini_array+0x28>)
 348:	4c09      	ldr	r4, [pc, #36]	; (370 <__libc_fini_array+0x2c>)
 34a:	1ae4      	subs	r4, r4, r3
 34c:	10a4      	asrs	r4, r4, #2
 34e:	d009      	beq.n	364 <__libc_fini_array+0x20>
 350:	4a08      	ldr	r2, [pc, #32]	; (374 <__libc_fini_array+0x30>)
 352:	18a5      	adds	r5, r4, r2
 354:	00ad      	lsls	r5, r5, #2
 356:	18ed      	adds	r5, r5, r3
 358:	682b      	ldr	r3, [r5, #0]
 35a:	3c01      	subs	r4, #1
 35c:	4798      	blx	r3
 35e:	3d04      	subs	r5, #4
 360:	2c00      	cmp	r4, #0
 362:	d1f9      	bne.n	358 <__libc_fini_array+0x14>
 364:	f000 f892 	bl	48c <_fini>
 368:	bd70      	pop	{r4, r5, r6, pc}
 36a:	46c0      	nop			; (mov r8, r8)
 36c:	00000498 	.word	0x00000498
 370:	0000049c 	.word	0x0000049c
 374:	3fffffff 	.word	0x3fffffff

00000378 <__retarget_lock_acquire_recursive>:
 378:	4770      	bx	lr
 37a:	46c0      	nop			; (mov r8, r8)

0000037c <__retarget_lock_release_recursive>:
 37c:	4770      	bx	lr
 37e:	46c0      	nop			; (mov r8, r8)

00000380 <__register_exitproc>:
 380:	b5f0      	push	{r4, r5, r6, r7, lr}
 382:	464e      	mov	r6, r9
 384:	4645      	mov	r5, r8
 386:	46de      	mov	lr, fp
 388:	4657      	mov	r7, sl
 38a:	b5e0      	push	{r5, r6, r7, lr}
 38c:	4d36      	ldr	r5, [pc, #216]	; (468 <STACK_SIZE+0x68>)
 38e:	b083      	sub	sp, #12
 390:	0006      	movs	r6, r0
 392:	6828      	ldr	r0, [r5, #0]
 394:	4698      	mov	r8, r3
 396:	000f      	movs	r7, r1
 398:	4691      	mov	r9, r2
 39a:	f7ff ffed 	bl	378 <__retarget_lock_acquire_recursive>
 39e:	4b33      	ldr	r3, [pc, #204]	; (46c <STACK_SIZE+0x6c>)
 3a0:	681c      	ldr	r4, [r3, #0]
 3a2:	23a4      	movs	r3, #164	; 0xa4
 3a4:	005b      	lsls	r3, r3, #1
 3a6:	58e0      	ldr	r0, [r4, r3]
 3a8:	2800      	cmp	r0, #0
 3aa:	d052      	beq.n	452 <STACK_SIZE+0x52>
 3ac:	6843      	ldr	r3, [r0, #4]
 3ae:	2b1f      	cmp	r3, #31
 3b0:	dc13      	bgt.n	3da <__register_exitproc+0x5a>
 3b2:	1c5a      	adds	r2, r3, #1
 3b4:	9201      	str	r2, [sp, #4]
 3b6:	2e00      	cmp	r6, #0
 3b8:	d128      	bne.n	40c <STACK_SIZE+0xc>
 3ba:	9a01      	ldr	r2, [sp, #4]
 3bc:	3302      	adds	r3, #2
 3be:	009b      	lsls	r3, r3, #2
 3c0:	6042      	str	r2, [r0, #4]
 3c2:	501f      	str	r7, [r3, r0]
 3c4:	6828      	ldr	r0, [r5, #0]
 3c6:	f7ff ffd9 	bl	37c <__retarget_lock_release_recursive>
 3ca:	2000      	movs	r0, #0
 3cc:	b003      	add	sp, #12
 3ce:	bc3c      	pop	{r2, r3, r4, r5}
 3d0:	4690      	mov	r8, r2
 3d2:	4699      	mov	r9, r3
 3d4:	46a2      	mov	sl, r4
 3d6:	46ab      	mov	fp, r5
 3d8:	bdf0      	pop	{r4, r5, r6, r7, pc}
 3da:	4b25      	ldr	r3, [pc, #148]	; (470 <STACK_SIZE+0x70>)
 3dc:	2b00      	cmp	r3, #0
 3de:	d03d      	beq.n	45c <STACK_SIZE+0x5c>
 3e0:	20c8      	movs	r0, #200	; 0xc8
 3e2:	0040      	lsls	r0, r0, #1
 3e4:	e000      	b.n	3e8 <__register_exitproc+0x68>
 3e6:	bf00      	nop
 3e8:	2800      	cmp	r0, #0
 3ea:	d037      	beq.n	45c <STACK_SIZE+0x5c>
 3ec:	22a4      	movs	r2, #164	; 0xa4
 3ee:	2300      	movs	r3, #0
 3f0:	0052      	lsls	r2, r2, #1
 3f2:	58a1      	ldr	r1, [r4, r2]
 3f4:	6043      	str	r3, [r0, #4]
 3f6:	6001      	str	r1, [r0, #0]
 3f8:	50a0      	str	r0, [r4, r2]
 3fa:	3240      	adds	r2, #64	; 0x40
 3fc:	5083      	str	r3, [r0, r2]
 3fe:	3204      	adds	r2, #4
 400:	5083      	str	r3, [r0, r2]
 402:	3301      	adds	r3, #1
 404:	9301      	str	r3, [sp, #4]
 406:	2300      	movs	r3, #0
 408:	2e00      	cmp	r6, #0
 40a:	d0d6      	beq.n	3ba <__register_exitproc+0x3a>
 40c:	009a      	lsls	r2, r3, #2
 40e:	4692      	mov	sl, r2
 410:	4482      	add	sl, r0
 412:	464a      	mov	r2, r9
 414:	2188      	movs	r1, #136	; 0x88
 416:	4654      	mov	r4, sl
 418:	5062      	str	r2, [r4, r1]
 41a:	22c4      	movs	r2, #196	; 0xc4
 41c:	0052      	lsls	r2, r2, #1
 41e:	4691      	mov	r9, r2
 420:	4481      	add	r9, r0
 422:	464a      	mov	r2, r9
 424:	3987      	subs	r1, #135	; 0x87
 426:	4099      	lsls	r1, r3
 428:	6812      	ldr	r2, [r2, #0]
 42a:	468b      	mov	fp, r1
 42c:	430a      	orrs	r2, r1
 42e:	4694      	mov	ip, r2
 430:	464a      	mov	r2, r9
 432:	4661      	mov	r1, ip
 434:	6011      	str	r1, [r2, #0]
 436:	2284      	movs	r2, #132	; 0x84
 438:	4641      	mov	r1, r8
 43a:	0052      	lsls	r2, r2, #1
 43c:	50a1      	str	r1, [r4, r2]
 43e:	2e02      	cmp	r6, #2
 440:	d1bb      	bne.n	3ba <__register_exitproc+0x3a>
 442:	0002      	movs	r2, r0
 444:	465c      	mov	r4, fp
 446:	328d      	adds	r2, #141	; 0x8d
 448:	32ff      	adds	r2, #255	; 0xff
 44a:	6811      	ldr	r1, [r2, #0]
 44c:	430c      	orrs	r4, r1
 44e:	6014      	str	r4, [r2, #0]
 450:	e7b3      	b.n	3ba <__register_exitproc+0x3a>
 452:	0020      	movs	r0, r4
 454:	304d      	adds	r0, #77	; 0x4d
 456:	30ff      	adds	r0, #255	; 0xff
 458:	50e0      	str	r0, [r4, r3]
 45a:	e7a7      	b.n	3ac <__register_exitproc+0x2c>
 45c:	6828      	ldr	r0, [r5, #0]
 45e:	f7ff ff8d 	bl	37c <__retarget_lock_release_recursive>
 462:	2001      	movs	r0, #1
 464:	4240      	negs	r0, r0
 466:	e7b1      	b.n	3cc <__register_exitproc+0x4c>
 468:	20000430 	.word	0x20000430
 46c:	00000474 	.word	0x00000474
 470:	00000000 	.word	0x00000000

00000474 <_global_impure_ptr>:
 474:	20000008                                ... 

00000478 <_init>:
 478:	b5f8      	push	{r3, r4, r5, r6, r7, lr}
 47a:	46c0      	nop			; (mov r8, r8)
 47c:	bcf8      	pop	{r3, r4, r5, r6, r7}
 47e:	bc08      	pop	{r3}
 480:	469e      	mov	lr, r3
 482:	4770      	bx	lr

00000484 <__init_array_start>:
 484:	0000031d 	.word	0x0000031d

00000488 <__frame_dummy_init_array_entry>:
 488:	000000b5                                ....

0000048c <_fini>:
 48c:	b5f8      	push	{r3, r4, r5, r6, r7, lr}
 48e:	46c0      	nop			; (mov r8, r8)
 490:	bcf8      	pop	{r3, r4, r5, r6, r7}
 492:	bc08      	pop	{r3}
 494:	469e      	mov	lr, r3
 496:	4770      	bx	lr

00000498 <__fini_array_start>:
 498:	0000008d 	.word	0x0000008d
